---
triple:          'arm64-apple-darwin'
binary-path:     '/Users/administratorregula/builds/2/CrossPlatform_LivenessSources/build_ios/iphoneos/Liveness/Release-iphoneos/Liveness.framework/Liveness'
relocations:
  - { offset: 0x444A, size: 0x8, addend: 0x0, symName: __ZNSt3__124__put_character_sequenceB8ne180100IcNS_11char_traitsIcEEEERNS_13basic_ostreamIT_T0_EES7_PKS4_m, symObjAddr: 0xCFC, symBinAddr: 0x4A8C, symSize: 0x164 }
  - { offset: 0x5C54, size: 0x8, addend: 0x0, symName: __ZNSt3__120__throw_length_errorB8ne180100EPKc, symObjAddr: 0xC88, symBinAddr: 0x4A18, symSize: 0x50 }
  - { offset: 0x614E, size: 0x8, addend: 0x0, symName: __ZNSt3__116__pad_and_outputB8ne180100IcNS_11char_traitsIcEEEENS_19ostreambuf_iteratorIT_T0_EES6_PKS4_S8_S8_RNS_8ios_baseES4_, symObjAddr: 0xE60, symBinAddr: 0x4BF0, symSize: 0x1A4 }
  - { offset: 0x7EC7, size: 0x8, addend: 0x0, symName: __ZNSt3__112basic_stringIcNS_11char_traitsIcEENS_9allocatorIcEEE25__init_copy_ctor_externalEPKcm, symObjAddr: 0xBE8, symBinAddr: 0x4978, symSize: 0x8C }
  - { offset: 0x822C, size: 0x8, addend: 0x0, symName: __ZNKSt3__112basic_stringIcNS_11char_traitsIcEENS_9allocatorIcEEE20__throw_length_errorB8ne180100Ev, symObjAddr: 0xC74, symBinAddr: 0x4A04, symSize: 0x14 }
  - { offset: 0x8256, size: 0x8, addend: 0x0, symName: __ZN6common5Timer5resetEv, symObjAddr: 0x60, symBinAddr: 0x4000, symSize: 0x30 }
  - { offset: 0x82D7, size: 0x8, addend: 0x0, symName: __ZN6common5TimerC1ERKNSt3__112basic_stringIcNS1_11char_traitsIcEENS1_9allocatorIcEEEE, symObjAddr: 0x90, symBinAddr: 0x4030, symSize: 0x60 }
  - { offset: 0x8445, size: 0x8, addend: 0x0, symName: __ZN6common5Timer5clearEv, symObjAddr: 0xF0, symBinAddr: 0x4090, symSize: 0xC }
  - { offset: 0x8465, size: 0x8, addend: 0x0, symName: __ZN6common5Timer5startEv, symObjAddr: 0xFC, symBinAddr: 0x409C, symSize: 0x2C }
  - { offset: 0x8573, size: 0x8, addend: 0x0, symName: __ZNK6common5Timer14getTimeDeltaMsEv, symObjAddr: 0x128, symBinAddr: 0x40C8, symSize: 0x64 }
  - { offset: 0x8903, size: 0x8, addend: 0x0, symName: __ZNKSt3__115basic_stringbufIcNS_11char_traitsIcEENS_9allocatorIcEEE3strEv, symObjAddr: 0x1004, symBinAddr: 0x4D94, symSize: 0x258 }
  - { offset: 0x8F56, size: 0x8, addend: 0x0, symName: __ZNSt3__118basic_stringstreamIcNS_11char_traitsIcEENS_9allocatorIcEEED1Ev, symObjAddr: 0x39C, symBinAddr: 0x412C, symSize: 0x94 }
  - { offset: 0x90E9, size: 0x8, addend: 0x0, symName: __ZN6common5Timer4stopEv, symObjAddr: 0x430, symBinAddr: 0x41C0, symSize: 0x68 }
  - { offset: 0x9244, size: 0x8, addend: 0x0, symName: __ZThn16_NSt3__118basic_stringstreamIcNS_11char_traitsIcEENS_9allocatorIcEEED1Ev, symObjAddr: 0x4A8, symBinAddr: 0x4238, symSize: 0x8C }
  - { offset: 0x93EC, size: 0x8, addend: 0x0, symName: __ZTv0_n24_NSt3__118basic_stringstreamIcNS_11char_traitsIcEENS_9allocatorIcEEED1Ev, symObjAddr: 0x534, symBinAddr: 0x42C4, symSize: 0x94 }
  - { offset: 0x9592, size: 0x8, addend: 0x0, symName: __ZNSt3__118basic_stringstreamIcNS_11char_traitsIcEENS_9allocatorIcEEED0Ev, symObjAddr: 0x5C8, symBinAddr: 0x4358, symSize: 0x94 }
  - { offset: 0x975D, size: 0x8, addend: 0x0, symName: __ZThn16_NSt3__118basic_stringstreamIcNS_11char_traitsIcEENS_9allocatorIcEEED0Ev, symObjAddr: 0x65C, symBinAddr: 0x43EC, symSize: 0x94 }
  - { offset: 0x9923, size: 0x8, addend: 0x0, symName: __ZTv0_n24_NSt3__118basic_stringstreamIcNS_11char_traitsIcEENS_9allocatorIcEEED0Ev, symObjAddr: 0x6F0, symBinAddr: 0x4480, symSize: 0x9C }
  - { offset: 0x9AE5, size: 0x8, addend: 0x0, symName: __ZNSt3__115basic_stringbufIcNS_11char_traitsIcEENS_9allocatorIcEEED1Ev, symObjAddr: 0x78C, symBinAddr: 0x451C, symSize: 0x50 }
  - { offset: 0x9C3D, size: 0x8, addend: 0x0, symName: __ZNSt3__115basic_stringbufIcNS_11char_traitsIcEENS_9allocatorIcEEED0Ev, symObjAddr: 0x7DC, symBinAddr: 0x456C, symSize: 0x58 }
  - { offset: 0x9EE0, size: 0x8, addend: 0x0, symName: __ZNSt3__115basic_stringbufIcNS_11char_traitsIcEENS_9allocatorIcEEE7seekoffExNS_8ios_base7seekdirEj, symObjAddr: 0x834, symBinAddr: 0x45C4, symSize: 0x124 }
  - { offset: 0xA10A, size: 0x8, addend: 0x0, symName: __ZNSt3__115basic_stringbufIcNS_11char_traitsIcEENS_9allocatorIcEEE7seekposENS_4fposI11__mbstate_tEEj, symObjAddr: 0x958, symBinAddr: 0x46E8, symSize: 0x18 }
  - { offset: 0xA1A9, size: 0x8, addend: 0x0, symName: __ZNSt3__115basic_stringbufIcNS_11char_traitsIcEENS_9allocatorIcEEE9underflowEv, symObjAddr: 0x970, symBinAddr: 0x4700, symSize: 0x50 }
  - { offset: 0xA24D, size: 0x8, addend: 0x0, symName: __ZNSt3__115basic_stringbufIcNS_11char_traitsIcEENS_9allocatorIcEEE9pbackfailEi, symObjAddr: 0x9C0, symBinAddr: 0x4750, symSize: 0x6C }
  - { offset: 0xA41C, size: 0x8, addend: 0x0, symName: __ZNSt3__115basic_stringbufIcNS_11char_traitsIcEENS_9allocatorIcEEE8overflowEi, symObjAddr: 0xA2C, symBinAddr: 0x47BC, symSize: 0x1BC }
  - { offset: 0xA8FE, size: 0x8, addend: 0x0, symName: __ZNKSt3__112basic_stringIcNS_11char_traitsIcEENS_9allocatorIcEEE20__throw_length_errorB8ne180100Ev, symObjAddr: 0xC74, symBinAddr: 0x4A04, symSize: 0x14 }
  - { offset: 0xA928, size: 0x8, addend: 0x0, symName: __ZNSt3__120__throw_length_errorB8ne180100EPKc, symObjAddr: 0xC88, symBinAddr: 0x4A18, symSize: 0x50 }
  - { offset: 0xA933, size: 0x8, addend: 0x0, symName: __ZNSt12length_errorC1B8ne180100EPKc, symObjAddr: 0xCD8, symBinAddr: 0x4A68, symSize: 0x24 }
  - { offset: 0x16621, size: 0x8, addend: 0x0, symName: __ZNSt3__16vectorIhNS_9allocatorIhEEE18__insert_with_sizeB8ne180100INS_11__wrap_iterIPKcEES8_EENS5_IPhEENS5_IPKhEET_T0_l, symObjAddr: 0x1550, symBinAddr: 0x5314, symSize: 0x418 }
  - { offset: 0x170E6, size: 0x8, addend: 0x0, symName: __ZNSt3__16vectorIhNS_9allocatorIhEEE18__insert_with_sizeB8ne180100INS_11__wrap_iterIPKhEES8_EENS5_IPhEES8_T_T0_l, symObjAddr: 0x1968, symBinAddr: 0x572C, symSize: 0x398 }
  - { offset: 0x17199, size: 0x8, addend: 0x0, symName: __ZNSt3__16vectorIhNS_9allocatorIhEEE18__insert_with_sizeB8ne180100INS_11__wrap_iterIPKhEES8_EENS5_IPhEES8_T_T0_l, symObjAddr: 0x1968, symBinAddr: 0x572C, symSize: 0x398 }
  - { offset: 0x17D5D, size: 0x8, addend: 0x0, symName: __ZNSt3__16vectorIhNS_9allocatorIhEEE18__insert_with_sizeB8ne180100IPKhS6_EENS_11__wrap_iterIPhEENS7_IS6_EET_T0_l, symObjAddr: 0x1D00, symBinAddr: 0x5AC4, symSize: 0x2B4 }
  - { offset: 0x17DB3, size: 0x8, addend: 0x0, symName: __ZN6common6base647EncoderC1ERKNSt3__16vectorIhNS2_9allocatorIhEEEENS_13Base64Rfc46486OptionE, symObjAddr: 0x38C, symBinAddr: 0x4FEC, symSize: 0xA4 }
  - { offset: 0x18144, size: 0x8, addend: 0x0, symName: __ZNSt3__16vectorIhNS_9allocatorIhEEE18__insert_with_sizeB8ne180100IPKhS6_EENS_11__wrap_iterIPhEENS7_IS6_EET_T0_l, symObjAddr: 0x1D00, symBinAddr: 0x5AC4, symSize: 0x2B4 }
  - { offset: 0x18CC2, size: 0x8, addend: 0x0, symName: __ZNSt3__16vectorIcNS_9allocatorIcEEE8__appendEmRKc, symObjAddr: 0x1FB4, symBinAddr: 0x5D78, symSize: 0x2B4 }
  - { offset: 0x18FF6, size: 0x8, addend: 0x0, symName: __ZN6common6base647Encoder8toStringEv, symObjAddr: 0x6CC, symBinAddr: 0x5090, symSize: 0xF8 }
  - { offset: 0x194A3, size: 0x8, addend: 0x0, symName: __ZN6common6base647Encoder21internalEncodeProcessEv, symObjAddr: 0x7C4, symBinAddr: 0x5188, symSize: 0x178 }
  - { offset: 0x194B5, size: 0x8, addend: 0x0, symName: __ZN6common6base647Encoder21internalEncodeProcessEv, symObjAddr: 0x7C4, symBinAddr: 0x5188, symSize: 0x178 }
  - { offset: 0x19748, size: 0x8, addend: 0x0, symName: __ZNSt3__16vectorIcNS_9allocatorIcEEE8__appendEmRKc, symObjAddr: 0x1FB4, symBinAddr: 0x5D78, symSize: 0x2B4 }
  - { offset: 0x19D5A, size: 0x8, addend: 0x0, symName: __ZNKSt3__16vectorIhNS_9allocatorIhEEE20__throw_length_errorB8ne180100Ev, symObjAddr: 0xEDC, symBinAddr: 0x5300, symSize: 0x14 }
  - { offset: 0x1D6F8, size: 0x8, addend: 0x0, symName: __ZN6common13Base64Rfc4648C2ENS0_6OptionE, symObjAddr: 0xB0, symBinAddr: 0x602C, symSize: 0x5C }
  - { offset: 0x205A5, size: 0x8, addend: 0x0, symName: __ZN6common3zip5entryrsERNS0_12input_readerERNS1_12extraField_tE, symObjAddr: 0x988, symBinAddr: 0x60AC, symSize: 0x14C }
  - { offset: 0x2D302, size: 0x8, addend: 0x0, symName: __ZSt28__throw_bad_array_new_lengthB8ne180100v, symObjAddr: 0x3A54, symBinAddr: 0x81EC, symSize: 0x28 }
  - { offset: 0x2DF69, size: 0x8, addend: 0x0, symName: __ZNSt11range_errorC1B8ne180100EPKc, symObjAddr: 0x208, symBinAddr: 0x6088, symSize: 0x24 }
  - { offset: 0x2E7FD, size: 0x8, addend: 0x0, symName: __ZN6common3zip5entry10local_file6header7extractERNS0_12input_readerE, symObjAddr: 0xAD4, symBinAddr: 0x61F8, symSize: 0x5F0 }
  - { offset: 0x30E7E, size: 0x8, addend: 0x0, symName: __ZNSt3__16vectorINS_12basic_stringIcNS_11char_traitsIcEENS_9allocatorIcEEEENS4_IS6_EEE24__emplace_back_slow_pathIJRKNS_17basic_string_viewIcS3_EEEEEPS6_DpOT_, symObjAddr: 0x3A90, symBinAddr: 0x8214, symSize: 0x228 }
  - { offset: 0x30E89, size: 0x8, addend: 0x0, symName: __ZN6common3zip5entry17central_directory11file_header7extractERNS0_12input_readerE, symObjAddr: 0x130C, symBinAddr: 0x67E8, symSize: 0x818 }
  - { offset: 0x347C8, size: 0x8, addend: 0x0, symName: __ZN6common3zip5entry17central_directory7extractERNS0_12input_readerE, symObjAddr: 0x1B24, symBinAddr: 0x7000, symSize: 0x3E0 }
  - { offset: 0x36036, size: 0x8, addend: 0x0, symName: __ZN6common3zip11mapped_file12parseProcessEv, symObjAddr: 0x1F54, symBinAddr: 0x73E0, symSize: 0x634 }
  - { offset: 0x37FD2, size: 0x8, addend: 0x0, symName: __ZNSt3__16vectorIN6common3zip5entry17central_directory11file_headerENS_9allocatorIS5_EEE24__emplace_back_slow_pathIJS5_EEEPS5_DpOT_, symObjAddr: 0x3D44, symBinAddr: 0x84A0, symSize: 0x1C8 }
  - { offset: 0x3871C, size: 0x8, addend: 0x0, symName: __ZNSt3__16vectorIN6common3zip11mapped_file10entry_fileENS_9allocatorIS4_EEE5clearB8ne180100Ev, symObjAddr: 0x2B8C, symBinAddr: 0x7AC0, symSize: 0x50 }
  - { offset: 0x38966, size: 0x8, addend: 0x0, symName: __ZNSt3__16vectorIN6common3zip11mapped_file10entry_fileENS_9allocatorIS4_EEE7reserveEm, symObjAddr: 0x2BDC, symBinAddr: 0x7B10, symSize: 0x120 }
  - { offset: 0x38F40, size: 0x8, addend: 0x0, symName: __ZNSt3__16vectorIN6common3zip11mapped_file10entry_fileENS_9allocatorIS4_EEE24__emplace_back_slow_pathIJRKNS2_5entry17central_directory11file_headerEEEEPS4_DpOT_, symObjAddr: 0x3F34, symBinAddr: 0x8668, symSize: 0x1C0 }
  - { offset: 0x396A5, size: 0x8, addend: 0x0, symName: __ZNSt3__16vectorIhNS_9allocatorIhEEE18__assign_with_sizeB8ne180100IPhS5_EEvT_T0_l, symObjAddr: 0x40F4, symBinAddr: 0x8828, symSize: 0x148 }
  - { offset: 0x396BB, size: 0x8, addend: 0x0, symName: __ZNSt3__16vectorIN6common3zip5entry17central_directory11file_headerENS_9allocatorIS5_EEED1B8ne180100Ev, symObjAddr: 0x2D08, symBinAddr: 0x7C30, symSize: 0x70 }
  - { offset: 0x39E96, size: 0x8, addend: 0x0, symName: __ZNSt3__16vectorINS_12basic_stringIcNS_11char_traitsIcEENS_9allocatorIcEEEENS4_IS6_EEE24__emplace_back_slow_pathIJRKNS_17basic_string_viewIcS3_EEEEEPS6_DpOT_, symObjAddr: 0x3A90, symBinAddr: 0x8214, symSize: 0x228 }
  - { offset: 0x3A83F, size: 0x8, addend: 0x0, symName: __ZNSt3__114__split_bufferINS_12basic_stringIcNS_11char_traitsIcEENS_9allocatorIcEEEERNS4_IS6_EEED1Ev, symObjAddr: 0x3CCC, symBinAddr: 0x843C, symSize: 0x64 }
  - { offset: 0x3A84A, size: 0x8, addend: 0x0, symName: __ZNSt3__16vectorINS_12basic_stringIcNS_11char_traitsIcEENS_9allocatorIcEEEENS4_IS6_EEED1B8ne180100Ev, symObjAddr: 0x27CC, symBinAddr: 0x7A14, symSize: 0x70 }
  - { offset: 0x3AD2F, size: 0x8, addend: 0x0, symName: __ZNK6common3zip11mapped_file10entry_file10decompressEv, symObjAddr: 0x2EF0, symBinAddr: 0x7CA0, symSize: 0x164 }
  - { offset: 0x3B0E7, size: 0x8, addend: 0x0, symName: __ZNK6common3zip11mapped_file10entry_file16decompressedDataEv, symObjAddr: 0x28DC, symBinAddr: 0x7A84, symSize: 0x2C }
  - { offset: 0x3B22A, size: 0x8, addend: 0x0, symName: __ZNK6common3zip11mapped_file5beginEv, symObjAddr: 0x29E8, symBinAddr: 0x7AB0, symSize: 0x8 }
  - { offset: 0x3B24E, size: 0x8, addend: 0x0, symName: __ZNK6common3zip11mapped_file5beginEv, symObjAddr: 0x29E8, symBinAddr: 0x7AB0, symSize: 0x8 }
  - { offset: 0x3B283, size: 0x8, addend: 0x0, symName: __ZNK6common3zip11mapped_file3endEv, symObjAddr: 0x29F8, symBinAddr: 0x7AB8, symSize: 0x8 }
  - { offset: 0x3B2AF, size: 0x8, addend: 0x0, symName: __ZNK6common3zip11mapped_file3endEv, symObjAddr: 0x29F8, symBinAddr: 0x7AB8, symSize: 0x8 }
  - { offset: 0x3B5CB, size: 0x8, addend: 0x0, symName: __ZNSt3__16vectorIN6common3zip11mapped_file10entry_fileENS_9allocatorIS4_EEE24__emplace_back_slow_pathIJRKNS2_5entry17central_directory11file_headerEEEEPS4_DpOT_, symObjAddr: 0x3F34, symBinAddr: 0x8668, symSize: 0x1C0 }
  - { offset: 0x3B7F1, size: 0x8, addend: 0x0, symName: __ZNSt3__16vectorIhNS_9allocatorIhEEE6assignEmRKh, symObjAddr: 0x3068, symBinAddr: 0x7E04, symSize: 0x248 }
  - { offset: 0x3BF63, size: 0x8, addend: 0x0, symName: __ZN6common3zip4fileaSENS_4type4spanIKhLm18446744073709551615EEE, symObjAddr: 0x3438, symBinAddr: 0x804C, symSize: 0x114 }
  - { offset: 0x3CA28, size: 0x8, addend: 0x0, symName: __ZN6common3zip4fileC1EONSt3__16vectorIhNS2_9allocatorIhEEEE, symObjAddr: 0x364C, symBinAddr: 0x8160, symSize: 0x8C }
  - { offset: 0x3CD0F, size: 0x8, addend: 0x0, symName: __ZN6common3zip4fileC1EONSt3__16vectorIhNS2_9allocatorIhEEEE.cold.1, symObjAddr: 0x4294, symBinAddr: 0xC44224, symSize: 0x68 }
  - { offset: 0x3D02C, size: 0x8, addend: 0x0, symName: __ZNSt3__16vectorIhNS_9allocatorIhEEE18__assign_with_sizeB8ne180100IPhS5_EEvT_T0_l, symObjAddr: 0x40F4, symBinAddr: 0x8828, symSize: 0x148 }
  - { offset: 0x3DE49, size: 0x8, addend: 0x0, symName: __ZNSt3__16vectorIN6common3zip5entry17central_directory11file_headerENS_9allocatorIS5_EEE24__emplace_back_slow_pathIJS5_EEEPS5_DpOT_, symObjAddr: 0x3D44, symBinAddr: 0x84A0, symSize: 0x1C8 }
  - { offset: 0x3DE54, size: 0x8, addend: 0x0, symName: __ZNSt3__114__split_bufferINS_12basic_stringIcNS_11char_traitsIcEENS_9allocatorIcEEEERNS4_IS6_EEED1Ev, symObjAddr: 0x3CCC, symBinAddr: 0x843C, symSize: 0x64 }
  - { offset: 0x3E2EB, size: 0x8, addend: 0x0, symName: _OUTLINED_FUNCTION_0, symObjAddr: 0x42FC, symBinAddr: 0x8970, symSize: 0xC }
  - { offset: 0x4020D, size: 0x8, addend: 0x0, symName: __ZN7facesdk14LSessionParams14posConstNormalE, symObjAddr: 0x18DAC, symBinAddr: 0xE98DF0, symSize: 0x0 }
  - { offset: 0x406DE, size: 0x8, addend: 0x0, symName: __ZN7facesdk14LSessionParams12posConstNearE, symObjAddr: 0x18DCC, symBinAddr: 0xE98E10, symSize: 0x0 }
  - { offset: 0x6F216, size: 0x8, addend: 0x0, symName: __ZNSt3__119__allocator_destroyB8ne180100INS_9allocatorIN7facesdk6LStageEEENS_16reverse_iteratorIPS3_EES7_EEvRT_T0_T1_, symObjAddr: 0xE430, symBinAddr: 0x16A04, symSize: 0x144 }
  - { offset: 0x708EC, size: 0x8, addend: 0x0, symName: __ZNSt3__120__throw_out_of_rangeB8ne180100EPKc, symObjAddr: 0xE8F0, symBinAddr: 0x16EC4, symSize: 0x50 }
  - { offset: 0x70D37, size: 0x8, addend: 0x0, symName: __ZNSt3__119__allocator_destroyB8ne180100INS_9allocatorIN7facesdk6LStageEEENS_16reverse_iteratorINS5_IPS3_EEEES8_EEvRT_T0_T1_, symObjAddr: 0xEF70, symBinAddr: 0x17544, symSize: 0x158 }
  - { offset: 0x7182C, size: 0x8, addend: 0x0, symName: __ZNSt3__127__tree_balance_after_insertB8ne180100IPNS_16__tree_node_baseIPvEEEEvT_S5_, symObjAddr: 0xF75C, symBinAddr: 0x17D30, symSize: 0x1B4 }
  - { offset: 0x7B118, size: 0x8, addend: 0x0, symName: __ZN8nlohmann16json_abi_v3_11_26detail6concatINSt3__112basic_stringIcNS3_11char_traitsIcEENS3_9allocatorIcEEEEJRA29_KcPSA_EEET_DpOT0_, symObjAddr: 0xBC74, symBinAddr: 0x14374, symSize: 0x84 }
  - { offset: 0x7B3A2, size: 0x8, addend: 0x0, symName: __ZN8nlohmann16json_abi_v3_11_26detail9from_jsonINS0_10basic_jsonINSt3__13mapENS4_6vectorENS4_12basic_stringIcNS4_11char_traitsIcEENS4_9allocatorIcEEEEbxydSA_NS0_14adl_serializerENS6_IhNSA_IhEEEEEEmLi0EEEvRKT_RT0_, symObjAddr: 0xB96C, symBinAddr: 0x1406C, symSize: 0x13C }
  - { offset: 0x7B58C, size: 0x8, addend: 0x0, symName: __ZN8nlohmann16json_abi_v3_11_26detail6concatINSt3__112basic_stringIcNS3_11char_traitsIcEENS3_9allocatorIcEEEEJRA22_KcPSA_EEET_DpOT0_, symObjAddr: 0x11F60, symBinAddr: 0x1A204, symSize: 0x84 }
  - { offset: 0x7B838, size: 0x8, addend: 0x0, symName: __ZN8nlohmann16json_abi_v3_11_26detail6concatINSt3__112basic_stringIcNS3_11char_traitsIcEENS3_9allocatorIcEEEEJRA6_KcS9_RA12_SA_EEET_DpOT0_, symObjAddr: 0x11FE4, symBinAddr: 0x1A288, symSize: 0xC8 }
  - { offset: 0x7BCD9, size: 0x8, addend: 0x0, symName: __ZN8nlohmann16json_abi_v3_11_26detail6concatINSt3__112basic_stringIcNS3_11char_traitsIcEENS3_9allocatorIcEEEEJRA32_KcPSA_EEET_DpOT0_, symObjAddr: 0x120AC, symBinAddr: 0x1A350, symSize: 0x84 }
  - { offset: 0x7BF85, size: 0x8, addend: 0x0, symName: __ZN8nlohmann16json_abi_v3_11_26detail9from_jsonINS0_10basic_jsonINSt3__13mapENS4_6vectorENS4_12basic_stringIcNS4_11char_traitsIcEENS4_9allocatorIcEEEEbxydSA_NS0_14adl_serializerENS6_IhNSA_IhEEEEEEEEvRKT_RNSH_8string_tE, symObjAddr: 0x1304C, symBinAddr: 0x1B2F0, symSize: 0xE0 }
  - { offset: 0x7C19A, size: 0x8, addend: 0x0, symName: __ZN8nlohmann16json_abi_v3_11_26detail9from_jsonINS0_10basic_jsonINSt3__13mapENS4_6vectorENS4_12basic_stringIcNS4_11char_traitsIcEENS4_9allocatorIcEEEEbxydSA_NS0_14adl_serializerENS6_IhNSA_IhEEEEEEiLi0EEEvRKT_RT0_, symObjAddr: 0x16AE8, symBinAddr: 0x1ED64, symSize: 0x13C }
  - { offset: 0x7C384, size: 0x8, addend: 0x0, symName: __ZN8nlohmann16json_abi_v3_11_26detail9from_jsonINS0_10basic_jsonINSt3__13mapENS4_6vectorENS4_12basic_stringIcNS4_11char_traitsIcEENS4_9allocatorIcEEEEbxydSA_NS0_14adl_serializerENS6_IhNSA_IhEEEEEENS6_IjNSA_IjEEEELi0EEEDTcmcmcl20from_json_array_implfp_fp0_tlNS1_12priority_tagILj3EEEEEcldtfp_3getINT0_10value_typeEEEcvv_EERKT_RSL_, symObjAddr: 0xC018, symBinAddr: 0x14718, symSize: 0xD8 }
  - { offset: 0x7C5C3, size: 0x8, addend: 0x0, symName: __ZN8nlohmann16json_abi_v3_11_26detail20get_arithmetic_valueINS0_10basic_jsonINSt3__13mapENS4_6vectorENS4_12basic_stringIcNS4_11char_traitsIcEENS4_9allocatorIcEEEEbxydSA_NS0_14adl_serializerENS6_IhNSA_IhEEEEEEiLi0EEEvRKT_RT0_, symObjAddr: 0x12F38, symBinAddr: 0x1B1DC, symSize: 0x114 }
  - { offset: 0x7C7A8, size: 0x8, addend: 0x0, symName: __ZN8nlohmann16json_abi_v3_11_26detail6concatINSt3__112basic_stringIcNS3_11char_traitsIcEENS3_9allocatorIcEEEEJRA25_KcPSA_EEET_DpOT0_, symObjAddr: 0x12EB4, symBinAddr: 0x1B158, symSize: 0x84 }
  - { offset: 0x7CC55, size: 0x8, addend: 0x0, symName: __ZN8nlohmann16json_abi_v3_11_26detail9from_jsonINS0_10basic_jsonINSt3__13mapENS4_6vectorENS4_12basic_stringIcNS4_11char_traitsIcEENS4_9allocatorIcEEEEbxydSA_NS0_14adl_serializerENS6_IhNSA_IhEEEEEEfLi0EEEvRKT_RT0_, symObjAddr: 0x16C24, symBinAddr: 0x1EEA0, symSize: 0x170 }
  - { offset: 0x7CE3F, size: 0x8, addend: 0x0, symName: __ZN8nlohmann16json_abi_v3_11_26detail6concatINSt3__112basic_stringIcNS3_11char_traitsIcEENS3_9allocatorIcEEEEJRA17_KcRKS9_cS9_RA3_SA_EEET_DpOT0_, symObjAddr: 0xBE50, symBinAddr: 0x14550, symSize: 0x128 }
  - { offset: 0x7D3D5, size: 0x8, addend: 0x0, symName: __ZN8nlohmann16json_abi_v3_11_26detail6concatINSt3__112basic_stringIcNS3_11char_traitsIcEENS3_9allocatorIcEEEEJS9_S9_RKS9_EEET_DpOT0_, symObjAddr: 0xBD50, symBinAddr: 0x14450, symSize: 0x100 }
  - { offset: 0x7DDAA, size: 0x8, addend: 0x0, symName: __ZN8nlohmann16json_abi_v3_11_26detail20from_json_array_implINS0_10basic_jsonINSt3__13mapENS4_6vectorENS4_12basic_stringIcNS4_11char_traitsIcEENS4_9allocatorIcEEEEbxydSA_NS0_14adl_serializerENS6_IhNSA_IhEEEEEENS6_IjNSA_IjEEEELi0EEEDTcmcmcldtfp0_7reserveclsr3stdE7declvalINT0_9size_typeEEEEcldtfp_3getINSJ_10value_typeEEEcvv_EERKT_RSJ_NS1_12priority_tagILj1EEE, symObjAddr: 0xC174, symBinAddr: 0x14874, symSize: 0x258 }
  - { offset: 0x7E839, size: 0x8, addend: 0x0, symName: __ZN8nlohmann16json_abi_v3_11_26detail6concatINSt3__112basic_stringIcNS3_11char_traitsIcEENS3_9allocatorIcEEEEJRA28_KcPSA_EEET_DpOT0_, symObjAddr: 0xC0F0, symBinAddr: 0x147F0, symSize: 0x84 }
  - { offset: 0x7EB37, size: 0x8, addend: 0x0, symName: __ZN8nlohmann16json_abi_v3_11_26detail9from_jsonINS0_10basic_jsonINSt3__13mapENS4_6vectorENS4_12basic_stringIcNS4_11char_traitsIcEENS4_9allocatorIcEEEEbxydSA_NS0_14adl_serializerENS6_IhNSA_IhEEEEEEjLi0EEEvRKT_RT0_, symObjAddr: 0xC86C, symBinAddr: 0x14F6C, symSize: 0x13C }
  - { offset: 0x7ED90, size: 0x8, addend: 0x0, symName: __ZN8nlohmann16json_abi_v3_11_26detail6concatINSt3__112basic_stringIcNS3_11char_traitsIcEENS3_9allocatorIcEEEEJRA51_KcPSA_EEET_DpOT0_, symObjAddr: 0xF504, symBinAddr: 0x17AD8, symSize: 0x84 }
  - { offset: 0x7F006, size: 0x8, addend: 0x0, symName: __ZN8nlohmann16json_abi_v3_11_26detail6concatINSt3__112basic_stringIcNS3_11char_traitsIcEENS3_9allocatorIcEEEEJRA61_KcPSA_EEET_DpOT0_, symObjAddr: 0x1081C, symBinAddr: 0x18D74, symSize: 0x84 }
  - { offset: 0x7F304, size: 0x8, addend: 0x0, symName: __ZN8nlohmann16json_abi_v3_11_26detail6concatINSt3__112basic_stringIcNS3_11char_traitsIcEENS3_9allocatorIcEEEEJRA52_KcS9_RA2_SA_EEET_DpOT0_, symObjAddr: 0x111BC, symBinAddr: 0x19714, symSize: 0xC8 }
  - { offset: 0x7F84A, size: 0x8, addend: 0x0, symName: __ZN8nlohmann16json_abi_v3_11_26detail6concatINSt3__112basic_stringIcNS3_11char_traitsIcEENS3_9allocatorIcEEEEJRA16_KcS9_RA56_SA_EEET_DpOT0_, symObjAddr: 0x119C8, symBinAddr: 0x19F20, symSize: 0xC8 }
  - { offset: 0x7FFA6, size: 0x8, addend: 0x0, symName: __ZN8nlohmann16json_abi_v3_11_26detail6concatINSt3__112basic_stringIcNS3_11char_traitsIcEENS3_9allocatorIcEEEEJRA52_KcPSA_EEET_DpOT0_, symObjAddr: 0x12988, symBinAddr: 0x1AC2C, symSize: 0x84 }
  - { offset: 0x80391, size: 0x8, addend: 0x0, symName: __ZN8nlohmann16json_abi_v3_11_26detail6concatINSt3__112basic_stringIcNS3_11char_traitsIcEENS3_9allocatorIcEEEEJRA26_KcS9_cEEET_DpOT0_, symObjAddr: 0x16488, symBinAddr: 0x1E718, symSize: 0xB4 }
  - { offset: 0x80743, size: 0x8, addend: 0x0, symName: __ZN8nlohmann16json_abi_v3_11_26detail6concatINSt3__112basic_stringIcNS3_11char_traitsIcEENS3_9allocatorIcEEEEJS9_RA12_KcS9_RA3_SA_S9_RKS9_EEET_DpOT0_, symObjAddr: 0x16650, symBinAddr: 0x1E8CC, symSize: 0x190 }
  - { offset: 0x81100, size: 0x8, addend: 0x0, symName: __ZN8nlohmann16json_abi_v3_11_26detail6concatINSt3__112basic_stringIcNS3_11char_traitsIcEENS3_9allocatorIcEEEEJPKcRA15_SA_S9_cEEET_DpOT0_, symObjAddr: 0x16A08, symBinAddr: 0x1EC84, symSize: 0xE0 }
  - { offset: 0x819CA, size: 0x8, addend: 0x0, symName: __ZN8nlohmann16json_abi_v3_11_26detail6concatINSt3__112basic_stringIcNS3_11char_traitsIcEENS3_9allocatorIcEEEEJRA10_KcS9_SC_S9_EEET_DpOT0_, symObjAddr: 0x168C8, symBinAddr: 0x1EB44, symSize: 0x10C }
  - { offset: 0x8646A, size: 0x8, addend: 0x0, symName: __ZN7facesdk15LivenessSessionC2ERKNS_14LSessionParamsERKN8nlohmann16json_abi_v3_11_210basic_jsonINSt3__13mapENS7_6vectorENS7_12basic_stringIcNS7_11char_traitsIcEENS7_9allocatorIcEEEEbxydSD_NS5_14adl_serializerENS9_IhNSD_IhEEEEEE, symObjAddr: 0x0, symBinAddr: 0x897C, symSize: 0x544 }
  - { offset: 0x8843B, size: 0x8, addend: 0x0, symName: __ZN7facesdk14LSessionParamsC2ERKS0_, symObjAddr: 0xB338, symBinAddr: 0x13B0C, symSize: 0x2F4 }
  - { offset: 0x89119, size: 0x8, addend: 0x0, symName: __ZNSt3__16vectorIN7facesdk6LStageENS_9allocatorIS2_EEEC2B8ne180100ESt16initializer_listIS2_E, symObjAddr: 0xD878, symBinAddr: 0x15EB0, symSize: 0x118 }
  - { offset: 0x8950C, size: 0x8, addend: 0x0, symName: __ZN8nlohmann16json_abi_v3_11_210basic_jsonINSt3__13mapENS2_6vectorENS2_12basic_stringIcNS2_11char_traitsIcEENS2_9allocatorIcEEEEbxydS8_NS0_14adl_serializerENS4_IhNS8_IhEEEEE10json_value7destroyENS0_6detail7value_tE, symObjAddr: 0xCDB4, symBinAddr: 0x15414, symSize: 0x5EC }
  - { offset: 0x8B079, size: 0x8, addend: 0x0, symName: __ZNSt3__16vectorIfNS_9allocatorIfEEE8__appendEm, symObjAddr: 0xD6C8, symBinAddr: 0x15D14, symSize: 0x19C }
  - { offset: 0x8B4DC, size: 0x8, addend: 0x0, symName: __ZN7facesdk15LivenessSession11initPackageERKN8nlohmann16json_abi_v3_11_210basic_jsonINSt3__13mapENS4_6vectorENS4_12basic_stringIcNS4_11char_traitsIcEENS4_9allocatorIcEEEEbxydSA_NS2_14adl_serializerENS6_IhNSA_IhEEEEEE, symObjAddr: 0x664, symBinAddr: 0x8FE0, symSize: 0x17C }
  - { offset: 0x8BC49, size: 0x8, addend: 0x0, symName: __ZN7facesdk6LStageD1Ev, symObjAddr: 0x5F4, symBinAddr: 0x8F70, symSize: 0x70 }
  - { offset: 0x8BF3E, size: 0x8, addend: 0x0, symName: __ZN8nlohmann16json_abi_v3_11_210basic_jsonINSt3__13mapENS2_6vectorENS2_12basic_stringIcNS2_11char_traitsIcEENS2_9allocatorIcEEEEbxydS8_NS0_14adl_serializerENS4_IhNS8_IhEEEEED1Ev, symObjAddr: 0x7E0, symBinAddr: 0x915C, symSize: 0x2C }
  - { offset: 0x8BF85, size: 0x8, addend: 0x0, symName: __ZNSt3__16vectorIN7facesdk6LStageENS_9allocatorIS2_EEED1B8ne180100Ev, symObjAddr: 0x80C, symBinAddr: 0x9188, symSize: 0x38 }
  - { offset: 0x8C0BC, size: 0x8, addend: 0x0, symName: __ZNSt3__15dequeIN7facesdk11eFL_MessageENS_9allocatorIS2_EEED2B8ne180100Ev, symObjAddr: 0xB8A8, symBinAddr: 0x13FA8, symSize: 0xC4 }
  - { offset: 0x8C4D9, size: 0x8, addend: 0x0, symName: __ZN7facesdk14LSessionParamsD1Ev, symObjAddr: 0x844, symBinAddr: 0x91C0, symSize: 0xA4 }
  - { offset: 0x8CCDA, size: 0x8, addend: 0x0, symName: __ZNSt3__112basic_stringIcNS_11char_traitsIcEENS_9allocatorIcEEEC1B8ne180100ILi0EEEPKc, symObjAddr: 0x544, symBinAddr: 0x8EC0, symSize: 0xB0 }
  - { offset: 0x8D087, size: 0x8, addend: 0x0, symName: __ZN7facesdk6LStageD1Ev, symObjAddr: 0x5F4, symBinAddr: 0x8F70, symSize: 0x70 }
  - { offset: 0x8D0CE, size: 0x8, addend: 0x0, symName: __ZN7facesdk12LFrameResultD2Ev, symObjAddr: 0xB758, symBinAddr: 0x13E58, symSize: 0xC0 }
  - { offset: 0x8D818, size: 0x8, addend: 0x0, symName: __ZN8nlohmann16json_abi_v3_11_210basic_jsonINSt3__13mapENS2_6vectorENS2_12basic_stringIcNS2_11char_traitsIcEENS2_9allocatorIcEEEEbxydS8_NS0_14adl_serializerENS4_IhNS8_IhEEEEEixIKcEERSE_PT_, symObjAddr: 0x3DD8, symBinAddr: 0xC5AC, symSize: 0xF4 }
  - { offset: 0x8DE83, size: 0x8, addend: 0x0, symName: __ZNK8nlohmann16json_abi_v3_11_210basic_jsonINSt3__13mapENS2_6vectorENS2_12basic_stringIcNS2_11char_traitsIcEENS2_9allocatorIcEEEEbxydS8_NS0_14adl_serializerENS4_IhNS8_IhEEEEE2atIRA7_KcLi0EEERKSE_OT_, symObjAddr: 0x4FEC, symBinAddr: 0xD7C0, symSize: 0x1EC }
  - { offset: 0x8E4D8, size: 0x8, addend: 0x0, symName: __ZN8nlohmann16json_abi_v3_11_210basic_jsonINSt3__13mapENS2_6vectorENS2_12basic_stringIcNS2_11char_traitsIcEENS2_9allocatorIcEEEEbxydS8_NS0_14adl_serializerENS4_IhNS8_IhEEEEEC2ERKSE_, symObjAddr: 0xF910, symBinAddr: 0x17EE4, symSize: 0x230 }
  - { offset: 0x8F288, size: 0x8, addend: 0x0, symName: __ZNSt3__16vectorIN7facesdk6LStageENS_9allocatorIS2_EEE22__base_destruct_at_endB8ne180100EPS2_, symObjAddr: 0xE574, symBinAddr: 0x16B48, symSize: 0x148 }
  - { offset: 0x8FE88, size: 0x8, addend: 0x0, symName: __ZN7facesdk15LivenessSessionC1ERKNS_14LSessionParamsERKN8nlohmann16json_abi_v3_11_210basic_jsonINSt3__13mapENS7_6vectorENS7_12basic_stringIcNS7_11char_traitsIcEENS7_9allocatorIcEEEEbxydSD_NS5_14adl_serializerENS9_IhNSD_IhEEEEEE, symObjAddr: 0x8E8, symBinAddr: 0x9264, symSize: 0x4 }
  - { offset: 0x8FED2, size: 0x8, addend: 0x0, symName: __ZN7facesdk15LivenessSessionC1ERKNS_14LSessionParamsERKN8nlohmann16json_abi_v3_11_210basic_jsonINSt3__13mapENS7_6vectorENS7_12basic_stringIcNS7_11char_traitsIcEENS7_9allocatorIcEEEEbxydSD_NS5_14adl_serializerENS9_IhNSD_IhEEEEEE, symObjAddr: 0x8E8, symBinAddr: 0x9264, symSize: 0x4 }
  - { offset: 0x8FF48, size: 0x8, addend: 0x0, symName: __ZNK7facesdk15LivenessSession9frameSizeEv, symObjAddr: 0x8EC, symBinAddr: 0x9268, symSize: 0xC }
  - { offset: 0x8FF71, size: 0x8, addend: 0x0, symName: __ZNK7facesdk15LivenessSession9frameSizeEv, symObjAddr: 0x8EC, symBinAddr: 0x9268, symSize: 0xC }
  - { offset: 0x8FF93, size: 0x8, addend: 0x0, symName: __ZNK7facesdk15LivenessSession9frameSizeEv, symObjAddr: 0x8EC, symBinAddr: 0x9268, symSize: 0xC }
  - { offset: 0x8FFB6, size: 0x8, addend: 0x0, symName: __ZNK7facesdk15LivenessSession11numChannelsEv, symObjAddr: 0x8F8, symBinAddr: 0x9274, symSize: 0x8 }
  - { offset: 0x8FFDF, size: 0x8, addend: 0x0, symName: __ZNK7facesdk15LivenessSession13rotationAngleEv, symObjAddr: 0x900, symBinAddr: 0x927C, symSize: 0x8 }
  - { offset: 0x9006D, size: 0x8, addend: 0x0, symName: __ZN7facesdk15LivenessSession6statusEv, symObjAddr: 0x908, symBinAddr: 0x9284, symSize: 0x94 }
  - { offset: 0x900E8, size: 0x8, addend: 0x0, symName: __ZN7facesdk15LivenessSession7messageEv, symObjAddr: 0xA18, symBinAddr: 0x9318, symSize: 0xE4 }
  - { offset: 0x9015C, size: 0x8, addend: 0x0, symName: __ZNK7facesdk15LivenessSession15processingStageEv, symObjAddr: 0xAFC, symBinAddr: 0x93FC, symSize: 0xC }
  - { offset: 0x90180, size: 0x8, addend: 0x0, symName: __ZNK7facesdk15LivenessSession15processingStageEv, symObjAddr: 0xAFC, symBinAddr: 0x93FC, symSize: 0xC }
  - { offset: 0x9019D, size: 0x8, addend: 0x0, symName: __ZNK7facesdk15LivenessSession14processingTimeEv, symObjAddr: 0xB08, symBinAddr: 0x9408, symSize: 0x8 }
  - { offset: 0x901BF, size: 0x8, addend: 0x0, symName: __ZNK7facesdk15LivenessSession6paramsEv, symObjAddr: 0xB10, symBinAddr: 0x9410, symSize: 0x4 }
  - { offset: 0x90363, size: 0x8, addend: 0x0, symName: __ZN7facesdk15LivenessSession13startNewFrameEv, symObjAddr: 0xB14, symBinAddr: 0x9414, symSize: 0xB0 }
  - { offset: 0x904F1, size: 0x8, addend: 0x0, symName: __ZNSt3__16vectorIN7facesdk12LFrameResultENS_9allocatorIS2_EEE24__emplace_back_slow_pathIJEEEPS2_DpOT_, symObjAddr: 0xE6BC, symBinAddr: 0x16C90, symSize: 0x1D0 }
  - { offset: 0x90B96, size: 0x8, addend: 0x0, symName: __ZN7facesdk15LivenessSession5abortEv, symObjAddr: 0xBC4, symBinAddr: 0x94C4, symSize: 0x58 }
  - { offset: 0x90CAF, size: 0x8, addend: 0x0, symName: __ZN7facesdk15LivenessSession15faceDetectionOkERKNSt3__16vectorIN2cv5Rect_IiEENS1_9allocatorIS5_EEEERKNS2_INS2_INS3_6Point_IiEENS6_ISC_EEEENS6_ISE_EEEERKNS2_INS2_IfNS6_IfEEEENS6_ISK_EEEE, symObjAddr: 0xC1C, symBinAddr: 0x951C, symSize: 0xB8 }
  - { offset: 0x90EC3, size: 0x8, addend: 0x0, symName: __ZN7facesdk15LivenessSession20facePositionNormalOkERNS_12LFrameResultE, symObjAddr: 0xD0C, symBinAddr: 0x95D4, symSize: 0x194 }
  - { offset: 0x91181, size: 0x8, addend: 0x0, symName: __ZN7facesdk15LivenessSession18facePositionNearOkERNS_12LFrameResultE, symObjAddr: 0xEA0, symBinAddr: 0x9768, symSize: 0xF4 }
  - { offset: 0x91288, size: 0x8, addend: 0x0, symName: __ZN7facesdk15LivenessSession17faceOrientationOkERNS_12LFrameResultERbRKN2cv6Point_IiEE, symObjAddr: 0xF94, symBinAddr: 0x985C, symSize: 0x90 }
  - { offset: 0x91438, size: 0x8, addend: 0x0, symName: __ZN7facesdk15LivenessSession21faceOrientationNearOkERNS_12LFrameResultERKN2cv6Point_IiEE, symObjAddr: 0x1158, symBinAddr: 0x9A20, symSize: 0x180 }
  - { offset: 0x91599, size: 0x8, addend: 0x0, symName: __ZN7facesdk15LivenessSession23faceOrientationNormalOkERNS_12LFrameResultERb, symObjAddr: 0x1024, symBinAddr: 0x98EC, symSize: 0x134 }
  - { offset: 0x9178C, size: 0x8, addend: 0x0, symName: __ZN7facesdk15LivenessSession12brightnessOkEf, symObjAddr: 0x1394, symBinAddr: 0x9BA0, symSize: 0x50 }
  - { offset: 0x91800, size: 0x8, addend: 0x0, symName: __ZN7facesdk15LivenessSession12flawDetectedENS_11eFL_MessageERKNSt3__16vectorIfNS2_9allocatorIfEEEE, symObjAddr: 0x13E4, symBinAddr: 0x9BF0, symSize: 0x64 }
  - { offset: 0x918C5, size: 0x8, addend: 0x0, symName: __ZN7facesdk15LivenessSession22needInjectionCheckDataERNS_12LFrameResultERKN2cv3MatE, symObjAddr: 0x1448, symBinAddr: 0x9C54, symSize: 0x208 }
  - { offset: 0x918D0, size: 0x8, addend: 0x0, symName: __ZNKSt3__16vectorIfNS_9allocatorIfEEE20__throw_out_of_rangeB8ne180100Ev, symObjAddr: 0xE8DC, symBinAddr: 0x16EB0, symSize: 0x14 }
  - { offset: 0x918FA, size: 0x8, addend: 0x0, symName: __ZNSt3__120__throw_out_of_rangeB8ne180100EPKc, symObjAddr: 0xE8F0, symBinAddr: 0x16EC4, symSize: 0x50 }
  - { offset: 0x91B47, size: 0x8, addend: 0x0, symName: __ZN7facesdk15LivenessSession22needInjectionCheckDataERNS_12LFrameResultERKN2cv3MatE, symObjAddr: 0x1448, symBinAddr: 0x9C54, symSize: 0x208 }
  - { offset: 0x920AC, size: 0x8, addend: 0x0, symName: __ZN7facesdk15LivenessSession13blinkDetectedEN6common4type4spanIKN2cv6Point_IiEELm18446744073709551615EEES8_, symObjAddr: 0x1650, symBinAddr: 0x9E5C, symSize: 0x20C }
  - { offset: 0x9241F, size: 0x8, addend: 0x0, symName: __ZN7facesdk15LivenessSession20blinkDetectionNeededEv, symObjAddr: 0x185C, symBinAddr: 0xA068, symSize: 0x30 }
  - { offset: 0x92485, size: 0x8, addend: 0x0, symName: __ZN7facesdk15LivenessSession23holdStillTimeoutReachedEv, symObjAddr: 0x188C, symBinAddr: 0xA098, symSize: 0xD8 }
  - { offset: 0x92841, size: 0x8, addend: 0x0, symName: __ZN7facesdk15LivenessSession16saveStageResultsERKN2cv3MatERKNS_5LFaceE, symObjAddr: 0x1964, symBinAddr: 0xA170, symSize: 0x178 }
  - { offset: 0x92C7D, size: 0x8, addend: 0x0, symName: __ZNSt3__16vectorIN2cv6Point_IiEENS_9allocatorIS3_EEE18__assign_with_sizeB8ne180100IPS3_S8_EEvT_T0_l, symObjAddr: 0xE964, symBinAddr: 0x16F38, symSize: 0x3B0 }
  - { offset: 0x93468, size: 0x8, addend: 0x0, symName: __ZNSt3__16vectorIN7facesdk6LStageENS_9allocatorIS2_EEE24__emplace_back_slow_pathIJEEEPS2_DpOT_, symObjAddr: 0xED14, symBinAddr: 0x172E8, symSize: 0x228 }
  - { offset: 0x934AD, size: 0x8, addend: 0x0, symName: __ZNK7facesdk15LivenessSession17stageResultsSavedEv, symObjAddr: 0x1ADC, symBinAddr: 0xA2E8, symSize: 0x44 }
  - { offset: 0x9369A, size: 0x8, addend: 0x0, symName: __ZN7facesdk15LivenessSession23finalizeProcessingStageEv, symObjAddr: 0x1B20, symBinAddr: 0xA32C, symSize: 0x214 }
  - { offset: 0x93961, size: 0x8, addend: 0x0, symName: __ZNSt3__16vectorIN7facesdk6LStageENS_9allocatorIS2_EEE24__emplace_back_slow_pathIJEEEPS2_DpOT_, symObjAddr: 0xED14, symBinAddr: 0x172E8, symSize: 0x228 }
  - { offset: 0x94072, size: 0x8, addend: 0x0, symName: __ZNK7facesdk15LivenessSession13currentTargetEv, symObjAddr: 0x1D34, symBinAddr: 0xA540, symSize: 0x14 }
  - { offset: 0x9409C, size: 0x8, addend: 0x0, symName: __ZNK7facesdk15LivenessSession13currentTargetEv, symObjAddr: 0x1D34, symBinAddr: 0xA540, symSize: 0x14 }
  - { offset: 0x940C2, size: 0x8, addend: 0x0, symName: __ZNK7facesdk15LivenessSession13currentTargetEv, symObjAddr: 0x1D34, symBinAddr: 0xA540, symSize: 0x14 }
  - { offset: 0x940E7, size: 0x8, addend: 0x0, symName: __ZNK7facesdk15LivenessSession13currentTargetEv, symObjAddr: 0x1D34, symBinAddr: 0xA540, symSize: 0x14 }
  - { offset: 0x9410C, size: 0x8, addend: 0x0, symName: __ZNK7facesdk15LivenessSession13currentTargetEv, symObjAddr: 0x1D34, symBinAddr: 0xA540, symSize: 0x14 }
  - { offset: 0x94134, size: 0x8, addend: 0x0, symName: __ZNK7facesdk15LivenessSession12targetSectorEv, symObjAddr: 0x1D48, symBinAddr: 0xA554, symSize: 0x20 }
  - { offset: 0x94185, size: 0x8, addend: 0x0, symName: __ZNK7facesdk15LivenessSession14targetExposureEv, symObjAddr: 0x1D68, symBinAddr: 0xA574, symSize: 0x20 }
  - { offset: 0x941B1, size: 0x8, addend: 0x0, symName: __ZNK7facesdk15LivenessSession14targetExposureEv, symObjAddr: 0x1D68, symBinAddr: 0xA574, symSize: 0x20 }
  - { offset: 0x9420E, size: 0x8, addend: 0x0, symName: __ZNK7facesdk15LivenessSession7resultsEv, symObjAddr: 0x1D88, symBinAddr: 0xA594, symSize: 0x8 }
  - { offset: 0x96287, size: 0x8, addend: 0x0, symName: __ZN7facesdk15LivenessSession15finalizePackageEv, symObjAddr: 0x1DC8, symBinAddr: 0xA59C, symSize: 0x1C90 }
  - { offset: 0x9DD23, size: 0x8, addend: 0x0, symName: __ZN7facesdk15LivenessSession16finalizeMetadataEv, symObjAddr: 0x3A58, symBinAddr: 0xC22C, symSize: 0x380 }
  - { offset: 0x9EC5C, size: 0x8, addend: 0x0, symName: __ZN8nlohmann16json_abi_v3_11_210basic_jsonINSt3__13mapENS2_6vectorENS2_12basic_stringIcNS2_11char_traitsIcEENS2_9allocatorIcEEEEbxydS8_NS0_14adl_serializerENS4_IhNS8_IhEEEEE10json_value7destroyENS0_6detail7value_tE, symObjAddr: 0xCDB4, symBinAddr: 0x15414, symSize: 0x5EC }
  - { offset: 0x9EC94, size: 0x8, addend: 0x0, symName: __ZN8nlohmann16json_abi_v3_11_210basic_jsonINSt3__13mapENS2_6vectorENS2_12basic_stringIcNS2_11char_traitsIcEENS2_9allocatorIcEEEEbxydS8_NS0_14adl_serializerENS4_IhNS8_IhEEEEE9push_backERKSE_, symObjAddr: 0x402C, symBinAddr: 0xC800, symSize: 0x164 }
  - { offset: 0x9F11C, size: 0x8, addend: 0x0, symName: __ZN8nlohmann16json_abi_v3_11_210basic_jsonINSt3__13mapENS2_6vectorENS2_12basic_stringIcNS2_11char_traitsIcEENS2_9allocatorIcEEEEbxydS8_NS0_14adl_serializerENS4_IhNS8_IhEEEEE9push_backEOSE_, symObjAddr: 0x3ECC, symBinAddr: 0xC6A0, symSize: 0x160 }
  - { offset: 0x9F54A, size: 0x8, addend: 0x0, symName: __ZN8nlohmann16json_abi_v3_11_210basic_jsonINSt3__13mapENS2_6vectorENS2_12basic_stringIcNS2_11char_traitsIcEENS2_9allocatorIcEEEEbxydS8_NS0_14adl_serializerENS4_IhNS8_IhEEEEE7to_bsonERKSE_, symObjAddr: 0x4190, symBinAddr: 0xC964, symSize: 0xD8 }
  - { offset: 0x9F9D6, size: 0x8, addend: 0x0, symName: __ZN8nlohmann16json_abi_v3_11_26detail10type_error6createIPNS0_10basic_jsonINSt3__13mapENS5_6vectorENS5_12basic_stringIcNS5_11char_traitsIcEENS5_9allocatorIcEEEEbxydSB_NS0_14adl_serializerENS7_IhNSB_IhEEEEEELi0EEES2_iRKSD_T_, symObjAddr: 0xF338, symBinAddr: 0x1790C, symSize: 0x1CC }
  - { offset: 0xA07FB, size: 0x8, addend: 0x0, symName: __ZNSt3__114__split_bufferIN8nlohmann16json_abi_v3_11_210basic_jsonINS_3mapENS_6vectorENS_12basic_stringIcNS_11char_traitsIcEENS_9allocatorIcEEEEbxydS9_NS2_14adl_serializerENS5_IhNS9_IhEEEEEERNS9_ISF_EEED1Ev, symObjAddr: 0xD48C, symBinAddr: 0x15AD8, symSize: 0x54 }
  - { offset: 0xA0DCC, size: 0x8, addend: 0x0, symName: __ZN8nlohmann16json_abi_v3_11_210basic_jsonINSt3__13mapENS2_6vectorENS2_12basic_stringIcNS2_11char_traitsIcEENS2_9allocatorIcEEEEbxydS8_NS0_14adl_serializerENS4_IhNS8_IhEEEEE2atIRKPKcLi0EEERSE_OT_, symObjAddr: 0x5330, symBinAddr: 0xDB04, symSize: 0x1F0 }
  - { offset: 0xA1421, size: 0x8, addend: 0x0, symName: __ZN8nlohmann16json_abi_v3_11_210basic_jsonINSt3__13mapENS2_6vectorENS2_12basic_stringIcNS2_11char_traitsIcEENS2_9allocatorIcEEEEbxydS8_NS0_14adl_serializerENS4_IhNS8_IhEEEEEC2ESt16initializer_listINS0_6detail8json_refISE_EEEbNSG_7value_tE, symObjAddr: 0x12454, symBinAddr: 0x1A6F8, symSize: 0x288 }
  - { offset: 0xA1D37, size: 0x8, addend: 0x0, symName: __ZN8nlohmann16json_abi_v3_11_26detail20external_constructorILNS1_7value_tE3EE9constructINS0_10basic_jsonINSt3__13mapENS7_6vectorENS7_12basic_stringIcNS7_11char_traitsIcEENS7_9allocatorIcEEEEbxydSD_NS0_14adl_serializerENS9_IhNSD_IhEEEEEEA4_cLi0EEEvRT_RKT0_, symObjAddr: 0x12CC8, symBinAddr: 0x1AF6C, symSize: 0xEC }
  - { offset: 0xA234E, size: 0x8, addend: 0x0, symName: __ZN8nlohmann16json_abi_v3_11_210basic_jsonINSt3__13mapENS2_6vectorENS2_12basic_stringIcNS2_11char_traitsIcEENS2_9allocatorIcEEEEbxydS8_NS0_14adl_serializerENS4_IhNS8_IhEEEEEixESA_, symObjAddr: 0xF218, symBinAddr: 0x177EC, symSize: 0x120 }
  - { offset: 0xA273C, size: 0x8, addend: 0x0, symName: __ZNSt3__16vectorIN8nlohmann16json_abi_v3_11_210basic_jsonINS_3mapES0_NS_12basic_stringIcNS_11char_traitsIcEENS_9allocatorIcEEEEbxydS8_NS2_14adl_serializerENS0_IhNS8_IhEEEEEENS8_ISE_EEE21__push_back_slow_pathISE_EEPSE_OT_, symObjAddr: 0xD4E0, symBinAddr: 0x15B2C, symSize: 0x114 }
  - { offset: 0xA2C1D, size: 0x8, addend: 0x0, symName: __ZNK8nlohmann16json_abi_v3_11_210basic_jsonINSt3__13mapENS2_6vectorENS2_12basic_stringIcNS2_11char_traitsIcEENS2_9allocatorIcEEEEbxydS8_NS0_14adl_serializerENS4_IhNS8_IhEEEEE9type_nameEv, symObjAddr: 0xBCF8, symBinAddr: 0x143F8, symSize: 0x28 }
  - { offset: 0xA2D63, size: 0x8, addend: 0x0, symName: __ZNSt3__16vectorIN8nlohmann16json_abi_v3_11_210basic_jsonINS_3mapES0_NS_12basic_stringIcNS_11char_traitsIcEENS_9allocatorIcEEEEbxydS8_NS2_14adl_serializerENS0_IhNS8_IhEEEEEENS8_ISE_EEE21__push_back_slow_pathIRKSE_EEPSE_OT_, symObjAddr: 0x1024C, symBinAddr: 0x1880C, symSize: 0x154 }
  - { offset: 0xA37A8, size: 0x8, addend: 0x0, symName: __ZN8nlohmann16json_abi_v3_11_210basic_jsonINSt3__13mapENS2_6vectorENS2_12basic_stringIcNS2_11char_traitsIcEENS2_9allocatorIcEEEEbxydS8_NS0_14adl_serializerENS4_IhNS8_IhEEEEE7to_bsonERKSE_NS0_6detail14output_adapterIhNS5_IhNS6_IhEESC_EEEE, symObjAddr: 0x103A0, symBinAddr: 0x18960, symSize: 0xF8 }
  - { offset: 0xA3ACF, size: 0x8, addend: 0x0, symName: __ZN8nlohmann16json_abi_v3_11_26detail14output_adapterIhNSt3__112basic_stringIhNS3_11char_traitsIhEENS3_9allocatorIhEEEEED1Ev, symObjAddr: 0x10498, symBinAddr: 0x18A58, symSize: 0x68 }
  - { offset: 0xA3D79, size: 0x8, addend: 0x0, symName: __ZN7facesdk15LivenessSession16addDataToPackageEPKhRKN8nlohmann16json_abi_v3_11_210basic_jsonINSt3__13mapENS6_6vectorENS6_12basic_stringIcNS6_11char_traitsIcEENS6_9allocatorIcEEEEbxydSC_NS4_14adl_serializerENS8_IhNSC_IhEEEEEE, symObjAddr: 0x4268, symBinAddr: 0xCA3C, symSize: 0xE8 }
  - { offset: 0xA3FED, size: 0x8, addend: 0x0, symName: __ZN7facesdk15LivenessSession12saveDepthMapEPKhRKN8nlohmann16json_abi_v3_11_210basic_jsonINSt3__13mapENS6_6vectorENS6_12basic_stringIcNS6_11char_traitsIcEENS6_9allocatorIcEEEEbxydSC_NS4_14adl_serializerENS8_IhNSC_IhEEEEEE, symObjAddr: 0x4350, symBinAddr: 0xCB24, symSize: 0x4D8 }
  - { offset: 0xA5105, size: 0x8, addend: 0x0, symName: __ZN7facesdk15LivenessSession14saveCustomDataEPKhRKN8nlohmann16json_abi_v3_11_210basic_jsonINSt3__13mapENS6_6vectorENS6_12basic_stringIcNS6_11char_traitsIcEENS6_9allocatorIcEEEEbxydSC_NS4_14adl_serializerENS8_IhNSC_IhEEEEEE, symObjAddr: 0x4828, symBinAddr: 0xCFFC, symSize: 0x200 }
  - { offset: 0xA615D, size: 0x8, addend: 0x0, symName: __ZNK8nlohmann16json_abi_v3_11_210basic_jsonINSt3__13mapENS2_6vectorENS2_12basic_stringIcNS2_11char_traitsIcEENS2_9allocatorIcEEEEbxydS8_NS0_14adl_serializerENS4_IhNS8_IhEEEEE2atIRA9_KcLi0EEERKSE_OT_, symObjAddr: 0x4A28, symBinAddr: 0xD1FC, symSize: 0x1EC }
  - { offset: 0xA67CB, size: 0x8, addend: 0x0, symName: __ZNK8nlohmann16json_abi_v3_11_210basic_jsonINSt3__13mapENS2_6vectorENS2_12basic_stringIcNS2_11char_traitsIcEENS2_9allocatorIcEEEEbxydS8_NS0_14adl_serializerENS4_IhNS8_IhEEEEE2atIRA10_KcLi0EEERKSE_OT_, symObjAddr: 0x4C14, symBinAddr: 0xD3E8, symSize: 0x1EC }
  - { offset: 0xA6E39, size: 0x8, addend: 0x0, symName: __ZNK8nlohmann16json_abi_v3_11_210basic_jsonINSt3__13mapENS2_6vectorENS2_12basic_stringIcNS2_11char_traitsIcEENS2_9allocatorIcEEEEbxydS8_NS0_14adl_serializerENS4_IhNS8_IhEEEEE2atIRA6_KcLi0EEERKSE_OT_, symObjAddr: 0x4E00, symBinAddr: 0xD5D4, symSize: 0x1EC }
  - { offset: 0xA74B1, size: 0x8, addend: 0x0, symName: __ZNSt3__119__allocator_destroyB8ne180100INS_9allocatorIN7facesdk6LStageEEENS_16reverse_iteratorIPS3_EES7_EEvRT_T0_T1_, symObjAddr: 0xE430, symBinAddr: 0x16A04, symSize: 0x144 }
  - { offset: 0xA7736, size: 0x8, addend: 0x0, symName: __ZN8nlohmann16json_abi_v3_11_210basic_jsonINSt3__13mapENS2_6vectorENS2_12basic_stringIcNS2_11char_traitsIcEENS2_9allocatorIcEEEEbxydS8_NS0_14adl_serializerENS4_IhNS8_IhEEEEE12emplace_backIJRKSE_EEERSE_DpOT_, symObjAddr: 0x51D8, symBinAddr: 0xD9AC, symSize: 0x158 }
  - { offset: 0xA7C00, size: 0x8, addend: 0x0, symName: __ZNSt3__16vectorIN8nlohmann16json_abi_v3_11_210basic_jsonINS_3mapES0_NS_12basic_stringIcNS_11char_traitsIcEENS_9allocatorIcEEEEbxydS8_NS2_14adl_serializerENS0_IhNS8_IhEEEEEENS8_ISE_EEE21__push_back_slow_pathIRKSE_EEPSE_OT_, symObjAddr: 0x1024C, symBinAddr: 0x1880C, symSize: 0x154 }
  - { offset: 0xA7C0B, size: 0x8, addend: 0x0, symName: __ZN8nlohmann16json_abi_v3_11_26detail10type_error6createIPKNS0_10basic_jsonINSt3__13mapENS5_6vectorENS5_12basic_stringIcNS5_11char_traitsIcEENS5_9allocatorIcEEEEbxydSB_NS0_14adl_serializerENS7_IhNSB_IhEEEEEELi0EEES2_iRKSD_T_, symObjAddr: 0xBAA8, symBinAddr: 0x141A8, symSize: 0x1CC }
  - { offset: 0xA8A1D, size: 0x8, addend: 0x0, symName: __ZN8nlohmann16json_abi_v3_11_26detail12out_of_range6createIPKNS0_10basic_jsonINSt3__13mapENS5_6vectorENS5_12basic_stringIcNS5_11char_traitsIcEENS5_9allocatorIcEEEEbxydSB_NS0_14adl_serializerENS7_IhNSB_IhEEEEEELi0EEES2_iRKSD_T_, symObjAddr: 0x10FEC, symBinAddr: 0x19544, symSize: 0x1D0 }
  - { offset: 0xA9D52, size: 0x8, addend: 0x0, symName: __ZNSt3__16vectorIN8nlohmann16json_abi_v3_11_210basic_jsonINS_3mapES0_NS_12basic_stringIcNS_11char_traitsIcEENS_9allocatorIcEEEEbxydS8_NS2_14adl_serializerENS0_IhNS8_IhEEEEEENS8_ISE_EEE24__emplace_back_slow_pathIJRKSE_EEEPSE_DpOT_, symObjAddr: 0x12130, symBinAddr: 0x1A3D4, symSize: 0x154 }
  - { offset: 0xAA323, size: 0x8, addend: 0x0, symName: __ZN8nlohmann16json_abi_v3_11_26detail12out_of_range6createIPNS0_10basic_jsonINSt3__13mapENS5_6vectorENS5_12basic_stringIcNS5_11char_traitsIcEENS5_9allocatorIcEEEEbxydSB_NS0_14adl_serializerENS7_IhNSB_IhEEEEEELi0EEES2_iRKSD_T_, symObjAddr: 0x12284, symBinAddr: 0x1A528, symSize: 0x1D0 }
  - { offset: 0xAB7A5, size: 0x8, addend: 0x0, symName: __ZN7facesdk14LSessionParamsC2ERKN8nlohmann16json_abi_v3_11_210basic_jsonINSt3__13mapENS4_6vectorENS4_12basic_stringIcNS4_11char_traitsIcEENS4_9allocatorIcEEEEbxydSA_NS2_14adl_serializerENS6_IhNSA_IhEEEEEE, symObjAddr: 0x5520, symBinAddr: 0xDCF4, symSize: 0xEB0 }
  - { offset: 0xADE7A, size: 0x8, addend: 0x0, symName: __ZNK8nlohmann16json_abi_v3_11_210basic_jsonINSt3__13mapENS2_6vectorENS2_12basic_stringIcNS2_11char_traitsIcEENS2_9allocatorIcEEEEbxydS8_NS0_14adl_serializerENS4_IhNS8_IhEEEEE5valueIN7facesdk12eFL_ScenarioERA9_KcSH_Li0EEET1_OT0_OT_, symObjAddr: 0x63D0, symBinAddr: 0xEBA4, symSize: 0x1F0 }
  - { offset: 0xAE5D1, size: 0x8, addend: 0x0, symName: __ZNK8nlohmann16json_abi_v3_11_210basic_jsonINSt3__13mapENS2_6vectorENS2_12basic_stringIcNS2_11char_traitsIcEENS2_9allocatorIcEEEEbxydS8_NS0_14adl_serializerENS4_IhNS8_IhEEEEE2atIRA14_KcLi0EEERKSE_OT_, symObjAddr: 0x65C0, symBinAddr: 0xED94, symSize: 0x1EC }
  - { offset: 0xAEC4A, size: 0x8, addend: 0x0, symName: __ZNK8nlohmann16json_abi_v3_11_210basic_jsonINSt3__13mapENS2_6vectorENS2_12basic_stringIcNS2_11char_traitsIcEENS2_9allocatorIcEEEEbxydS8_NS0_14adl_serializerENS4_IhNS8_IhEEEEE5valueIRA41_KcRA16_SG_SA_Li0EEET1_OT0_OT_, symObjAddr: 0x67AC, symBinAddr: 0xEF80, symSize: 0x280 }
  - { offset: 0xAF8D6, size: 0x8, addend: 0x0, symName: __ZNK8nlohmann16json_abi_v3_11_210basic_jsonINSt3__13mapENS2_6vectorENS2_12basic_stringIcNS2_11char_traitsIcEENS2_9allocatorIcEEEEbxydS8_NS0_14adl_serializerENS4_IhNS8_IhEEEEE5valueIRA7_KcRA19_SG_SA_Li0EEET1_OT0_OT_, symObjAddr: 0x6A2C, symBinAddr: 0xF200, symSize: 0x280 }
  - { offset: 0xB0549, size: 0x8, addend: 0x0, symName: __ZN8nlohmann16json_abi_v3_11_210basic_jsonINSt3__13mapENS2_6vectorENS2_12basic_stringIcNS2_11char_traitsIcEENS2_9allocatorIcEEEEbxydS8_NS0_14adl_serializerENS4_IhNS8_IhEEEEE6acceptIRSA_EEbOT_b, symObjAddr: 0x6CAC, symBinAddr: 0xF480, symSize: 0x1D0 }
  - { offset: 0xB0E0D, size: 0x8, addend: 0x0, symName: __ZNK8nlohmann16json_abi_v3_11_210basic_jsonINSt3__13mapENS2_6vectorENS2_12basic_stringIcNS2_11char_traitsIcEENS2_9allocatorIcEEEEbxydS8_NS0_14adl_serializerENS4_IhNS8_IhEEEEE2atIRA11_KcLi0EEERKSE_OT_, symObjAddr: 0x6E7C, symBinAddr: 0xF650, symSize: 0x1EC }
  - { offset: 0xB147B, size: 0x8, addend: 0x0, symName: __ZNK8nlohmann16json_abi_v3_11_210basic_jsonINSt3__13mapENS2_6vectorENS2_12basic_stringIcNS2_11char_traitsIcEENS2_9allocatorIcEEEEbxydS8_NS0_14adl_serializerENS4_IhNS8_IhEEEEE2atIRA12_KcLi0EEERKSE_OT_, symObjAddr: 0x7068, symBinAddr: 0xF83C, symSize: 0x1EC }
  - { offset: 0xB1AD0, size: 0x8, addend: 0x0, symName: __ZNK8nlohmann16json_abi_v3_11_210basic_jsonINSt3__13mapENS2_6vectorENS2_12basic_stringIcNS2_11char_traitsIcEENS2_9allocatorIcEEEEbxydS8_NS0_14adl_serializerENS4_IhNS8_IhEEEEE5valueIiRA14_KciLi0EEET1_OT0_OT_, symObjAddr: 0x7254, symBinAddr: 0xFA28, symSize: 0x1F4 }
  - { offset: 0xB2211, size: 0x8, addend: 0x0, symName: __ZNK8nlohmann16json_abi_v3_11_210basic_jsonINSt3__13mapENS2_6vectorENS2_12basic_stringIcNS2_11char_traitsIcEENS2_9allocatorIcEEEEbxydS8_NS0_14adl_serializerENS4_IhNS8_IhEEEEE5valueIfRA4_KcfLi0EEET1_OT0_OT_, symObjAddr: 0x7448, symBinAddr: 0xFC1C, symSize: 0x1F4 }
  - { offset: 0xB2931, size: 0x8, addend: 0x0, symName: __ZNK8nlohmann16json_abi_v3_11_210basic_jsonINSt3__13mapENS2_6vectorENS2_12basic_stringIcNS2_11char_traitsIcEENS2_9allocatorIcEEEEbxydS8_NS0_14adl_serializerENS4_IhNS8_IhEEEEE5valueIfRA12_KcfLi0EEET1_OT0_OT_, symObjAddr: 0x763C, symBinAddr: 0xFE10, symSize: 0x1F4 }
  - { offset: 0xB3075, size: 0x8, addend: 0x0, symName: __ZNK8nlohmann16json_abi_v3_11_210basic_jsonINSt3__13mapENS2_6vectorENS2_12basic_stringIcNS2_11char_traitsIcEENS2_9allocatorIcEEEEbxydS8_NS0_14adl_serializerENS4_IhNS8_IhEEEEE5valueIiRA18_KciLi0EEET1_OT0_OT_, symObjAddr: 0x7830, symBinAddr: 0x10004, symSize: 0x1F4 }
  - { offset: 0xB3795, size: 0x8, addend: 0x0, symName: __ZNK8nlohmann16json_abi_v3_11_210basic_jsonINSt3__13mapENS2_6vectorENS2_12basic_stringIcNS2_11char_traitsIcEENS2_9allocatorIcEEEEbxydS8_NS0_14adl_serializerENS4_IhNS8_IhEEEEE5valueIiRA19_KciLi0EEET1_OT0_OT_, symObjAddr: 0x7A24, symBinAddr: 0x101F8, symSize: 0x1F4 }
  - { offset: 0xB3EB5, size: 0x8, addend: 0x0, symName: __ZNK8nlohmann16json_abi_v3_11_210basic_jsonINSt3__13mapENS2_6vectorENS2_12basic_stringIcNS2_11char_traitsIcEENS2_9allocatorIcEEEEbxydS8_NS0_14adl_serializerENS4_IhNS8_IhEEEEE5valueIiRA16_KciLi0EEET1_OT0_OT_, symObjAddr: 0x7C18, symBinAddr: 0x103EC, symSize: 0x1F4 }
  - { offset: 0xB45EE, size: 0x8, addend: 0x0, symName: __ZNK8nlohmann16json_abi_v3_11_210basic_jsonINSt3__13mapENS2_6vectorENS2_12basic_stringIcNS2_11char_traitsIcEENS2_9allocatorIcEEEEbxydS8_NS0_14adl_serializerENS4_IhNS8_IhEEEEE5valueIiRA25_KciLi0EEET1_OT0_OT_, symObjAddr: 0x7E0C, symBinAddr: 0x105E0, symSize: 0x1F4 }
  - { offset: 0xB4D27, size: 0x8, addend: 0x0, symName: __ZNK8nlohmann16json_abi_v3_11_210basic_jsonINSt3__13mapENS2_6vectorENS2_12basic_stringIcNS2_11char_traitsIcEENS2_9allocatorIcEEEEbxydS8_NS0_14adl_serializerENS4_IhNS8_IhEEEEE5valueIiRA23_KciLi0EEET1_OT0_OT_, symObjAddr: 0x8000, symBinAddr: 0x107D4, symSize: 0x1F4 }
  - { offset: 0xB5460, size: 0x8, addend: 0x0, symName: __ZNK8nlohmann16json_abi_v3_11_210basic_jsonINSt3__13mapENS2_6vectorENS2_12basic_stringIcNS2_11char_traitsIcEENS2_9allocatorIcEEEEbxydS8_NS0_14adl_serializerENS4_IhNS8_IhEEEEE5valueIiRA27_KciLi0EEET1_OT0_OT_, symObjAddr: 0x81F4, symBinAddr: 0x109C8, symSize: 0x1F4 }
  - { offset: 0xB5B99, size: 0x8, addend: 0x0, symName: __ZNK8nlohmann16json_abi_v3_11_210basic_jsonINSt3__13mapENS2_6vectorENS2_12basic_stringIcNS2_11char_traitsIcEENS2_9allocatorIcEEEEbxydS8_NS0_14adl_serializerENS4_IhNS8_IhEEEEE5valueIiRA22_KciLi0EEET1_OT0_OT_, symObjAddr: 0x83E8, symBinAddr: 0x10BBC, symSize: 0x1F4 }
  - { offset: 0xB62B9, size: 0x8, addend: 0x0, symName: __ZNK8nlohmann16json_abi_v3_11_210basic_jsonINSt3__13mapENS2_6vectorENS2_12basic_stringIcNS2_11char_traitsIcEENS2_9allocatorIcEEEEbxydS8_NS0_14adl_serializerENS4_IhNS8_IhEEEEE5valueIfRA16_KcfLi0EEET1_OT0_OT_, symObjAddr: 0x85DC, symBinAddr: 0x10DB0, symSize: 0x1F4 }
  - { offset: 0xB69D9, size: 0x8, addend: 0x0, symName: __ZNK8nlohmann16json_abi_v3_11_210basic_jsonINSt3__13mapENS2_6vectorENS2_12basic_stringIcNS2_11char_traitsIcEENS2_9allocatorIcEEEEbxydS8_NS0_14adl_serializerENS4_IhNS8_IhEEEEE5valueIfRA19_KcfLi0EEET1_OT0_OT_, symObjAddr: 0x87D0, symBinAddr: 0x10FA4, symSize: 0x1F4 }
  - { offset: 0xB7112, size: 0x8, addend: 0x0, symName: __ZNK8nlohmann16json_abi_v3_11_210basic_jsonINSt3__13mapENS2_6vectorENS2_12basic_stringIcNS2_11char_traitsIcEENS2_9allocatorIcEEEEbxydS8_NS0_14adl_serializerENS4_IhNS8_IhEEEEE5valueIfRA17_KcfLi0EEET1_OT0_OT_, symObjAddr: 0x89C4, symBinAddr: 0x11198, symSize: 0x1F4 }
  - { offset: 0xB784B, size: 0x8, addend: 0x0, symName: __ZNK8nlohmann16json_abi_v3_11_210basic_jsonINSt3__13mapENS2_6vectorENS2_12basic_stringIcNS2_11char_traitsIcEENS2_9allocatorIcEEEEbxydS8_NS0_14adl_serializerENS4_IhNS8_IhEEEEE5valueIfRA20_KcfLi0EEET1_OT0_OT_, symObjAddr: 0x8BB8, symBinAddr: 0x1138C, symSize: 0x1F4 }
  - { offset: 0xB7F6B, size: 0x8, addend: 0x0, symName: __ZNK8nlohmann16json_abi_v3_11_210basic_jsonINSt3__13mapENS2_6vectorENS2_12basic_stringIcNS2_11char_traitsIcEENS2_9allocatorIcEEEEbxydS8_NS0_14adl_serializerENS4_IhNS8_IhEEEEE5valueIfRA11_KcfLi0EEET1_OT0_OT_, symObjAddr: 0x8DAC, symBinAddr: 0x11580, symSize: 0x1F4 }
  - { offset: 0xB86A4, size: 0x8, addend: 0x0, symName: __ZNK8nlohmann16json_abi_v3_11_210basic_jsonINSt3__13mapENS2_6vectorENS2_12basic_stringIcNS2_11char_traitsIcEENS2_9allocatorIcEEEEbxydS8_NS0_14adl_serializerENS4_IhNS8_IhEEEEE5valueIfRA13_KcfLi0EEET1_OT0_OT_, symObjAddr: 0x8FA0, symBinAddr: 0x11774, symSize: 0x1F4 }
  - { offset: 0xB8DDD, size: 0x8, addend: 0x0, symName: __ZNK8nlohmann16json_abi_v3_11_210basic_jsonINSt3__13mapENS2_6vectorENS2_12basic_stringIcNS2_11char_traitsIcEENS2_9allocatorIcEEEEbxydS8_NS0_14adl_serializerENS4_IhNS8_IhEEEEE5valueIfRA21_KcfLi0EEET1_OT0_OT_, symObjAddr: 0x9194, symBinAddr: 0x11968, symSize: 0x1F4 }
  - { offset: 0xB9516, size: 0x8, addend: 0x0, symName: __ZNK8nlohmann16json_abi_v3_11_210basic_jsonINSt3__13mapENS2_6vectorENS2_12basic_stringIcNS2_11char_traitsIcEENS2_9allocatorIcEEEEbxydS8_NS0_14adl_serializerENS4_IhNS8_IhEEEEE5valueIfRA15_KcfLi0EEET1_OT0_OT_, symObjAddr: 0x9388, symBinAddr: 0x11B5C, symSize: 0x1F4 }
  - { offset: 0xB9C36, size: 0x8, addend: 0x0, symName: __ZNK8nlohmann16json_abi_v3_11_210basic_jsonINSt3__13mapENS2_6vectorENS2_12basic_stringIcNS2_11char_traitsIcEENS2_9allocatorIcEEEEbxydS8_NS0_14adl_serializerENS4_IhNS8_IhEEEEE5valueIfRA23_KcfLi0EEET1_OT0_OT_, symObjAddr: 0x957C, symBinAddr: 0x11D50, symSize: 0x1F4 }
  - { offset: 0xBA356, size: 0x8, addend: 0x0, symName: __ZNK8nlohmann16json_abi_v3_11_210basic_jsonINSt3__13mapENS2_6vectorENS2_12basic_stringIcNS2_11char_traitsIcEENS2_9allocatorIcEEEEbxydS8_NS0_14adl_serializerENS4_IhNS8_IhEEEEE5valueIfRA22_KcfLi0EEET1_OT0_OT_, symObjAddr: 0x9770, symBinAddr: 0x11F44, symSize: 0x1F4 }
  - { offset: 0xBAA76, size: 0x8, addend: 0x0, symName: __ZNK8nlohmann16json_abi_v3_11_210basic_jsonINSt3__13mapENS2_6vectorENS2_12basic_stringIcNS2_11char_traitsIcEENS2_9allocatorIcEEEEbxydS8_NS0_14adl_serializerENS4_IhNS8_IhEEEEE5valueIfRA14_KcfLi0EEET1_OT0_OT_, symObjAddr: 0x9964, symBinAddr: 0x12138, symSize: 0x1F4 }
  - { offset: 0xBB19C, size: 0x8, addend: 0x0, symName: __ZNK8nlohmann16json_abi_v3_11_210basic_jsonINSt3__13mapENS2_6vectorENS2_12basic_stringIcNS2_11char_traitsIcEENS2_9allocatorIcEEEEbxydS8_NS0_14adl_serializerENS4_IhNS8_IhEEEEE5valueIbRA14_KcbLi0EEET1_OT0_OT_, symObjAddr: 0x9B58, symBinAddr: 0x1232C, symSize: 0x1F0 }
  - { offset: 0xBB845, size: 0x8, addend: 0x0, symName: __ZNK8nlohmann16json_abi_v3_11_210basic_jsonINSt3__13mapENS2_6vectorENS2_12basic_stringIcNS2_11char_traitsIcEENS2_9allocatorIcEEEEbxydS8_NS0_14adl_serializerENS4_IhNS8_IhEEEEE5valueIbRA12_KcbLi0EEET1_OT0_OT_, symObjAddr: 0x9D48, symBinAddr: 0x1251C, symSize: 0x1F0 }
  - { offset: 0xBBEEE, size: 0x8, addend: 0x0, symName: __ZNK8nlohmann16json_abi_v3_11_210basic_jsonINSt3__13mapENS2_6vectorENS2_12basic_stringIcNS2_11char_traitsIcEENS2_9allocatorIcEEEEbxydS8_NS0_14adl_serializerENS4_IhNS8_IhEEEEE5valueIbRA16_KcbLi0EEET1_OT0_OT_, symObjAddr: 0x9F38, symBinAddr: 0x1270C, symSize: 0x1F0 }
  - { offset: 0xBC597, size: 0x8, addend: 0x0, symName: __ZNK8nlohmann16json_abi_v3_11_210basic_jsonINSt3__13mapENS2_6vectorENS2_12basic_stringIcNS2_11char_traitsIcEENS2_9allocatorIcEEEEbxydS8_NS0_14adl_serializerENS4_IhNS8_IhEEEEE5valueIbRA17_KcbLi0EEET1_OT0_OT_, symObjAddr: 0xA128, symBinAddr: 0x128FC, symSize: 0x1F0 }
  - { offset: 0xBCC40, size: 0x8, addend: 0x0, symName: __ZNK8nlohmann16json_abi_v3_11_210basic_jsonINSt3__13mapENS2_6vectorENS2_12basic_stringIcNS2_11char_traitsIcEENS2_9allocatorIcEEEEbxydS8_NS0_14adl_serializerENS4_IhNS8_IhEEEEE5valueIbRA25_KcbLi0EEET1_OT0_OT_, symObjAddr: 0xA318, symBinAddr: 0x12AEC, symSize: 0x1F0 }
  - { offset: 0xBD302, size: 0x8, addend: 0x0, symName: __ZNK8nlohmann16json_abi_v3_11_210basic_jsonINSt3__13mapENS2_6vectorENS2_12basic_stringIcNS2_11char_traitsIcEENS2_9allocatorIcEEEEbxydS8_NS0_14adl_serializerENS4_IhNS8_IhEEEEE5valueIbRA26_KcbLi0EEET1_OT0_OT_, symObjAddr: 0xA508, symBinAddr: 0x12CDC, symSize: 0x1F0 }
  - { offset: 0xBD9AB, size: 0x8, addend: 0x0, symName: __ZNK8nlohmann16json_abi_v3_11_210basic_jsonINSt3__13mapENS2_6vectorENS2_12basic_stringIcNS2_11char_traitsIcEENS2_9allocatorIcEEEEbxydS8_NS0_14adl_serializerENS4_IhNS8_IhEEEEE5valueIiRA13_KciLi0EEET1_OT0_OT_, symObjAddr: 0xA6F8, symBinAddr: 0x12ECC, symSize: 0x1F4 }
  - { offset: 0xBE0CB, size: 0x8, addend: 0x0, symName: __ZNK8nlohmann16json_abi_v3_11_210basic_jsonINSt3__13mapENS2_6vectorENS2_12basic_stringIcNS2_11char_traitsIcEENS2_9allocatorIcEEEEbxydS8_NS0_14adl_serializerENS4_IhNS8_IhEEEEE5valueIiRA17_KciLi0EEET1_OT0_OT_, symObjAddr: 0xA8EC, symBinAddr: 0x130C0, symSize: 0x1F4 }
  - { offset: 0xBE7EB, size: 0x8, addend: 0x0, symName: __ZNK8nlohmann16json_abi_v3_11_210basic_jsonINSt3__13mapENS2_6vectorENS2_12basic_stringIcNS2_11char_traitsIcEENS2_9allocatorIcEEEEbxydS8_NS0_14adl_serializerENS4_IhNS8_IhEEEEE5valueIiRA11_KciLi0EEET1_OT0_OT_, symObjAddr: 0xAAE0, symBinAddr: 0x132B4, symSize: 0x1F4 }
  - { offset: 0xBEF24, size: 0x8, addend: 0x0, symName: __ZNK8nlohmann16json_abi_v3_11_210basic_jsonINSt3__13mapENS2_6vectorENS2_12basic_stringIcNS2_11char_traitsIcEENS2_9allocatorIcEEEEbxydS8_NS0_14adl_serializerENS4_IhNS8_IhEEEEE5valueIRA5_KcRA15_SG_SA_Li0EEET1_OT0_OT_, symObjAddr: 0xACD4, symBinAddr: 0x134A8, symSize: 0x280 }
  - { offset: 0xBFB97, size: 0x8, addend: 0x0, symName: __ZNK8nlohmann16json_abi_v3_11_210basic_jsonINSt3__13mapENS2_6vectorENS2_12basic_stringIcNS2_11char_traitsIcEENS2_9allocatorIcEEEEbxydS8_NS0_14adl_serializerENS4_IhNS8_IhEEEEE5valueIiRA15_KciLi0EEET1_OT0_OT_, symObjAddr: 0xAF54, symBinAddr: 0x13728, symSize: 0x1F4 }
  - { offset: 0xC02B7, size: 0x8, addend: 0x0, symName: __ZNK8nlohmann16json_abi_v3_11_210basic_jsonINSt3__13mapENS2_6vectorENS2_12basic_stringIcNS2_11char_traitsIcEENS2_9allocatorIcEEEEbxydS8_NS0_14adl_serializerENS4_IhNS8_IhEEEEE2atIRA4_KcLi0EEERKSE_OT_, symObjAddr: 0xB148, symBinAddr: 0x1391C, symSize: 0x1EC }
  - { offset: 0xC0B61, size: 0x8, addend: 0x0, symName: __ZNK8nlohmann16json_abi_v3_11_26detail9iter_implIKNS0_10basic_jsonINSt3__13mapENS4_6vectorENS4_12basic_stringIcNS4_11char_traitsIcEENS4_9allocatorIcEEEEbxydSA_NS0_14adl_serializerENS6_IhNSA_IhEEEEEEEeqISI_LDn0EEEbRKT_, symObjAddr: 0xC53C, symBinAddr: 0x14C3C, symSize: 0x108 }
  - { offset: 0xC0DB5, size: 0x8, addend: 0x0, symName: __ZNK8nlohmann16json_abi_v3_11_26detail9iter_implIKNS0_10basic_jsonINSt3__13mapENS4_6vectorENS4_12basic_stringIcNS4_11char_traitsIcEENS4_9allocatorIcEEEEbxydSA_NS0_14adl_serializerENS6_IhNSA_IhEEEEEEEptEv, symObjAddr: 0x12DB4, symBinAddr: 0x1B058, symSize: 0x100 }
  - { offset: 0xC18B9, size: 0x8, addend: 0x0, symName: __ZN8nlohmann16json_abi_v3_11_26detail6parserINS0_10basic_jsonINSt3__13mapENS4_6vectorENS4_12basic_stringIcNS4_11char_traitsIcEENS4_9allocatorIcEEEEbxydSA_NS0_14adl_serializerENS6_IhNSA_IhEEEEEENS1_22iterator_input_adapterINS4_11__wrap_iterIPKcEEEEEC2EOSM_NS4_8functionIFbiNS1_13parse_event_tERSG_EEEbb, symObjAddr: 0x131A4, symBinAddr: 0x1B448, symSize: 0x134 }
  - { offset: 0xC1AF9, size: 0x8, addend: 0x0, symName: __ZN8nlohmann16json_abi_v3_11_26detail6parserINS0_10basic_jsonINSt3__13mapENS4_6vectorENS4_12basic_stringIcNS4_11char_traitsIcEENS4_9allocatorIcEEEEbxydSA_NS0_14adl_serializerENS6_IhNSA_IhEEEEEENS1_22iterator_input_adapterINS4_11__wrap_iterIPKcEEEEE9sax_parseINS1_17json_sax_acceptorISG_EEEEbPT_b, symObjAddr: 0x15080, symBinAddr: 0x1D310, symSize: 0x22C }
  - { offset: 0xC251D, size: 0x8, addend: 0x0, symName: __ZN8nlohmann16json_abi_v3_11_26detail6parserINS0_10basic_jsonINSt3__13mapENS4_6vectorENS4_12basic_stringIcNS4_11char_traitsIcEENS4_9allocatorIcEEEEbxydSA_NS0_14adl_serializerENS6_IhNSA_IhEEEEEENS1_22iterator_input_adapterINS4_11__wrap_iterIPKcEEEEED1Ev, symObjAddr: 0x1312C, symBinAddr: 0x1B3D0, symSize: 0x78 }
  - { offset: 0xC4167, size: 0x8, addend: 0x0, symName: __ZNK8nlohmann16json_abi_v3_11_210basic_jsonINSt3__13mapENS2_6vectorENS2_12basic_stringIcNS2_11char_traitsIcEENS2_9allocatorIcEEEEbxydS8_NS0_14adl_serializerENS4_IhNS8_IhEEEEE8get_implIbLi0EEET_NS0_6detail12priority_tagILj0EEE, symObjAddr: 0x16D94, symBinAddr: 0x1F010, symSize: 0x124 }
  - { offset: 0xC47B3, size: 0x8, addend: 0x0, symName: __ZN7facesdk14LSessionParamsC1ERKN8nlohmann16json_abi_v3_11_210basic_jsonINSt3__13mapENS4_6vectorENS4_12basic_stringIcNS4_11char_traitsIcEENS4_9allocatorIcEEEEbxydSA_NS2_14adl_serializerENS6_IhNSA_IhEEEEEE, symObjAddr: 0xB334, symBinAddr: 0x13B08, symSize: 0x4 }
  - { offset: 0xC47F1, size: 0x8, addend: 0x0, symName: __ZN7facesdk14LSessionParamsC1ERKN8nlohmann16json_abi_v3_11_210basic_jsonINSt3__13mapENS4_6vectorENS4_12basic_stringIcNS4_11char_traitsIcEENS4_9allocatorIcEEEEbxydSA_NS2_14adl_serializerENS6_IhNSA_IhEEEEEE, symObjAddr: 0xB334, symBinAddr: 0x13B08, symSize: 0x4 }
  - { offset: 0xC4C7C, size: 0x8, addend: 0x0, symName: __ZNSt3__16vectorIN7facesdk12LFrameResultENS_9allocatorIS2_EEED1B8ne180100Ev, symObjAddr: 0xB700, symBinAddr: 0x13E00, symSize: 0x58 }
  - { offset: 0xC4CEB, size: 0x8, addend: 0x0, symName: __ZNSt3__16vectorIN7facesdk12LFrameResultENS_9allocatorIS2_EEED1B8ne180100Ev, symObjAddr: 0xB700, symBinAddr: 0x13E00, symSize: 0x58 }
  - { offset: 0xC4E8C, size: 0x8, addend: 0x0, symName: __ZNSt3__16vectorIN7facesdk5LFaceENS_9allocatorIS2_EEED1B8ne180100Ev, symObjAddr: 0xB818, symBinAddr: 0x13F18, symSize: 0x90 }
  - { offset: 0xC577D, size: 0x8, addend: 0x0, symName: __ZN8nlohmann16json_abi_v3_11_26detail10type_errorD1Ev, symObjAddr: 0xBD20, symBinAddr: 0x14420, symSize: 0x30 }
  - { offset: 0xC585A, size: 0x8, addend: 0x0, symName: __ZN8nlohmann16json_abi_v3_11_26detail10type_errorD0Ev, symObjAddr: 0xBF78, symBinAddr: 0x14678, symSize: 0x34 }
  - { offset: 0xC58DB, size: 0x8, addend: 0x0, symName: __ZNK8nlohmann16json_abi_v3_11_26detail9exception4whatEv, symObjAddr: 0xBFAC, symBinAddr: 0x146AC, symSize: 0x8 }
  - { offset: 0xC5902, size: 0x8, addend: 0x0, symName: __ZN8nlohmann16json_abi_v3_11_26detail9exceptionD1Ev, symObjAddr: 0xBFB4, symBinAddr: 0x146B4, symSize: 0x30 }
  - { offset: 0xC595E, size: 0x8, addend: 0x0, symName: __ZN8nlohmann16json_abi_v3_11_26detail9exceptionD0Ev, symObjAddr: 0xBFE4, symBinAddr: 0x146E4, symSize: 0x34 }
  - { offset: 0xC5DA7, size: 0x8, addend: 0x0, symName: __ZNK8nlohmann16json_abi_v3_11_26detail9iter_implIKNS0_10basic_jsonINSt3__13mapENS4_6vectorENS4_12basic_stringIcNS4_11char_traitsIcEENS4_9allocatorIcEEEEbxydSA_NS0_14adl_serializerENS6_IhNSA_IhEEEEEEEdeEv, symObjAddr: 0xC3CC, symBinAddr: 0x14ACC, symSize: 0x170 }
  - { offset: 0xC6039, size: 0x8, addend: 0x0, symName: __ZNSt3__16vectorIjNS_9allocatorIjEEE6insertENS_11__wrap_iterIPKjEEOj, symObjAddr: 0xC9A8, symBinAddr: 0x150A8, symSize: 0x36C }
  - { offset: 0xC6AEE, size: 0x8, addend: 0x0, symName: __ZN8nlohmann16json_abi_v3_11_26detail16invalid_iterator6createIPKNS0_10basic_jsonINSt3__13mapENS5_6vectorENS5_12basic_stringIcNS5_11char_traitsIcEENS5_9allocatorIcEEEEbxydSB_NS0_14adl_serializerENS7_IhNSB_IhEEEEEELi0EEES2_iRKSD_T_, symObjAddr: 0xC644, symBinAddr: 0x14D44, symSize: 0x1C4 }
  - { offset: 0xC795D, size: 0x8, addend: 0x0, symName: __ZN8nlohmann16json_abi_v3_11_26detail16invalid_iteratorD1Ev, symObjAddr: 0xC808, symBinAddr: 0x14F08, symSize: 0x30 }
  - { offset: 0xC79D7, size: 0x8, addend: 0x0, symName: __ZN8nlohmann16json_abi_v3_11_26detail16invalid_iteratorD0Ev, symObjAddr: 0xC838, symBinAddr: 0x14F38, symSize: 0x34 }
  - { offset: 0xC81B3, size: 0x8, addend: 0x0, symName: __ZNSt3__16vectorIN8nlohmann16json_abi_v3_11_210basic_jsonINS_3mapES0_NS_12basic_stringIcNS_11char_traitsIcEENS_9allocatorIcEEEEbxydS8_NS2_14adl_serializerENS0_IhNS8_IhEEEEEENS8_ISE_EEE7reserveEm, symObjAddr: 0xD3A0, symBinAddr: 0x15A00, symSize: 0xD8 }
  - { offset: 0xC85D0, size: 0x8, addend: 0x0, symName: __ZNSt3__16__treeINS_12__value_typeINS_12basic_stringIcNS_11char_traitsIcEENS_9allocatorIcEEEEN8nlohmann16json_abi_v3_11_210basic_jsonINS_3mapENS_6vectorES7_bxydS5_NS9_14adl_serializerENSC_IhNS5_IhEEEEEEEENS_19__map_value_compareIS7_SH_NS_4lessIvEELb1EEENS5_ISH_EEE7destroyEPNS_11__tree_nodeISH_PvEE, symObjAddr: 0xD5F4, symBinAddr: 0x15C40, symSize: 0x78 }
  - { offset: 0xC8890, size: 0x8, addend: 0x0, symName: __ZNSt3__16vectorIN8nlohmann16json_abi_v3_11_210basic_jsonINS_3mapES0_NS_12basic_stringIcNS_11char_traitsIcEENS_9allocatorIcEEEEbxydS8_NS2_14adl_serializerENS0_IhNS8_IhEEEEEENS8_ISE_EEED2B8ne180100Ev, symObjAddr: 0xD66C, symBinAddr: 0x15CB8, symSize: 0x5C }
  - { offset: 0xC8A06, size: 0x8, addend: 0x0, symName: __ZNSt3__114__split_bufferIN8nlohmann16json_abi_v3_11_210basic_jsonINS_3mapENS_6vectorENS_12basic_stringIcNS_11char_traitsIcEENS_9allocatorIcEEEEbxydS9_NS2_14adl_serializerENS5_IhNS9_IhEEEEEERNS9_ISF_EEED1Ev, symObjAddr: 0xD48C, symBinAddr: 0x15AD8, symSize: 0x54 }
  - { offset: 0xC8FC8, size: 0x8, addend: 0x0, symName: __ZNSt3__16vectorIN7facesdk6LStageENS_9allocatorIS2_EEEC2B8ne180100ESt16initializer_listIS2_E, symObjAddr: 0xD878, symBinAddr: 0x15EB0, symSize: 0x118 }
  - { offset: 0xC9235, size: 0x8, addend: 0x0, symName: __ZN7facesdk6LStageC2ERKS0_, symObjAddr: 0xD9F8, symBinAddr: 0x1601C, symSize: 0x1C0 }
  - { offset: 0xC96DC, size: 0x8, addend: 0x0, symName: __ZN7facesdk6LStageC2ERKS0_, symObjAddr: 0xD9F8, symBinAddr: 0x1601C, symSize: 0x1C0 }
  - { offset: 0xC96E7, size: 0x8, addend: 0x0, symName: __ZNSt3__128__exception_guard_exceptionsINS_6vectorIN7facesdk6LStageENS_9allocatorIS3_EEE16__destroy_vectorEED1B8ne180100Ev, symObjAddr: 0xD990, symBinAddr: 0x15FC8, symSize: 0x54 }
  - { offset: 0xC9AC6, size: 0x8, addend: 0x0, symName: __ZNSt3__16vectorIN7facesdk12LFrameResultENS_9allocatorIS2_EEE16__init_with_sizeB8ne180100IPS2_S7_EEvT_T0_m, symObjAddr: 0xDBB8, symBinAddr: 0x161DC, symSize: 0x104 }
  - { offset: 0xCA1C6, size: 0x8, addend: 0x0, symName: __ZN7facesdk12LFrameResultC2ERKS0_, symObjAddr: 0xDD54, symBinAddr: 0x16364, symSize: 0x158 }
  - { offset: 0xCA66A, size: 0x8, addend: 0x0, symName: __ZN7facesdk12LFrameResultC2ERKS0_, symObjAddr: 0xDD54, symBinAddr: 0x16364, symSize: 0x158 }
  - { offset: 0xCA675, size: 0x8, addend: 0x0, symName: __ZNSt3__128__exception_guard_exceptionsINS_6vectorIN7facesdk12LFrameResultENS_9allocatorIS3_EEE16__destroy_vectorEED1B8ne180100Ev, symObjAddr: 0xDCBC, symBinAddr: 0x162E0, symSize: 0x84 }
  - { offset: 0xCAA11, size: 0x8, addend: 0x0, symName: __ZNSt3__16vectorIN7facesdk5LFaceENS_9allocatorIS2_EEE16__init_with_sizeB8ne180100IPS2_S7_EEvT_T0_m, symObjAddr: 0xDEAC, symBinAddr: 0x164BC, symSize: 0xFC }
  - { offset: 0xCB0F9, size: 0x8, addend: 0x0, symName: __ZN7facesdk5LFaceC2ERKS0_, symObjAddr: 0xE070, symBinAddr: 0x1666C, symSize: 0x398 }
  - { offset: 0xCBAFB, size: 0x8, addend: 0x0, symName: __ZN7facesdk5LFaceC2ERKS0_, symObjAddr: 0xE070, symBinAddr: 0x1666C, symSize: 0x398 }
  - { offset: 0xCBB06, size: 0x8, addend: 0x0, symName: __ZNSt3__128__exception_guard_exceptionsINS_6vectorIN7facesdk5LFaceENS_9allocatorIS3_EEE16__destroy_vectorEED1B8ne180100Ev, symObjAddr: 0xDFA8, symBinAddr: 0x165B8, symSize: 0xB4 }
  - { offset: 0xCC07E, size: 0x8, addend: 0x0, symName: __ZNSt3__16vectorIN7facesdk5LFaceENS_9allocatorIS2_EEE16__init_with_sizeB8ne180100IPS2_S7_EEvT_T0_m.cold.1, symObjAddr: 0x16EB8, symBinAddr: 0xC4428C, symSize: 0x5C }
  - { offset: 0xCC663, size: 0x8, addend: 0x0, symName: __ZNSt3__114__split_bufferIN7facesdk12LFrameResultERNS_9allocatorIS2_EEED1Ev, symObjAddr: 0xE88C, symBinAddr: 0x16E60, symSize: 0x50 }
  - { offset: 0xCC7FF, size: 0x8, addend: 0x0, symName: __ZNSt12out_of_rangeC1B8ne180100EPKc, symObjAddr: 0xE940, symBinAddr: 0x16F14, symSize: 0x24 }
  - { offset: 0xCCC40, size: 0x8, addend: 0x0, symName: __ZNSt3__114__split_bufferIN7facesdk6LStageERNS_9allocatorIS2_EEE17__destruct_at_endB8ne180100EPS2_NS_17integral_constantIbLb0EEE, symObjAddr: 0xF0C8, symBinAddr: 0x1769C, symSize: 0x150 }
  - { offset: 0xCD620, size: 0x8, addend: 0x0, symName: __ZNSt3__114__split_bufferIN7facesdk6LStageERNS_9allocatorIS2_EEED1Ev, symObjAddr: 0xEF3C, symBinAddr: 0x17510, symSize: 0x34 }
  - { offset: 0xCD79C, size: 0x8, addend: 0x0, symName: __ZNSt3__16__treeINS_12__value_typeINS_12basic_stringIcNS_11char_traitsIcEENS_9allocatorIcEEEEN8nlohmann16json_abi_v3_11_210basic_jsonINS_3mapENS_6vectorES7_bxydS5_NS9_14adl_serializerENSC_IhNS5_IhEEEEEEEENS_19__map_value_compareIS7_SH_NS_4lessIvEELb1EEENS5_ISH_EEE25__emplace_unique_key_argsIS7_JS7_DnEEENS_4pairINS_15__tree_iteratorISH_PNS_11__tree_nodeISH_PvEElEEbEERKT_DpOT0_, symObjAddr: 0xF588, symBinAddr: 0x17B5C, symSize: 0x178 }
  - { offset: 0xCDDC6, size: 0x8, addend: 0x0, symName: __ZNSt3__110unique_ptrINS_11__tree_nodeINS_12__value_typeINS_12basic_stringIcNS_11char_traitsIcEENS_9allocatorIcEEEEN8nlohmann16json_abi_v3_11_210basic_jsonINS_3mapENS_6vectorES8_bxydS6_NSA_14adl_serializerENSD_IhNS6_IhEEEEEEEEPvEENS_22__tree_node_destructorINS6_ISK_EEEEED1B8ne180100Ev, symObjAddr: 0xF700, symBinAddr: 0x17CD4, symSize: 0x5C }
  - { offset: 0xCEA5C, size: 0x8, addend: 0x0, symName: __ZNSt3__16__treeINS_12__value_typeINS_12basic_stringIcNS_11char_traitsIcEENS_9allocatorIcEEEEN8nlohmann16json_abi_v3_11_210basic_jsonINS_3mapENS_6vectorES7_bxydS5_NS9_14adl_serializerENSC_IhNS5_IhEEEEEEEENS_19__map_value_compareIS7_SH_NS_4lessIvEELb1EEENS5_ISH_EEE30__emplace_hint_unique_key_argsIS7_JRKNS_4pairIKS7_SG_EEEEENSP_INS_15__tree_iteratorISH_PNS_11__tree_nodeISH_PvEElEEbEENS_21__tree_const_iteratorISH_SY_lEERKT_DpOT0_, symObjAddr: 0xFB40, symBinAddr: 0x18114, symSize: 0x128 }
  - { offset: 0xCEFAE, size: 0x8, addend: 0x0, symName: __ZNSt3__16vectorIN8nlohmann16json_abi_v3_11_210basic_jsonINS_3mapES0_NS_12basic_stringIcNS_11char_traitsIcEENS_9allocatorIcEEEEbxydS8_NS2_14adl_serializerENS0_IhNS8_IhEEEEEENS8_ISE_EEE16__init_with_sizeB8ne180100IPSE_SI_EEvT_T0_m, symObjAddr: 0x10060, symBinAddr: 0x18634, symSize: 0x100 }
  - { offset: 0xCF5F3, size: 0x8, addend: 0x0, symName: __ZNSt3__16__treeINS_12__value_typeINS_12basic_stringIcNS_11char_traitsIcEENS_9allocatorIcEEEEN8nlohmann16json_abi_v3_11_210basic_jsonINS_3mapENS_6vectorES7_bxydS5_NS9_14adl_serializerENSC_IhNS5_IhEEEEEEEENS_19__map_value_compareIS7_SH_NS_4lessIvEELb1EEENS5_ISH_EEE12__find_equalIS7_EERPNS_16__tree_node_baseIPvEENS_21__tree_const_iteratorISH_PNS_11__tree_nodeISH_SQ_EElEERPNS_15__tree_end_nodeISS_EEST_RKT_, symObjAddr: 0xFC68, symBinAddr: 0x1823C, symSize: 0x3F8 }
  - { offset: 0xD03BF, size: 0x8, addend: 0x0, symName: __ZNSt3__128__exception_guard_exceptionsINS_6vectorIN8nlohmann16json_abi_v3_11_210basic_jsonINS_3mapES1_NS_12basic_stringIcNS_11char_traitsIcEENS_9allocatorIcEEEEbxydS9_NS3_14adl_serializerENS1_IhNS9_IhEEEEEENS9_ISF_EEE16__destroy_vectorEED1B8ne180100Ev, symObjAddr: 0x10160, symBinAddr: 0x18734, symSize: 0x80 }
  - { offset: 0xD055E, size: 0x8, addend: 0x0, symName: __ZNSt3__128__exception_guard_exceptionsINS_29_AllocatorDestroyRangeReverseINS_9allocatorIN8nlohmann16json_abi_v3_11_210basic_jsonINS_3mapENS_6vectorENS_12basic_stringIcNS_11char_traitsIcEENS2_IcEEEEbxydS2_NS4_14adl_serializerENS7_IhNS2_IhEEEEEEEEPSG_EEED1B8ne180100Ev, symObjAddr: 0x101E0, symBinAddr: 0x187B4, symSize: 0x58 }
  - { offset: 0xD08CE, size: 0x8, addend: 0x0, symName: __ZN8nlohmann16json_abi_v3_11_26detail13binary_writerINS0_10basic_jsonINSt3__13mapENS4_6vectorENS4_12basic_stringIcNS4_11char_traitsIcEENS4_9allocatorIcEEEEbxydSA_NS0_14adl_serializerENS6_IhNSA_IhEEEEEEhE10write_bsonERKSG_, symObjAddr: 0x10500, symBinAddr: 0x18AC0, symSize: 0xDC }
  - { offset: 0xD0AA6, size: 0x8, addend: 0x0, symName: __ZN8nlohmann16json_abi_v3_11_26detail13binary_writerINS0_10basic_jsonINSt3__13mapENS4_6vectorENS4_12basic_stringIcNS4_11char_traitsIcEENS4_9allocatorIcEEEEbxydSA_NS0_14adl_serializerENS6_IhNSA_IhEEEEEEhED1Ev, symObjAddr: 0x105DC, symBinAddr: 0x18B9C, symSize: 0x68 }
  - { offset: 0xD0BE3, size: 0x8, addend: 0x0, symName: __ZN8nlohmann16json_abi_v3_11_26detail13binary_writerINS0_10basic_jsonINSt3__13mapENS4_6vectorENS4_12basic_stringIcNS4_11char_traitsIcEENS4_9allocatorIcEEEEbxydSA_NS0_14adl_serializerENS6_IhNSA_IhEEEEEEhE17write_bson_objectERKNS5_ISC_SG_NS4_4lessIvEENSA_INS4_4pairIKSC_SG_EEEEEE, symObjAddr: 0x106AC, symBinAddr: 0x18C04, symSize: 0x170 }
  - { offset: 0xD116C, size: 0x8, addend: 0x0, symName: __ZN8nlohmann16json_abi_v3_11_26detail13binary_writerINS0_10basic_jsonINSt3__13mapENS4_6vectorENS4_12basic_stringIcNS4_11char_traitsIcEENS4_9allocatorIcEEEEbxydSA_NS0_14adl_serializerENS6_IhNSA_IhEEEEEEhE22calc_bson_element_sizeERKSC_RKSG_, symObjAddr: 0x10CEC, symBinAddr: 0x19244, symSize: 0x1D4 }
  - { offset: 0xD1779, size: 0x8, addend: 0x0, symName: __ZN8nlohmann16json_abi_v3_11_26detail13binary_writerINS0_10basic_jsonINSt3__13mapENS4_6vectorENS4_12basic_stringIcNS4_11char_traitsIcEENS4_9allocatorIcEEEEbxydSA_NS0_14adl_serializerENS6_IhNSA_IhEEEEEEhE18write_bson_elementERKSC_RKSG_, symObjAddr: 0x108A0, symBinAddr: 0x18DF8, symSize: 0x44C }
  - { offset: 0xD22A4, size: 0x8, addend: 0x0, symName: __ZN8nlohmann16json_abi_v3_11_26detail13binary_writerINS0_10basic_jsonINSt3__13mapENS4_6vectorENS4_12basic_stringIcNS4_11char_traitsIcEENS4_9allocatorIcEEEEbxydSA_NS0_14adl_serializerENS6_IhNSA_IhEEEEEEhE16write_bson_arrayERKSC_RKNS6_ISG_NSA_ISG_EEEE, symObjAddr: 0x112E8, symBinAddr: 0x19840, symSize: 0x1D0 }
  - { offset: 0xD296B, size: 0x8, addend: 0x0, symName: __ZN8nlohmann16json_abi_v3_11_26detail13binary_writerINS0_10basic_jsonINSt3__13mapENS4_6vectorENS4_12basic_stringIcNS4_11char_traitsIcEENS4_9allocatorIcEEEEbxydSA_NS0_14adl_serializerENS6_IhNSA_IhEEEEEEhE18write_bson_integerERKSC_x, symObjAddr: 0x115CC, symBinAddr: 0x19B24, symSize: 0x17C }
  - { offset: 0xD2D93, size: 0x8, addend: 0x0, symName: __ZN8nlohmann16json_abi_v3_11_26detail13binary_writerINS0_10basic_jsonINSt3__13mapENS4_6vectorENS4_12basic_stringIcNS4_11char_traitsIcEENS4_9allocatorIcEEEEbxydSA_NS0_14adl_serializerENS6_IhNSA_IhEEEEEEhE19write_bson_unsignedERKSC_RKSG_, symObjAddr: 0x11748, symBinAddr: 0x19CA0, symSize: 0x280 }
  - { offset: 0xD34AE, size: 0x8, addend: 0x0, symName: __ZN8nlohmann16json_abi_v3_11_26detail13binary_writerINS0_10basic_jsonINSt3__13mapENS4_6vectorENS4_12basic_stringIcNS4_11char_traitsIcEENS4_9allocatorIcEEEEbxydSA_NS0_14adl_serializerENS6_IhNSA_IhEEEEEEhE17write_bson_binaryERKSC_RKNS0_27byte_container_with_subtypeISF_EE, symObjAddr: 0x114B8, symBinAddr: 0x19A10, symSize: 0x114 }
  - { offset: 0xD3959, size: 0x8, addend: 0x0, symName: __ZN8nlohmann16json_abi_v3_11_26detail13binary_writerINS0_10basic_jsonINSt3__13mapENS4_6vectorENS4_12basic_stringIcNS4_11char_traitsIcEENS4_9allocatorIcEEEEbxydSA_NS0_14adl_serializerENS6_IhNSA_IhEEEEEEhE27calc_bson_entry_header_sizeERKSC_RKSG_, symObjAddr: 0x10EC0, symBinAddr: 0x19418, symSize: 0x12C }
  - { offset: 0xD3CF4, size: 0x8, addend: 0x0, symName: __ZN8nlohmann16json_abi_v3_11_26detail12out_of_rangeD1Ev, symObjAddr: 0x11284, symBinAddr: 0x197DC, symSize: 0x30 }
  - { offset: 0xD3D6E, size: 0x8, addend: 0x0, symName: __ZN8nlohmann16json_abi_v3_11_26detail12out_of_rangeD0Ev, symObjAddr: 0x112B4, symBinAddr: 0x1980C, symSize: 0x34 }
  - { offset: 0xD3ED6, size: 0x8, addend: 0x0, symName: __ZNSt3__120__shared_ptr_emplaceIN8nlohmann16json_abi_v3_11_26detail21output_vector_adapterIhNS_9allocatorIhEEEENS5_IS7_EEED1Ev, symObjAddr: 0x11A90, symBinAddr: 0x19FE8, symSize: 0x10 }
  - { offset: 0xD3EF8, size: 0x8, addend: 0x0, symName: __ZNSt3__120__shared_ptr_emplaceIN8nlohmann16json_abi_v3_11_26detail21output_vector_adapterIhNS_9allocatorIhEEEENS5_IS7_EEED1Ev, symObjAddr: 0x11A90, symBinAddr: 0x19FE8, symSize: 0x10 }
  - { offset: 0xD3F2E, size: 0x8, addend: 0x0, symName: __ZNSt3__120__shared_ptr_emplaceIN8nlohmann16json_abi_v3_11_26detail21output_vector_adapterIhNS_9allocatorIhEEEENS5_IS7_EEED0Ev, symObjAddr: 0x11AA0, symBinAddr: 0x19FF8, symSize: 0x20 }
  - { offset: 0xD401A, size: 0x8, addend: 0x0, symName: __ZNSt3__120__shared_ptr_emplaceIN8nlohmann16json_abi_v3_11_26detail21output_vector_adapterIhNS_9allocatorIhEEEENS5_IS7_EEE16__on_zero_sharedEv, symObjAddr: 0x11AC0, symBinAddr: 0x1A018, symSize: 0xC }
  - { offset: 0xD4043, size: 0x8, addend: 0x0, symName: __ZNSt3__120__shared_ptr_emplaceIN8nlohmann16json_abi_v3_11_26detail21output_vector_adapterIhNS_9allocatorIhEEEENS5_IS7_EEE16__on_zero_sharedEv, symObjAddr: 0x11AC0, symBinAddr: 0x1A018, symSize: 0xC }
  - { offset: 0xD4061, size: 0x8, addend: 0x0, symName: __ZNSt3__120__shared_ptr_emplaceIN8nlohmann16json_abi_v3_11_26detail21output_vector_adapterIhNS_9allocatorIhEEEENS5_IS7_EEE16__on_zero_sharedEv, symObjAddr: 0x11AC0, symBinAddr: 0x1A018, symSize: 0xC }
  - { offset: 0xD407F, size: 0x8, addend: 0x0, symName: __ZNSt3__120__shared_ptr_emplaceIN8nlohmann16json_abi_v3_11_26detail21output_vector_adapterIhNS_9allocatorIhEEEENS5_IS7_EEE16__on_zero_sharedEv, symObjAddr: 0x11AC0, symBinAddr: 0x1A018, symSize: 0xC }
  - { offset: 0xD4102, size: 0x8, addend: 0x0, symName: __ZNSt3__120__shared_ptr_emplaceIN8nlohmann16json_abi_v3_11_26detail21output_vector_adapterIhNS_9allocatorIhEEEENS5_IS7_EEE21__on_zero_shared_weakEv, symObjAddr: 0x11ACC, symBinAddr: 0x1A024, symSize: 0x4 }
  - { offset: 0xD4135, size: 0x8, addend: 0x0, symName: __ZNSt3__120__shared_ptr_emplaceIN8nlohmann16json_abi_v3_11_26detail21output_vector_adapterIhNS_9allocatorIhEEEENS5_IS7_EEE21__on_zero_shared_weakEv, symObjAddr: 0x11ACC, symBinAddr: 0x1A024, symSize: 0x4 }
  - { offset: 0xD4157, size: 0x8, addend: 0x0, symName: __ZNSt3__120__shared_ptr_emplaceIN8nlohmann16json_abi_v3_11_26detail21output_vector_adapterIhNS_9allocatorIhEEEENS5_IS7_EEE21__on_zero_shared_weakEv, symObjAddr: 0x11ACC, symBinAddr: 0x1A024, symSize: 0x4 }
  - { offset: 0xD4179, size: 0x8, addend: 0x0, symName: __ZNSt3__120__shared_ptr_emplaceIN8nlohmann16json_abi_v3_11_26detail21output_vector_adapterIhNS_9allocatorIhEEEENS5_IS7_EEE21__on_zero_shared_weakEv, symObjAddr: 0x11ACC, symBinAddr: 0x1A024, symSize: 0x4 }
  - { offset: 0xD41A5, size: 0x8, addend: 0x0, symName: __ZNSt3__120__shared_ptr_emplaceIN8nlohmann16json_abi_v3_11_26detail21output_vector_adapterIhNS_9allocatorIhEEEENS5_IS7_EEE21__on_zero_shared_weakEv, symObjAddr: 0x11ACC, symBinAddr: 0x1A024, symSize: 0x4 }
  - { offset: 0xD41CC, size: 0x8, addend: 0x0, symName: __ZNSt3__120__shared_ptr_emplaceIN8nlohmann16json_abi_v3_11_26detail21output_vector_adapterIhNS_9allocatorIhEEEENS5_IS7_EEE21__on_zero_shared_weakEv, symObjAddr: 0x11ACC, symBinAddr: 0x1A024, symSize: 0x4 }
  - { offset: 0xD44B9, size: 0x8, addend: 0x0, symName: __ZN8nlohmann16json_abi_v3_11_26detail21output_vector_adapterIhNSt3__19allocatorIhEEE15write_characterEh, symObjAddr: 0x11AD0, symBinAddr: 0x1A028, symSize: 0x1BC }
  - { offset: 0xD489E, size: 0x8, addend: 0x0, symName: __ZN8nlohmann16json_abi_v3_11_26detail21output_vector_adapterIhNSt3__19allocatorIhEEE16write_charactersEPKhm, symObjAddr: 0x11C8C, symBinAddr: 0x1A1E4, symSize: 0x18 }
  - { offset: 0xD4913, size: 0x8, addend: 0x0, symName: __ZN8nlohmann16json_abi_v3_11_26detail21output_vector_adapterIhNSt3__19allocatorIhEEE16write_charactersEPKhm, symObjAddr: 0x11C8C, symBinAddr: 0x1A1E4, symSize: 0x18 }
  - { offset: 0xD5122, size: 0x8, addend: 0x0, symName: __ZN8nlohmann16json_abi_v3_11_26detail6concatINSt3__112basic_stringIcNS3_11char_traitsIcEENS3_9allocatorIcEEEEJRA22_KcPSA_EEET_DpOT0_, symObjAddr: 0x11F60, symBinAddr: 0x1A204, symSize: 0x84 }
  - { offset: 0xD5145, size: 0x8, addend: 0x0, symName: __ZN8nlohmann16json_abi_v3_11_26detail21output_vector_adapterIhNSt3__19allocatorIhEEED1Ev, symObjAddr: 0x11CA4, symBinAddr: 0x1A1FC, symSize: 0x4 }
  - { offset: 0xD5170, size: 0x8, addend: 0x0, symName: __ZN8nlohmann16json_abi_v3_11_26detail21output_vector_adapterIhNSt3__19allocatorIhEEED0Ev, symObjAddr: 0x11CA8, symBinAddr: 0x1A200, symSize: 0x4 }
  - { offset: 0xD582D, size: 0x8, addend: 0x0, symName: __ZNK8nlohmann16json_abi_v3_11_210basic_jsonINSt3__13mapENS2_6vectorENS2_12basic_stringIcNS2_11char_traitsIcEENS2_9allocatorIcEEEEbxydS8_NS0_14adl_serializerENS4_IhNS8_IhEEEEEixEm, symObjAddr: 0x128A8, symBinAddr: 0x1AB4C, symSize: 0xE0 }
  - { offset: 0xD5A20, size: 0x8, addend: 0x0, symName: __ZNSt3__16__treeINS_12__value_typeINS_12basic_stringIcNS_11char_traitsIcEENS_9allocatorIcEEEEN8nlohmann16json_abi_v3_11_210basic_jsonINS_3mapENS_6vectorES7_bxydS5_NS9_14adl_serializerENSC_IhNS5_IhEEEEEEEENS_19__map_value_compareIS7_SH_NS_4lessIvEELb1EEENS5_ISH_EEE25__emplace_unique_key_argsIS7_JS7_SG_EEENS_4pairINS_15__tree_iteratorISH_PNS_11__tree_nodeISH_PvEElEEbEERKT_DpOT0_, symObjAddr: 0x12A0C, symBinAddr: 0x1ACB0, symSize: 0x194 }
  - { offset: 0xD5FE1, size: 0x8, addend: 0x0, symName: __ZNSt3__16vectorIN8nlohmann16json_abi_v3_11_210basic_jsonINS_3mapES0_NS_12basic_stringIcNS_11char_traitsIcEENS_9allocatorIcEEEEbxydS8_NS2_14adl_serializerENS0_IhNS8_IhEEEEEENS8_ISE_EEE16__init_with_sizeB8ne180100IPKNS2_6detail8json_refISE_EESM_EEvT_T0_m, symObjAddr: 0x12BA0, symBinAddr: 0x1AE44, symSize: 0x128 }
  - { offset: 0xD64E4, size: 0x8, addend: 0x0, symName: __ZN8nlohmann16json_abi_v3_11_26detail10type_error6createIDnLi0EEES2_iRKNSt3__112basic_stringIcNS4_11char_traitsIcEENS4_9allocatorIcEEEET_, symObjAddr: 0x126DC, symBinAddr: 0x1A980, symSize: 0x1CC }
  - { offset: 0xD7973, size: 0x8, addend: 0x0, symName: __ZN8nlohmann16json_abi_v3_11_26detail5lexerINS0_10basic_jsonINSt3__13mapENS4_6vectorENS4_12basic_stringIcNS4_11char_traitsIcEENS4_9allocatorIcEEEEbxydSA_NS0_14adl_serializerENS6_IhNSA_IhEEEEEENS1_22iterator_input_adapterINS4_11__wrap_iterIPKcEEEEE4scanEv, symObjAddr: 0x13324, symBinAddr: 0x1B5C8, symSize: 0x28C }
  - { offset: 0xD7C84, size: 0x8, addend: 0x0, symName: __ZN8nlohmann16json_abi_v3_11_26detail5lexerINS0_10basic_jsonINSt3__13mapENS4_6vectorENS4_12basic_stringIcNS4_11char_traitsIcEENS4_9allocatorIcEEEEbxydSA_NS0_14adl_serializerENS6_IhNSA_IhEEEEEENS1_22iterator_input_adapterINS4_11__wrap_iterIPKcEEEEED1Ev, symObjAddr: 0x132D8, symBinAddr: 0x1B57C, symSize: 0x4C }
  - { offset: 0xD7FA0, size: 0x8, addend: 0x0, symName: __ZN8nlohmann16json_abi_v3_11_26detail5lexerINS0_10basic_jsonINSt3__13mapENS4_6vectorENS4_12basic_stringIcNS4_11char_traitsIcEENS4_9allocatorIcEEEEbxydSA_NS0_14adl_serializerENS6_IhNSA_IhEEEEEENS1_22iterator_input_adapterINS4_11__wrap_iterIPKcEEEEE3getEv, symObjAddr: 0x14C70, symBinAddr: 0x1CF14, symSize: 0x250 }
  - { offset: 0xD8451, size: 0x8, addend: 0x0, symName: __ZN8nlohmann16json_abi_v3_11_26detail5lexerINS0_10basic_jsonINSt3__13mapENS4_6vectorENS4_12basic_stringIcNS4_11char_traitsIcEENS4_9allocatorIcEEEEbxydSA_NS0_14adl_serializerENS6_IhNSA_IhEEEEEENS1_22iterator_input_adapterINS4_11__wrap_iterIPKcEEEEE15skip_whitespaceEv, symObjAddr: 0x135B0, symBinAddr: 0x1B854, symSize: 0x26C }
  - { offset: 0xD894A, size: 0x8, addend: 0x0, symName: __ZN8nlohmann16json_abi_v3_11_26detail5lexerINS0_10basic_jsonINSt3__13mapENS4_6vectorENS4_12basic_stringIcNS4_11char_traitsIcEENS4_9allocatorIcEEEEbxydSA_NS0_14adl_serializerENS6_IhNSA_IhEEEEEENS1_22iterator_input_adapterINS4_11__wrap_iterIPKcEEEEE12scan_commentEv, symObjAddr: 0x1381C, symBinAddr: 0x1BAC0, symSize: 0x120 }
  - { offset: 0xD895C, size: 0x8, addend: 0x0, symName: __ZN8nlohmann16json_abi_v3_11_26detail5lexerINS0_10basic_jsonINSt3__13mapENS4_6vectorENS4_12basic_stringIcNS4_11char_traitsIcEENS4_9allocatorIcEEEEbxydSA_NS0_14adl_serializerENS6_IhNSA_IhEEEEEENS1_22iterator_input_adapterINS4_11__wrap_iterIPKcEEEEE12scan_commentEv, symObjAddr: 0x1381C, symBinAddr: 0x1BAC0, symSize: 0x120 }
  - { offset: 0xD8A5C, size: 0x8, addend: 0x0, symName: __ZN8nlohmann16json_abi_v3_11_26detail5lexerINS0_10basic_jsonINSt3__13mapENS4_6vectorENS4_12basic_stringIcNS4_11char_traitsIcEENS4_9allocatorIcEEEEbxydSA_NS0_14adl_serializerENS6_IhNSA_IhEEEEEENS1_22iterator_input_adapterINS4_11__wrap_iterIPKcEEEEE11scan_numberEv, symObjAddr: 0x14674, symBinAddr: 0x1C918, symSize: 0x5FC }
  - { offset: 0xD9879, size: 0x8, addend: 0x0, symName: __ZN8nlohmann16json_abi_v3_11_26detail5lexerINS0_10basic_jsonINSt3__13mapENS4_6vectorENS4_12basic_stringIcNS4_11char_traitsIcEENS4_9allocatorIcEEEEbxydSA_NS0_14adl_serializerENS6_IhNSA_IhEEEEEENS1_22iterator_input_adapterINS4_11__wrap_iterIPKcEEEEE11scan_stringEv, symObjAddr: 0x1393C, symBinAddr: 0x1BBE0, symSize: 0xD38 }
  - { offset: 0xDB2F1, size: 0x8, addend: 0x0, symName: __ZN8nlohmann16json_abi_v3_11_26detail5lexerINS0_10basic_jsonINSt3__13mapENS4_6vectorENS4_12basic_stringIcNS4_11char_traitsIcEENS4_9allocatorIcEEEEbxydSA_NS0_14adl_serializerENS6_IhNSA_IhEEEEEENS1_22iterator_input_adapterINS4_11__wrap_iterIPKcEEEEE13get_codepointEv, symObjAddr: 0x14ED4, symBinAddr: 0x1D164, symSize: 0x1AC }
  - { offset: 0xDB3CA, size: 0x8, addend: 0x0, symName: __ZN8nlohmann16json_abi_v3_11_26detail5lexerINS0_10basic_jsonINSt3__13mapENS4_6vectorENS4_12basic_stringIcNS4_11char_traitsIcEENS4_9allocatorIcEEEEbxydSA_NS0_14adl_serializerENS6_IhNSA_IhEEEEEENS1_22iterator_input_adapterINS4_11__wrap_iterIPKcEEEEE13get_codepointEv, symObjAddr: 0x14ED4, symBinAddr: 0x1D164, symSize: 0x1AC }
  - { offset: 0xDB707, size: 0x8, addend: 0x0, symName: __ZN8nlohmann16json_abi_v3_11_26detail6parserINS0_10basic_jsonINSt3__13mapENS4_6vectorENS4_12basic_stringIcNS4_11char_traitsIcEENS4_9allocatorIcEEEEbxydSA_NS0_14adl_serializerENS6_IhNSA_IhEEEEEENS1_22iterator_input_adapterINS4_11__wrap_iterIPKcEEEEE18sax_parse_internalINS1_17json_sax_acceptorISG_EEEEbPT_, symObjAddr: 0x152AC, symBinAddr: 0x1D53C, symSize: 0x8E4 }
  - { offset: 0xDCE7B, size: 0x8, addend: 0x0, symName: __ZN8nlohmann16json_abi_v3_11_26detail6parserINS0_10basic_jsonINSt3__13mapENS4_6vectorENS4_12basic_stringIcNS4_11char_traitsIcEENS4_9allocatorIcEEEEbxydSA_NS0_14adl_serializerENS6_IhNSA_IhEEEEEENS1_22iterator_input_adapterINS4_11__wrap_iterIPKcEEEEE17exception_messageENS1_10lexer_baseISG_E10token_typeERKSC_, symObjAddr: 0x15EBC, symBinAddr: 0x1E14C, symSize: 0x3CC }
  - { offset: 0xDE189, size: 0x8, addend: 0x0, symName: __ZN8nlohmann16json_abi_v3_11_26detail11parse_error6createIDnLi0EEES2_iRKNS1_10position_tERKNSt3__112basic_stringIcNS7_11char_traitsIcEENS7_9allocatorIcEEEET_, symObjAddr: 0x15C74, symBinAddr: 0x1DF04, symSize: 0x248 }
  - { offset: 0xDF3F0, size: 0x8, addend: 0x0, symName: __ZNSt3__16vectorIbNS_9allocatorIbEEE7reserveEm, symObjAddr: 0x1653C, symBinAddr: 0x1E7CC, symSize: 0x100 }
  - { offset: 0xDF7DA, size: 0x8, addend: 0x0, symName: __ZNK8nlohmann16json_abi_v3_11_26detail5lexerINS0_10basic_jsonINSt3__13mapENS4_6vectorENS4_12basic_stringIcNS4_11char_traitsIcEENS4_9allocatorIcEEEEbxydSA_NS0_14adl_serializerENS6_IhNSA_IhEEEEEENS1_22iterator_input_adapterINS4_11__wrap_iterIPKcEEEEE16get_token_stringEv, symObjAddr: 0x15B90, symBinAddr: 0x1DE20, symSize: 0xE4 }
  - { offset: 0xDFA63, size: 0x8, addend: 0x0, symName: __ZN8nlohmann16json_abi_v3_11_26detail12out_of_range6createIDnLi0EEES2_iRKNSt3__112basic_stringIcNS4_11char_traitsIcEENS4_9allocatorIcEEEET_, symObjAddr: 0x162B8, symBinAddr: 0x1E548, symSize: 0x1D0 }
  - { offset: 0xE088E, size: 0x8, addend: 0x0, symName: __ZN8nlohmann16json_abi_v3_11_26detail6concatINSt3__112basic_stringIcNS3_11char_traitsIcEENS3_9allocatorIcEEEEJS9_RA12_KcS9_RA3_SA_S9_RKS9_EEET_DpOT0_, symObjAddr: 0x16650, symBinAddr: 0x1E8CC, symSize: 0x190 }
  - { offset: 0xE090F, size: 0x8, addend: 0x0, symName: __ZN8nlohmann16json_abi_v3_11_26detail11parse_error15position_stringERKNS1_10position_tE, symObjAddr: 0x167E0, symBinAddr: 0x1EA5C, symSize: 0xE8 }
  - { offset: 0xE0E00, size: 0x8, addend: 0x0, symName: __ZN8nlohmann16json_abi_v3_11_26detail11parse_errorD1Ev, symObjAddr: 0x16288, symBinAddr: 0x1E518, symSize: 0x30 }
  - { offset: 0xE106E, size: 0x8, addend: 0x0, symName: __ZN8nlohmann16json_abi_v3_11_26detail11parse_errorD0Ev, symObjAddr: 0x169D4, symBinAddr: 0x1EC50, symSize: 0x34 }
  - { offset: 0xE3015, size: 0x8, addend: 0x0, symName: __ZN7facesdk6Logger9setStatusEb, symObjAddr: 0x0, symBinAddr: 0x1F134, symSize: 0x8 }
  - { offset: 0xEB6BD, size: 0x8, addend: 0x0, symName: __ZN7facesdk6Logger9setStatusEb, symObjAddr: 0x0, symBinAddr: 0x1F134, symSize: 0x8 }
  - { offset: 0xF3814, size: 0x8, addend: 0x0, symName: __ZNSt3__125__throw_bad_function_callB8ne180100Ev, symObjAddr: 0x11E4, symBinAddr: 0x1FE54, symSize: 0x34 }
  - { offset: 0xF5F79, size: 0x8, addend: 0x0, symName: __ZN7facesdk12MessageQueueC1Em, symObjAddr: 0xA4, symBinAddr: 0x1F13C, symSize: 0xA4 }
  - { offset: 0xF62F0, size: 0x8, addend: 0x0, symName: __ZN7facesdk12MessageQueue4pushENS_11eFL_MessageE, symObjAddr: 0x148, symBinAddr: 0x1F1E0, symSize: 0xCC }
  - { offset: 0xF6621, size: 0x8, addend: 0x0, symName: __ZNSt3__15dequeIN7facesdk11eFL_MessageENS_9allocatorIS2_EEE19__add_back_capacityEv, symObjAddr: 0x8DC, symBinAddr: 0x1F574, symSize: 0x5BC }
  - { offset: 0xF78B7, size: 0x8, addend: 0x0, symName: __ZN7facesdk12MessageQueue5clearEv, symObjAddr: 0x228, symBinAddr: 0x1F2AC, symSize: 0x74 }
  - { offset: 0xF7DE6, size: 0x8, addend: 0x0, symName: __ZNK7facesdk12MessageQueue17prevailingMessageEv, symObjAddr: 0x4D0, symBinAddr: 0x1F320, symSize: 0x17C }
  - { offset: 0xF8684, size: 0x8, addend: 0x0, symName: __ZNSt3__112__hash_tableINS_17__hash_value_typeIN7facesdk11eFL_MessageEmEENS_22__unordered_map_hasherIS3_S4_NS_4hashIS3_EENS_8equal_toIS3_EELb1EEENS_21__unordered_map_equalIS3_S4_S9_S7_Lb1EEENS_9allocatorIS4_EEE25__emplace_unique_key_argsIS3_JRKNS_21piecewise_construct_tENS_5tupleIJRKS3_EEENSK_IJEEEEEENS_4pairINS_15__hash_iteratorIPNS_11__hash_nodeIS4_PvEEEEbEERKT_DpOT0_, symObjAddr: 0x1230, symBinAddr: 0x1FEA0, symSize: 0x328 }
  - { offset: 0xF8DD8, size: 0x8, addend: 0x0, symName: __ZNSt3__113unordered_mapIN7facesdk11eFL_MessageEmNS_4hashIS2_EENS_8equal_toIS2_EENS_9allocatorINS_4pairIKS2_mEEEEED1B8ne180100Ev, symObjAddr: 0x740, symBinAddr: 0x1F49C, symSize: 0x48 }
  - { offset: 0xF90AD, size: 0x8, addend: 0x0, symName: __ZNK7facesdk12MessageQueue15messageFractionENS_11eFL_MessageE, symObjAddr: 0x788, symBinAddr: 0x1F4E4, symSize: 0x90 }
  - { offset: 0xF90FF, size: 0x8, addend: 0x0, symName: __ZNK7facesdk12MessageQueue15messageFractionENS_11eFL_MessageE, symObjAddr: 0x788, symBinAddr: 0x1F4E4, symSize: 0x90 }
  - { offset: 0xF911C, size: 0x8, addend: 0x0, symName: __ZNK7facesdk12MessageQueue15messageFractionENS_11eFL_MessageE, symObjAddr: 0x788, symBinAddr: 0x1F4E4, symSize: 0x90 }
  - { offset: 0xF9143, size: 0x8, addend: 0x0, symName: __ZNK7facesdk12MessageQueue15messageFractionENS_11eFL_MessageE, symObjAddr: 0x788, symBinAddr: 0x1F4E4, symSize: 0x90 }
  - { offset: 0xF98D5, size: 0x8, addend: 0x0, symName: __ZNSt3__114__split_bufferIPN7facesdk11eFL_MessageENS_9allocatorIS3_EEE9push_backEOS3_, symObjAddr: 0xE98, symBinAddr: 0x1FB30, symSize: 0x18C }
  - { offset: 0xF9D71, size: 0x8, addend: 0x0, symName: __ZNSt3__114__split_bufferIPN7facesdk11eFL_MessageENS_9allocatorIS3_EEE10push_frontEOS3_, symObjAddr: 0x1024, symBinAddr: 0x1FCBC, symSize: 0x198 }
  - { offset: 0xF9D7C, size: 0x8, addend: 0x0, symName: __ZNSt3__114__split_bufferIPN7facesdk11eFL_MessageENS_9allocatorIS3_EEE10push_frontEOS3_, symObjAddr: 0x1024, symBinAddr: 0x1FCBC, symSize: 0x198 }
  - { offset: 0xFA263, size: 0x8, addend: 0x0, symName: __ZNSt3__117bad_function_callD1Ev, symObjAddr: 0x1218, symBinAddr: 0x1FE88, symSize: 0x4 }
  - { offset: 0xFA285, size: 0x8, addend: 0x0, symName: __ZNSt3__117bad_function_callD1Ev, symObjAddr: 0x1218, symBinAddr: 0x1FE88, symSize: 0x4 }
  - { offset: 0xFA2B9, size: 0x8, addend: 0x0, symName: __ZNSt3__117bad_function_callD0Ev, symObjAddr: 0x121C, symBinAddr: 0x1FE8C, symSize: 0x14 }
  - { offset: 0xFA83F, size: 0x8, addend: 0x0, symName: __ZNSt3__112__hash_tableINS_17__hash_value_typeIN7facesdk11eFL_MessageEmEENS_22__unordered_map_hasherIS3_S4_NS_4hashIS3_EENS_8equal_toIS3_EELb1EEENS_21__unordered_map_equalIS3_S4_S9_S7_Lb1EEENS_9allocatorIS4_EEE11__do_rehashILb1EEEvm, symObjAddr: 0x1558, symBinAddr: 0x201C8, symSize: 0x1AC }
  - { offset: 0xFCC11, size: 0x8, addend: 0x0, symName: '+[RGLLivenessCore process:inputData:inputJSON:outputData:outputJSON:]', symObjAddr: 0x0, symBinAddr: 0x20374, symSize: 0xF4 }
  - { offset: 0xFD8C7, size: 0x8, addend: 0x0, symName: '+[RGLLivenessCore process:inputData:inputJSON:outputData:outputJSON:]', symObjAddr: 0x0, symBinAddr: 0x20374, symSize: 0xF4 }
  - { offset: 0xFDAEC, size: 0x8, addend: 0x0, symName: '+[RGLLivenessCore process:inputBufferParams:inputJSON:outputData:outputJSON:]', symObjAddr: 0xF4, symBinAddr: 0x20468, symSize: 0x418 }
  - { offset: 0xFE0A8, size: 0x8, addend: 0x0, symName: '+[RGLLivenessCore addPackage:inputBufferParams:inputJSON:outputData:outputJSON:]', symObjAddr: 0x50C, symBinAddr: 0x20880, symSize: 0x214 }
  - { offset: 0xFE1DA, size: 0x8, addend: 0x0, symName: '+[RGLLivenessCore process:]', symObjAddr: 0x720, symBinAddr: 0x20A94, symSize: 0x2C8 }
  - { offset: 0x10B3FE, size: 0x8, addend: 0x0, symName: __ZN7facesdk8ResourceC1ERKNSt3__112basic_stringIcNS1_11char_traitsIcEENS1_9allocatorIcEEEE, symObjAddr: 0x6C, symBinAddr: 0x20D5C, symSize: 0x6C }
  - { offset: 0x10B718, size: 0x8, addend: 0x0, symName: __ZNK7facesdk8Resource7getFileERKNSt3__112basic_stringIcNS1_11char_traitsIcEENS1_9allocatorIcEEEE, symObjAddr: 0x190, symBinAddr: 0x20DC8, symSize: 0xFC }
  - { offset: 0x10DE0C, size: 0x8, addend: 0x0, symName: __MergedGlobals, symObjAddr: 0x65F5D0, symBinAddr: 0xEA33D0, symSize: 0x0 }
  - { offset: 0x119E10, size: 0x8, addend: 0x0, symName: __ZN5Eigen8internal26call_dense_assignment_loopINS_6MatrixIfLin1ELin1ELi0ELin1ELin1EEENS_13CwiseBinaryOpINS0_13scalar_sum_opIffEEKNS_12ArrayWrapperIKNS_5BlockIKNS_3MapIKNS2_IfLin1ELin1ELi1ELin1ELin1EEELi0ENS_6StrideILi0ELi0EEEEELin1ELin1ELb0EEEEEKNS4_INS0_17scalar_product_opIffEEKNS4_ISL_SJ_KNS_14CwiseNullaryOpINS0_18scalar_constant_opIfEEKNS_5ArrayIfLin1ELin1ELi1ELin1ELin1EEEEEEESJ_EEEENS0_9assign_opIffEEEEvRT_RKT0_RKT1_, symObjAddr: 0x1A734, symBinAddr: 0x36D68, symSize: 0x420 }
  - { offset: 0x11A9CD, size: 0x8, addend: 0x0, symName: __ZN5Eigen8internal26call_dense_assignment_loopINS_6MatrixIfLin1ELin1ELi0ELin1ELin1EEENS_13CwiseBinaryOpINS0_20scalar_difference_opIffEEKNS_12ArrayWrapperIS3_EEKNS4_INS0_18scalar_quotient_opIffEES9_KNS_14CwiseNullaryOpINS0_18scalar_constant_opIfEEKNS_5ArrayIfLin1ELin1ELi0ELin1ELin1EEEEEEEEENS0_9assign_opIffEEEEvRT_RKT0_RKT1_, symObjAddr: 0x1ABE4, symBinAddr: 0x37188, symSize: 0x1BC }
  - { offset: 0x11B3A1, size: 0x8, addend: 0x0, symName: __ZN5Eigen8internal26call_dense_assignment_loopINS_6MatrixIfLin1ELin1ELi0ELin1ELin1EEENS_13CwiseBinaryOpINS0_13scalar_sum_opIffEEKNS_12ArrayWrapperIS3_EES9_EENS0_9assign_opIffEEEEvRT_RKT0_RKT1_, symObjAddr: 0x1ADA0, symBinAddr: 0x37344, symSize: 0x194 }
  - { offset: 0x11CB46, size: 0x8, addend: 0x0, symName: __MergedGlobals, symObjAddr: 0x65F5D0, symBinAddr: 0xEA33D0, symSize: 0x0 }
  - { offset: 0x11CB62, size: 0x8, addend: 0x0, symName: __MergedGlobals, symObjAddr: 0x65F5D0, symBinAddr: 0xEA33D0, symSize: 0x0 }
  - { offset: 0x1794EF, size: 0x8, addend: 0x0, symName: __ZNSt3__119piecewise_constructE, symObjAddr: 0x1EDB6, symBinAddr: 0xDB386E, symSize: 0x0 }
  - { offset: 0x193E2C, size: 0x8, addend: 0x0, symName: __ZNSt3__135__uninitialized_allocator_copy_implB8ne180100INS_9allocatorINS_6vectorIiNS1_IiEEEEEEPKS4_S7_PS4_EET2_RT_T0_T1_S9_, symObjAddr: 0x1496C, symBinAddr: 0x31070, symSize: 0x100 }
  - { offset: 0x19719F, size: 0x8, addend: 0x0, symName: __ZNSt3__113__tree_removeB8ne180100IPNS_16__tree_node_baseIPvEEEEvT_S5_, symObjAddr: 0xE9A0, symBinAddr: 0x2BC94, symSize: 0x3C4 }
  - { offset: 0x199277, size: 0x8, addend: 0x0, symName: __ZNSt3__135__uninitialized_allocator_copy_implB8ne180100INS_9allocatorINS_6vectorIfNS1_IfEEEEEEPKS4_S7_PS4_EET2_RT_T0_T1_S9_, symObjAddr: 0x18DE4, symBinAddr: 0x354AC, symSize: 0x100 }
  - { offset: 0x199928, size: 0x8, addend: 0x0, symName: __ZNSt3__135__uninitialized_allocator_copy_implB8ne180100INS_9allocatorINS_6vectorIiNS1_IiEEEEEEPS4_S6_S6_EET2_RT_T0_T1_S7_, symObjAddr: 0x17334, symBinAddr: 0x33A24, symSize: 0x100 }
  - { offset: 0x19B8D2, size: 0x8, addend: 0x0, symName: __ZNSt3__135__uninitialized_allocator_copy_implB8ne180100INS_9allocatorINS_6vectorIhNS1_IhEEEEEEPKS4_S7_PS4_EET2_RT_T0_T1_S9_, symObjAddr: 0x1C43C, symBinAddr: 0x388B0, symSize: 0xFC }
  - { offset: 0x1A1553, size: 0x8, addend: 0x0, symName: __MergedGlobals, symObjAddr: 0x65F5D0, symBinAddr: 0xEA33D0, symSize: 0x0 }
  - { offset: 0x1A15CF, size: 0x8, addend: 0x0, symName: __MergedGlobals, symObjAddr: 0x65F5D0, symBinAddr: 0xEA33D0, symSize: 0x0 }
  - { offset: 0x1A1646, size: 0x8, addend: 0x0, symName: __MergedGlobals, symObjAddr: 0x65F5D0, symBinAddr: 0xEA33D0, symSize: 0x0 }
  - { offset: 0x1A16B8, size: 0x8, addend: 0x0, symName: __MergedGlobals, symObjAddr: 0x65F5D0, symBinAddr: 0xEA33D0, symSize: 0x0 }
  - { offset: 0x1A23C6, size: 0x8, addend: 0x0, symName: __MergedGlobals, symObjAddr: 0x65F5D0, symBinAddr: 0xEA33D0, symSize: 0x0 }
  - { offset: 0x1A2446, size: 0x8, addend: 0x0, symName: __MergedGlobals, symObjAddr: 0x65F5D0, symBinAddr: 0xEA33D0, symSize: 0x0 }
  - { offset: 0x1A2462, size: 0x8, addend: 0x0, symName: __MergedGlobals, symObjAddr: 0x65F5D0, symBinAddr: 0xEA33D0, symSize: 0x0 }
  - { offset: 0x1A247E, size: 0x8, addend: 0x0, symName: __ZN7facesdkL6loggerE, symObjAddr: 0x65F5C0, symBinAddr: 0xEA33C0, symSize: 0x0 }
  - { offset: 0x1A29BB, size: 0x8, addend: 0x0, symName: __ZN7facesdk7processEiPvPcPS0_PS1_, symObjAddr: 0x1A0, symBinAddr: 0x21064, symSize: 0x150 }
  - { offset: 0x1A2C34, size: 0x8, addend: 0x0, symName: __ZN7facesdk7cmdInitEPKvPKcPPc, symObjAddr: 0x348, symBinAddr: 0x211B4, symSize: 0x53C }
  - { offset: 0x1A3F14, size: 0x8, addend: 0x0, symName: __ZN7facesdk18cmdStartNewSessionEPKcPPc, symObjAddr: 0x89C, symBinAddr: 0x216F0, symSize: 0x4D4 }
  - { offset: 0x1A51D7, size: 0x8, addend: 0x0, symName: __ZN7facesdk10cmdProcessEPvPKcPPc, symObjAddr: 0xD70, symBinAddr: 0x21BC4, symSize: 0x390 }
  - { offset: 0x1A5E57, size: 0x8, addend: 0x0, symName: __ZN7facesdk12freeLivenessEv, symObjAddr: 0x2334, symBinAddr: 0x23128, symSize: 0x148 }
  - { offset: 0x1A6679, size: 0x8, addend: 0x0, symName: __ZN7facesdk19cmdAddDataToPackageEPKvPKc, symObjAddr: 0x1100, symBinAddr: 0x21F54, symSize: 0x190 }
  - { offset: 0x1A6AC7, size: 0x8, addend: 0x0, symName: __ZN7facesdk18cmdFinalizePackageEPPvPPc, symObjAddr: 0x1290, symBinAddr: 0x220E4, symSize: 0x84C }
  - { offset: 0x1AAAEF, size: 0x8, addend: 0x0, symName: __ZN7facesdk11setUpLoggerEPKc, symObjAddr: 0x1B10, symBinAddr: 0x22930, symSize: 0x150 }
  - { offset: 0x1AADC2, size: 0x8, addend: 0x0, symName: __ZN7facesdk12initLivenessEPKhRKN8nlohmann16json_abi_v3_11_210basic_jsonINSt3__13mapENS5_6vectorENS5_12basic_stringIcNS5_11char_traitsIcEENS5_9allocatorIcEEEEbxydSB_NS3_14adl_serializerENS7_IhNSB_IhEEEEEE, symObjAddr: 0x1F24, symBinAddr: 0x22D18, symSize: 0xF0 }
  - { offset: 0x1AB459, size: 0x8, addend: 0x0, symName: __ZN7facesdk15LivenessProcessERKN2cv3MatERKN8nlohmann16json_abi_v3_11_210basic_jsonINSt3__13mapENS7_6vectorENS7_12basic_stringIcNS7_11char_traitsIcEENS7_9allocatorIcEEEEbxydSD_NS5_14adl_serializerENS9_IhNSD_IhEEEEEE, symObjAddr: 0x28F8, symBinAddr: 0x23270, symSize: 0x7E0 }
  - { offset: 0x1AD14D, size: 0x8, addend: 0x0, symName: __ZN7facesdk12initResourceEPKhRKN8nlohmann16json_abi_v3_11_210basic_jsonINSt3__13mapENS5_6vectorENS5_12basic_stringIcNS5_11char_traitsIcEENS5_9allocatorIcEEEEbxydSB_NS3_14adl_serializerENS7_IhNSB_IhEEEEEE, symObjAddr: 0x3724, symBinAddr: 0x24098, symSize: 0x2BC }
  - { offset: 0x1AE448, size: 0x8, addend: 0x0, symName: __ZN7facesdk16initFaceDetectorEv, symObjAddr: 0x39E0, symBinAddr: 0x24354, symSize: 0x984 }
  - { offset: 0x1B3969, size: 0x8, addend: 0x0, symName: __ZN7facesdk21initOcclusionDetectorEv, symObjAddr: 0x4364, symBinAddr: 0x24CD8, symSize: 0x448 }
  - { offset: 0x1B6246, size: 0x8, addend: 0x0, symName: __ZN7facesdk23initEyeLandmarkDetectorEv, symObjAddr: 0x47AC, symBinAddr: 0x25120, symSize: 0x574 }
  - { offset: 0x1B968C, size: 0x8, addend: 0x0, symName: __ZN7facesdk18detectEyeLandmarksERKN2cv3MatERKNS0_5Rect_IiEERNSt3__16vectorINS0_6Point_IiEENS8_9allocatorISB_EEEE, symObjAddr: 0x5114, symBinAddr: 0x257EC, symSize: 0x10C }
  - { offset: 0x1B97D9, size: 0x8, addend: 0x0, symName: __ZN7facesdk15createOrtRunnerERKNSt3__112basic_stringIcNS0_11char_traitsIcEENS0_9allocatorIcEEEERKN9inference21InferenceRunnerParamsE, symObjAddr: 0x34A4, symBinAddr: 0x23E18, symSize: 0x280 }
  - { offset: 0x1C0FD2, size: 0x8, addend: 0x0, symName: __ZN8nlohmann16json_abi_v3_11_26detail9dtoa_impl6grisu2IdEEvPcRiS5_T_, symObjAddr: 0x13A28, symBinAddr: 0x307B4, symSize: 0x1F0 }
  - { offset: 0x1C1662, size: 0x8, addend: 0x0, symName: __ZN8nlohmann16json_abi_v3_11_26detail9dtoa_impl16grisu2_digit_genEPcRiS4_NS2_5diyfpES5_S5_, symObjAddr: 0x13C18, symBinAddr: 0x309A4, symSize: 0x2E0 }
  - { offset: 0x1C5149, size: 0x8, addend: 0x0, symName: __ZN8nlohmann16json_abi_v3_11_26detail6concatINSt3__112basic_stringIcNS3_11char_traitsIcEENS3_9allocatorIcEEEEJRA24_KcS9_EEET_DpOT0_, symObjAddr: 0xDD00, symBinAddr: 0x2B33C, symSize: 0xA0 }
  - { offset: 0x1C549A, size: 0x8, addend: 0x0, symName: __ZN8nlohmann16json_abi_v3_11_26detail6concatINSt3__112basic_stringIcNS3_11char_traitsIcEENS3_9allocatorIcEEEEJRA23_KcS9_EEET_DpOT0_, symObjAddr: 0xEF04, symBinAddr: 0x2C1F8, symSize: 0xA0 }
  - { offset: 0x1C65CA, size: 0x8, addend: 0x0, symName: __ZN8nlohmann16json_abi_v3_11_26detail8to_charsIdEEPcS3_PKcT_, symObjAddr: 0x137BC, symBinAddr: 0x30548, symSize: 0x26C }
  - { offset: 0x1C66F6, size: 0x8, addend: 0x0, symName: __ZN8nlohmann16json_abi_v3_11_26detail6concatINSt3__112basic_stringIcNS3_11char_traitsIcEENS3_9allocatorIcEEEEJRA29_KcS9_RA5_SA_S9_EEET_DpOT0_, symObjAddr: 0x13610, symBinAddr: 0x3039C, symSize: 0x10C }
  - { offset: 0x1C6BFA, size: 0x8, addend: 0x0, symName: __ZN8nlohmann16json_abi_v3_11_26detail6concatINSt3__112basic_stringIcNS3_11char_traitsIcEENS3_9allocatorIcEEEEJRA39_KcS9_EEET_DpOT0_, symObjAddr: 0x1371C, symBinAddr: 0x304A8, symSize: 0xA0 }
  - { offset: 0x1C7366, size: 0x8, addend: 0x0, symName: __ZN8nlohmann16json_abi_v3_11_26detail6concatINSt3__112basic_stringIcNS3_11char_traitsIcEENS3_9allocatorIcEEEEJRA6_KcRKS9_RA12_SA_EEET_DpOT0_, symObjAddr: 0x14698, symBinAddr: 0x30EB4, symSize: 0xC8 }
  - { offset: 0x1CA197, size: 0x8, addend: 0x0, symName: __ZN3Ort6GlobalIvE4api_E, symObjAddr: 0x22A78, symBinAddr: 0xE98E30, symSize: 0x0 }
  - { offset: 0x1CDFB7, size: 0x8, addend: 0x0, symName: __ZN3Ort12ThrowOnErrorEP9OrtStatus, symObjAddr: 0x19A6C, symBinAddr: 0x360C8, symSize: 0x13C }
  - { offset: 0x1D16E5, size: 0x8, addend: 0x0, symName: __ZN8nlohmann16json_abi_v3_11_26detail10serializerINS0_10basic_jsonINSt3__13mapENS4_6vectorENS4_12basic_stringIcNS4_11char_traitsIcEENS4_9allocatorIcEEEEbxydSA_NS0_14adl_serializerENS6_IhNSA_IhEEEEEEE12dump_integerIxLi0EEEvT_, symObjAddr: 0x133C4, symBinAddr: 0x30150, symSize: 0x24C }
  - { offset: 0x1D170A, size: 0x8, addend: 0x0, symName: __ZZN8nlohmann16json_abi_v3_11_26detail10serializerINS0_10basic_jsonINSt3__13mapENS4_6vectorENS4_12basic_stringIcNS4_11char_traitsIcEENS4_9allocatorIcEEEEbxydSA_NS0_14adl_serializerENS6_IhNSA_IhEEEEEEE12dump_integerIxLi0EEEvT_E12digits_to_99, symObjAddr: 0x1F26C, symBinAddr: 0xDB3CF4, symSize: 0x0 }
  - { offset: 0x1D535A, size: 0x8, addend: 0x0, symName: __ZN5Eigen8internal21dense_assignment_loopINS0_31generic_dense_assignment_kernelINS0_9evaluatorINS_5BlockINS_6MatrixIfLin1ELin1ELi0ELin1ELin1EEELin1ELin1ELb0EEEEENS3_IS6_EENS0_9assign_opIffEELi0EEELi4ELi0EE3runERSC_, symObjAddr: 0x1AF34, symBinAddr: 0x374D8, symSize: 0x3D0 }
  - { offset: 0x1D5409, size: 0x8, addend: 0x0, symName: __ZN5Eigen8internal21dense_assignment_loopINS0_31generic_dense_assignment_kernelINS0_9evaluatorINS_5BlockINS_6MatrixIfLin1ELin1ELi0ELin1ELin1EEELin1ELin1ELb0EEEEENS3_IS6_EENS0_9assign_opIffEELi0EEELi4ELi0EE3runERSC_, symObjAddr: 0x1AF34, symBinAddr: 0x374D8, symSize: 0x3D0 }
  - { offset: 0x1D6653, size: 0x8, addend: 0x0, symName: __ZN9inference7convertIfEEvRKNSt3__16vectorIN2cv3MatENS1_9allocatorIS4_EEEERNS2_IT_NS5_ISA_EEEEb, symObjAddr: 0x17540, symBinAddr: 0x33C30, symSize: 0x678 }
  - { offset: 0x1D7B3B, size: 0x8, addend: 0x0, symName: __ZN9inference7convertIhEEvRKNSt3__16vectorIN2cv3MatENS1_9allocatorIS4_EEEERNS2_IT_NS5_ISA_EEEEb, symObjAddr: 0x1BC90, symBinAddr: 0x38178, symSize: 0x68C }
  - { offset: 0x1DCB94, size: 0x8, addend: 0x0, symName: __ZNSt3__110unique_ptrIN7facesdk12FaceDetectorENS_14default_deleteIS2_EEED1B8ne180100Ev, symObjAddr: 0x0, symBinAddr: 0x20EC4, symSize: 0x38 }
  - { offset: 0x1DCCA9, size: 0x8, addend: 0x0, symName: __ZNSt3__110unique_ptrIN7facesdk14ClassifierBaseENS_14default_deleteIS2_EEED1B8ne180100Ev, symObjAddr: 0x38, symBinAddr: 0x20EFC, symSize: 0x38 }
  - { offset: 0x1DCDBE, size: 0x8, addend: 0x0, symName: __ZNSt3__110unique_ptrIN7facesdk23EyeLandmarkDetectorBaseENS_14default_deleteIS2_EEED1B8ne180100Ev, symObjAddr: 0x70, symBinAddr: 0x20F34, symSize: 0x38 }
  - { offset: 0x1DCEEF, size: 0x8, addend: 0x0, symName: __ZNSt3__110unique_ptrIN7facesdk15LivenessSessionENS_14default_deleteIS2_EEED1B8ne180100Ev, symObjAddr: 0xA8, symBinAddr: 0x20F6C, symSize: 0x34 }
  - { offset: 0x1DCFAF, size: 0x8, addend: 0x0, symName: __ZN7facesdk15LivenessSessionD2Ev, symObjAddr: 0x6EBC, symBinAddr: 0x26064, symSize: 0x178 }
  - { offset: 0x1DE539, size: 0x8, addend: 0x0, symName: __ZNSt3__110unique_ptrIN7facesdk8ResourceENS_14default_deleteIS2_EEED1B8ne180100Ev, symObjAddr: 0xDC, symBinAddr: 0x20FA0, symSize: 0x94 }
  - { offset: 0x1DEA6A, size: 0x8, addend: 0x0, symName: __ZNSt3__16vectorIhNS_9allocatorIhEEED1B8ne180100Ev, symObjAddr: 0x170, symBinAddr: 0x21034, symSize: 0x30 }
  - { offset: 0x1DECA8, size: 0x8, addend: 0x0, symName: __ZN7facesdk7processEiPvPcPS0_PS1_.cold.1, symObjAddr: 0x1E5CC, symBinAddr: 0xC442E8, symSize: 0x1C }
  - { offset: 0x1DF9F6, size: 0x8, addend: 0x0, symName: __ZN8nlohmann16json_abi_v3_11_210basic_jsonINSt3__13mapENS2_6vectorENS2_12basic_stringIcNS2_11char_traitsIcEENS2_9allocatorIcEEEEbxydS8_NS0_14adl_serializerENS4_IhNS8_IhEEEEE5parseIRPKcEESE_OT_NS2_8functionIFbiNS0_6detail13parse_event_tERSE_EEEbb, symObjAddr: 0x1C60, symBinAddr: 0x22A80, symSize: 0x298 }
  - { offset: 0x1E1498, size: 0x8, addend: 0x0, symName: __ZN8nlohmann16json_abi_v3_11_26detail20external_constructorILNS1_7value_tE3EE9constructINS0_10basic_jsonINSt3__13mapENS7_6vectorENS7_12basic_stringIcNS7_11char_traitsIcEENS7_9allocatorIcEEEEbxydSD_NS0_14adl_serializerENS9_IhNSD_IhEEEEEEA9_cLi0EEEvRT_RKT0_, symObjAddr: 0x119E8, symBinAddr: 0x2E844, symSize: 0xEC }
  - { offset: 0x1E1AA9, size: 0x8, addend: 0x0, symName: __ZN8nlohmann16json_abi_v3_11_26detail20external_constructorILNS1_7value_tE3EE9constructINS0_10basic_jsonINSt3__13mapENS7_6vectorENS7_12basic_stringIcNS7_11char_traitsIcEENS7_9allocatorIcEEEEbxydSD_NS0_14adl_serializerENS9_IhNSD_IhEEEEEEA6_cLi0EEEvRT_RKT0_, symObjAddr: 0x11AD4, symBinAddr: 0x2E930, symSize: 0xEC }
  - { offset: 0x1E20BA, size: 0x8, addend: 0x0, symName: __ZN8nlohmann16json_abi_v3_11_26detail20external_constructorILNS1_7value_tE3EE9constructINS0_10basic_jsonINSt3__13mapENS7_6vectorENS7_12basic_stringIcNS7_11char_traitsIcEENS7_9allocatorIcEEEEbxydSD_NS0_14adl_serializerENS9_IhNSD_IhEEEEEEA12_cLi0EEEvRT_RKT0_, symObjAddr: 0x11BC0, symBinAddr: 0x2EA1C, symSize: 0xEC }
  - { offset: 0x1E26CB, size: 0x8, addend: 0x0, symName: __ZNK8nlohmann16json_abi_v3_11_210basic_jsonINSt3__13mapENS2_6vectorENS2_12basic_stringIcNS2_11char_traitsIcEENS2_9allocatorIcEEEEbxydS8_NS0_14adl_serializerENS4_IhNS8_IhEEEEE4dumpEicbNS0_6detail15error_handler_tE, symObjAddr: 0x2040, symBinAddr: 0x22E34, symSize: 0x2F4 }
  - { offset: 0x1E3340, size: 0x8, addend: 0x0, symName: __ZN8nlohmann16json_abi_v3_11_26detail8json_refINS0_10basic_jsonINSt3__13mapENS4_6vectorENS4_12basic_stringIcNS4_11char_traitsIcEENS4_9allocatorIcEEEEbxydSA_NS0_14adl_serializerENS6_IhNSA_IhEEEEEEED1Ev, symObjAddr: 0x2014, symBinAddr: 0x22E08, symSize: 0x2C }
  - { offset: 0x1E4657, size: 0x8, addend: 0x0, symName: __ZNK8nlohmann16json_abi_v3_11_210basic_jsonINSt3__13mapENS2_6vectorENS2_12basic_stringIcNS2_11char_traitsIcEENS2_9allocatorIcEEEEbxydS8_NS0_14adl_serializerENS4_IhNS8_IhEEEEE2atERKSA_, symObjAddr: 0x14214, symBinAddr: 0x30C84, symSize: 0x230 }
  - { offset: 0x1E5EFD, size: 0x8, addend: 0x0, symName: __ZN13EncryptionKeyIL7KeyType0EE10FromStringERKNSt3__112basic_stringIcNS2_11char_traitsIcEENS2_9allocatorIcEEEE, symObjAddr: 0x30D8, symBinAddr: 0x23A50, symSize: 0x304 }
  - { offset: 0x1E6E39, size: 0x8, addend: 0x0, symName: __ZN12SharedSecretD1Ev, symObjAddr: 0x33DC, symBinAddr: 0x23D54, symSize: 0x40 }
  - { offset: 0x1E70D7, size: 0x8, addend: 0x0, symName: __ZN8Security15DoubleEncryptorD1Ev, symObjAddr: 0x341C, symBinAddr: 0x23D94, symSize: 0x84 }
  - { offset: 0x1E7DD7, size: 0x8, addend: 0x0, symName: __ZN8nlohmann16json_abi_v3_11_26detail6parserINS0_10basic_jsonINSt3__13mapENS4_6vectorENS4_12basic_stringIcNS4_11char_traitsIcEENS4_9allocatorIcEEEEbxydSA_NS0_14adl_serializerENS6_IhNSA_IhEEEEEENS1_22iterator_input_adapterIPKcEEEC2EOSK_NS4_8functionIFbiNS1_13parse_event_tERSG_EEEbb, symObjAddr: 0x865C, symBinAddr: 0x26A24, symSize: 0x134 }
  - { offset: 0x1E8012, size: 0x8, addend: 0x0, symName: __ZN8nlohmann16json_abi_v3_11_26detail6parserINS0_10basic_jsonINSt3__13mapENS4_6vectorENS4_12basic_stringIcNS4_11char_traitsIcEENS4_9allocatorIcEEEEbxydSA_NS0_14adl_serializerENS6_IhNSA_IhEEEEEENS1_22iterator_input_adapterIPKcEEE5parseEbRSG_, symObjAddr: 0x7E94, symBinAddr: 0x262D4, symSize: 0x750 }
  - { offset: 0x1EA961, size: 0x8, addend: 0x0, symName: __ZN8nlohmann16json_abi_v3_11_26detail10serializerINS0_10basic_jsonINSt3__13mapENS4_6vectorENS4_12basic_stringIcNS4_11char_traitsIcEENS4_9allocatorIcEEEEbxydSA_NS0_14adl_serializerENS6_IhNSA_IhEEEEEEE4dumpERKSG_bbjj, symObjAddr: 0x11D7C, symBinAddr: 0x2EB08, symSize: 0x1024 }
  - { offset: 0x1EC7B2, size: 0x8, addend: 0x0, symName: __ZN8nlohmann16json_abi_v3_11_26detail10serializerINS0_10basic_jsonINSt3__13mapENS4_6vectorENS4_12basic_stringIcNS4_11char_traitsIcEENS4_9allocatorIcEEEEbxydSA_NS0_14adl_serializerENS6_IhNSA_IhEEEEEEED1Ev, symObjAddr: 0x12DA0, symBinAddr: 0x2FB2C, symSize: 0x80 }
  - { offset: 0x1EC998, size: 0x8, addend: 0x0, symName: __ZNK8nlohmann16json_abi_v3_11_210basic_jsonINSt3__13mapENS2_6vectorENS2_12basic_stringIcNS2_11char_traitsIcEENS2_9allocatorIcEEEEbxydS8_NS0_14adl_serializerENS4_IhNS8_IhEEEEE4dumpEicbNS0_6detail15error_handler_tE.cold.1, symObjAddr: 0x1E5E8, symBinAddr: 0xC44304, symSize: 0x2C }
  - { offset: 0x1EE00F, size: 0x8, addend: 0x0, symName: __ZN7facesdk15LivenessProcessERKN2cv3MatERKN8nlohmann16json_abi_v3_11_210basic_jsonINSt3__13mapENS7_6vectorENS7_12basic_stringIcNS7_11char_traitsIcEENS7_9allocatorIcEEEEbxydSD_NS5_14adl_serializerENS9_IhNSD_IhEEEEEE, symObjAddr: 0x28F8, symBinAddr: 0x23270, symSize: 0x7E0 }
  - { offset: 0x1EED9D, size: 0x8, addend: 0x0, symName: __ZNK8nlohmann16json_abi_v3_11_210basic_jsonINSt3__13mapENS2_6vectorENS2_12basic_stringIcNS2_11char_traitsIcEENS2_9allocatorIcEEEEbxydS8_NS0_14adl_serializerENS4_IhNS8_IhEEEEE2atIRKPKcLi0EEERKSE_OT_, symObjAddr: 0x52D8, symBinAddr: 0x259B0, symSize: 0x1F0 }
  - { offset: 0x1EF8AA, size: 0x8, addend: 0x0, symName: __ZNK8nlohmann16json_abi_v3_11_210basic_jsonINSt3__13mapENS2_6vectorENS2_12basic_stringIcNS2_11char_traitsIcEENS2_9allocatorIcEEEEbxydS8_NS0_14adl_serializerENS4_IhNS8_IhEEEEE5valueIfRA6_KcfLi0EEET1_OT0_OT_, symObjAddr: 0x56BC, symBinAddr: 0x25BA0, symSize: 0x1F4 }
  - { offset: 0x1EFFE3, size: 0x8, addend: 0x0, symName: __ZNK8nlohmann16json_abi_v3_11_210basic_jsonINSt3__13mapENS2_6vectorENS2_12basic_stringIcNS2_11char_traitsIcEENS2_9allocatorIcEEEEbxydS8_NS0_14adl_serializerENS4_IhNS8_IhEEEEE5valueIfRA5_KcfLi0EEET1_OT0_OT_, symObjAddr: 0x58B0, symBinAddr: 0x25D94, symSize: 0x1F4 }
  - { offset: 0x1F0F53, size: 0x8, addend: 0x0, symName: __ZNK8nlohmann16json_abi_v3_11_210basic_jsonINSt3__13mapENS2_6vectorENS2_12basic_stringIcNS2_11char_traitsIcEENS2_9allocatorIcEEEEbxydS8_NS0_14adl_serializerENS4_IhNS8_IhEEEEE8containsIRKPKcLi0EEEbOT_, symObjAddr: 0x5220, symBinAddr: 0x258F8, symSize: 0xB8 }
  - { offset: 0x1F11C5, size: 0x8, addend: 0x0, symName: __ZNSt3__16vectorIN7facesdk5LFaceENS_9allocatorIS2_EEE24__emplace_back_slow_pathIJEEEPS2_DpOT_, symObjAddr: 0x1DF1C, symBinAddr: 0x39708, symSize: 0x20C }
  - { offset: 0x1F38C4, size: 0x8, addend: 0x0, symName: __ZN9inference21InferenceRunnerParams11inout_paramIxEC2ERKNSt3__112basic_stringIcNS3_11char_traitsIcEENS3_9allocatorIcEEEERKNS3_6vectorIxNS7_IxEEEE, symObjAddr: 0x14864, symBinAddr: 0x30F7C, symSize: 0xF4 }
  - { offset: 0x1F3DE3, size: 0x8, addend: 0x0, symName: __ZN7facesdk18FaceDetectorRetinaIN9inference18InferenceRunnerORTEEC2ERKNS_18FaceDetectorParamsENSt3__110unique_ptrINS1_15InferenceRunnerIS2_EENS7_14default_deleteISA_EEEERKNS_12PriorsConfigE, symObjAddr: 0x14AEC, symBinAddr: 0x311DC, symSize: 0x190 }
  - { offset: 0x1F47F1, size: 0x8, addend: 0x0, symName: __ZN7facesdk12PriorsConfigD1Ev, symObjAddr: 0x4FE0, symBinAddr: 0x25758, symSize: 0x94 }
  - { offset: 0x1F4D13, size: 0x8, addend: 0x0, symName: __ZNSt3__16vectorINS0_IiNS_9allocatorIiEEEENS1_IS3_EEED1B8ne180100Ev, symObjAddr: 0x4F6C, symBinAddr: 0x256E4, symSize: 0x74 }
  - { offset: 0x1F4FAD, size: 0x8, addend: 0x0, symName: __ZN7facesdk16initFaceDetectorEv.cold.1, symObjAddr: 0x1E614, symBinAddr: 0xC44330, symSize: 0x40 }
  - { offset: 0x1F50F6, size: 0x8, addend: 0x0, symName: __ZN9inference21InferenceRunnerParamsD2Ev, symObjAddr: 0x6250, symBinAddr: 0x25F8C, symSize: 0xD8 }
  - { offset: 0x1F5900, size: 0x8, addend: 0x0, symName: __ZN9inference21InferenceRunnerParams11inout_paramIxED1Ev, symObjAddr: 0x4F1C, symBinAddr: 0x25694, symSize: 0x50 }
  - { offset: 0x1F5ED5, size: 0x8, addend: 0x0, symName: __ZN7facesdk21initOcclusionDetectorEv.cold.1, symObjAddr: 0x1E654, symBinAddr: 0xC44370, symSize: 0x40 }
  - { offset: 0x1F7CCA, size: 0x8, addend: 0x0, symName: _process, symObjAddr: 0x5B8C, symBinAddr: 0x25F88, symSize: 0x4 }
  - { offset: 0x1F7D34, size: 0x8, addend: 0x0, symName: _process, symObjAddr: 0x5B8C, symBinAddr: 0x25F88, symSize: 0x4 }
  - { offset: 0x1FBA11, size: 0x8, addend: 0x0, symName: __ZN8nlohmann16json_abi_v3_11_210basic_jsonINSt3__13mapENS2_6vectorENS2_12basic_stringIcNS2_11char_traitsIcEENS2_9allocatorIcEEEEbxydS8_NS0_14adl_serializerENS4_IhNS8_IhEEEEE10json_valueC2ENS0_6detail7value_tE, symObjAddr: 0x77F8, symBinAddr: 0x261DC, symSize: 0xF8 }
  - { offset: 0x1FCEFE, size: 0x8, addend: 0x0, symName: __ZN8nlohmann16json_abi_v3_11_26detail6parserINS0_10basic_jsonINSt3__13mapENS4_6vectorENS4_12basic_stringIcNS4_11char_traitsIcEENS4_9allocatorIcEEEEbxydSA_NS0_14adl_serializerENS6_IhNSA_IhEEEEEENS1_22iterator_input_adapterIPKcEEE18sax_parse_internalINS1_19json_sax_dom_parserISG_EEEEbPT_, symObjAddr: 0xB918, symBinAddr: 0x294EC, symSize: 0xC74 }
  - { offset: 0x1FEDB8, size: 0x8, addend: 0x0, symName: __ZN8nlohmann16json_abi_v3_11_26detail5lexerINS0_10basic_jsonINSt3__13mapENS4_6vectorENS4_12basic_stringIcNS4_11char_traitsIcEENS4_9allocatorIcEEEEbxydSA_NS0_14adl_serializerENS6_IhNSA_IhEEEEEENS1_22iterator_input_adapterIPKcEEE4scanEv, symObjAddr: 0x87DC, symBinAddr: 0x26B58, symSize: 0x28C }
  - { offset: 0x1FF0E8, size: 0x8, addend: 0x0, symName: __ZN8nlohmann16json_abi_v3_11_26detail28json_sax_dom_callback_parserINS0_10basic_jsonINSt3__13mapENS4_6vectorENS4_12basic_stringIcNS4_11char_traitsIcEENS4_9allocatorIcEEEEbxydSA_NS0_14adl_serializerENS6_IhNSA_IhEEEEEEEC2ERSG_NS4_8functionIFbiNS1_13parse_event_tESI_EEEb, symObjAddr: 0xC5E0, symBinAddr: 0x2A1B4, symSize: 0x1C4 }
  - { offset: 0x1FF6BB, size: 0x8, addend: 0x0, symName: __ZN8nlohmann16json_abi_v3_11_26detail6parserINS0_10basic_jsonINSt3__13mapENS4_6vectorENS4_12basic_stringIcNS4_11char_traitsIcEENS4_9allocatorIcEEEEbxydSA_NS0_14adl_serializerENS6_IhNSA_IhEEEEEENS1_22iterator_input_adapterIPKcEEE18sax_parse_internalINS1_28json_sax_dom_callback_parserISG_EEEEbPT_, symObjAddr: 0xA538, symBinAddr: 0x28384, symSize: 0xC64 }
  - { offset: 0x2014FF, size: 0x8, addend: 0x0, symName: __ZN8nlohmann16json_abi_v3_11_26detail6parserINS0_10basic_jsonINSt3__13mapENS4_6vectorENS4_12basic_stringIcNS4_11char_traitsIcEENS4_9allocatorIcEEEEbxydSA_NS0_14adl_serializerENS6_IhNSA_IhEEEEEENS1_22iterator_input_adapterIPKcEEE17exception_messageENS1_10lexer_baseISG_E10token_typeERKSC_, symObjAddr: 0xB51C, symBinAddr: 0x29120, symSize: 0x3CC }
  - { offset: 0x20320C, size: 0x8, addend: 0x0, symName: __ZN8nlohmann16json_abi_v3_11_26detail28json_sax_dom_callback_parserINS0_10basic_jsonINSt3__13mapENS4_6vectorENS4_12basic_stringIcNS4_11char_traitsIcEENS4_9allocatorIcEEEEbxydSA_NS0_14adl_serializerENS6_IhNSA_IhEEEEEEED2Ev, symObjAddr: 0x1018C, symBinAddr: 0x2CFE8, symSize: 0x88 }
  - { offset: 0x203B71, size: 0x8, addend: 0x0, symName: __ZN8nlohmann16json_abi_v3_11_26detail5lexerINS0_10basic_jsonINSt3__13mapENS4_6vectorENS4_12basic_stringIcNS4_11char_traitsIcEENS4_9allocatorIcEEEEbxydSA_NS0_14adl_serializerENS6_IhNSA_IhEEEEEENS1_22iterator_input_adapterIPKcEEE15skip_whitespaceEv, symObjAddr: 0x8A68, symBinAddr: 0x26DE4, symSize: 0x26C }
  - { offset: 0x2040A6, size: 0x8, addend: 0x0, symName: __ZN8nlohmann16json_abi_v3_11_26detail5lexerINS0_10basic_jsonINSt3__13mapENS4_6vectorENS4_12basic_stringIcNS4_11char_traitsIcEENS4_9allocatorIcEEEEbxydSA_NS0_14adl_serializerENS6_IhNSA_IhEEEEEENS1_22iterator_input_adapterIPKcEEE11scan_numberEv, symObjAddr: 0x9B2C, symBinAddr: 0x27D88, symSize: 0x5FC }
  - { offset: 0x204E3B, size: 0x8, addend: 0x0, symName: __ZN8nlohmann16json_abi_v3_11_26detail5lexerINS0_10basic_jsonINSt3__13mapENS4_6vectorENS4_12basic_stringIcNS4_11char_traitsIcEENS4_9allocatorIcEEEEbxydSA_NS0_14adl_serializerENS6_IhNSA_IhEEEEEENS1_22iterator_input_adapterIPKcEEE11scan_stringEv, symObjAddr: 0x8DF4, symBinAddr: 0x27050, symSize: 0xD38 }
  - { offset: 0x206C62, size: 0x8, addend: 0x0, symName: __ZN8nlohmann16json_abi_v3_11_26detail28json_sax_dom_callback_parserINS0_10basic_jsonINSt3__13mapENS4_6vectorENS4_12basic_stringIcNS4_11char_traitsIcEENS4_9allocatorIcEEEEbxydSA_NS0_14adl_serializerENS6_IhNSA_IhEEEEEEE12handle_valueIRbEENS4_4pairIbPSG_EEOT_b, symObjAddr: 0xF204, symBinAddr: 0x2C4F8, symSize: 0x214 }
  - { offset: 0x20735E, size: 0x8, addend: 0x0, symName: __ZN8nlohmann16json_abi_v3_11_26detail28json_sax_dom_callback_parserINS0_10basic_jsonINSt3__13mapENS4_6vectorENS4_12basic_stringIcNS4_11char_traitsIcEENS4_9allocatorIcEEEEbxydSA_NS0_14adl_serializerENS6_IhNSA_IhEEEEEEE11start_arrayEm, symObjAddr: 0xD0B4, symBinAddr: 0x2AB74, symSize: 0x364 }
  - { offset: 0x207B98, size: 0x8, addend: 0x0, symName: __ZN8nlohmann16json_abi_v3_11_26detail28json_sax_dom_callback_parserINS0_10basic_jsonINSt3__13mapENS4_6vectorENS4_12basic_stringIcNS4_11char_traitsIcEENS4_9allocatorIcEEEEbxydSA_NS0_14adl_serializerENS6_IhNSA_IhEEEEEEE9end_arrayEv, symObjAddr: 0xD418, symBinAddr: 0x2AED8, symSize: 0x168 }
  - { offset: 0x207F90, size: 0x8, addend: 0x0, symName: __ZN8nlohmann16json_abi_v3_11_26detail28json_sax_dom_callback_parserINS0_10basic_jsonINSt3__13mapENS4_6vectorENS4_12basic_stringIcNS4_11char_traitsIcEENS4_9allocatorIcEEEEbxydSA_NS0_14adl_serializerENS6_IhNSA_IhEEEEEEE12handle_valueIRxEENS4_4pairIbPSG_EEOT_b, symObjAddr: 0xF624, symBinAddr: 0x2C918, symSize: 0x210 }
  - { offset: 0x2086A0, size: 0x8, addend: 0x0, symName: __ZN8nlohmann16json_abi_v3_11_26detail28json_sax_dom_callback_parserINS0_10basic_jsonINSt3__13mapENS4_6vectorENS4_12basic_stringIcNS4_11char_traitsIcEENS4_9allocatorIcEEEEbxydSA_NS0_14adl_serializerENS6_IhNSA_IhEEEEEEE12handle_valueIDnEENS4_4pairIbPSG_EEOT_b, symObjAddr: 0xF418, symBinAddr: 0x2C70C, symSize: 0x20C }
  - { offset: 0x208D6E, size: 0x8, addend: 0x0, symName: __ZN8nlohmann16json_abi_v3_11_26detail28json_sax_dom_callback_parserINS0_10basic_jsonINSt3__13mapENS4_6vectorENS4_12basic_stringIcNS4_11char_traitsIcEENS4_9allocatorIcEEEEbxydSA_NS0_14adl_serializerENS6_IhNSA_IhEEEEEEE12start_objectEm, symObjAddr: 0xC8B8, symBinAddr: 0x2A378, symSize: 0x360 }
  - { offset: 0x2095A8, size: 0x8, addend: 0x0, symName: __ZN8nlohmann16json_abi_v3_11_26detail28json_sax_dom_callback_parserINS0_10basic_jsonINSt3__13mapENS4_6vectorENS4_12basic_stringIcNS4_11char_traitsIcEENS4_9allocatorIcEEEEbxydSA_NS0_14adl_serializerENS6_IhNSA_IhEEEEEEE10end_objectEv, symObjAddr: 0xCC18, symBinAddr: 0x2A6D8, symSize: 0x28C }
  - { offset: 0x209E0E, size: 0x8, addend: 0x0, symName: __ZN8nlohmann16json_abi_v3_11_26detail28json_sax_dom_callback_parserINS0_10basic_jsonINSt3__13mapENS4_6vectorENS4_12basic_stringIcNS4_11char_traitsIcEENS4_9allocatorIcEEEEbxydSA_NS0_14adl_serializerENS6_IhNSA_IhEEEEEEE12handle_valueIRSC_EENS4_4pairIbPSG_EEOT_b, symObjAddr: 0xF834, symBinAddr: 0x2CB28, symSize: 0x254 }
  - { offset: 0x20A7C6, size: 0x8, addend: 0x0, symName: __ZN8nlohmann16json_abi_v3_11_26detail28json_sax_dom_callback_parserINS0_10basic_jsonINSt3__13mapENS4_6vectorENS4_12basic_stringIcNS4_11char_traitsIcEENS4_9allocatorIcEEEEbxydSA_NS0_14adl_serializerENS6_IhNSA_IhEEEEEEE12handle_valueIRdEENS4_4pairIbPSG_EEOT_b, symObjAddr: 0xEFF0, symBinAddr: 0x2C2E4, symSize: 0x214 }
  - { offset: 0x20AED8, size: 0x8, addend: 0x0, symName: __ZN8nlohmann16json_abi_v3_11_26detail28json_sax_dom_callback_parserINS0_10basic_jsonINSt3__13mapENS4_6vectorENS4_12basic_stringIcNS4_11char_traitsIcEENS4_9allocatorIcEEEEbxydSA_NS0_14adl_serializerENS6_IhNSA_IhEEEEEEE12handle_valueIRyEENS4_4pairIbPSG_EEOT_b, symObjAddr: 0xFA88, symBinAddr: 0x2CD7C, symSize: 0x214 }
  - { offset: 0x20B5E2, size: 0x8, addend: 0x0, symName: __ZN8nlohmann16json_abi_v3_11_26detail28json_sax_dom_callback_parserINS0_10basic_jsonINSt3__13mapENS4_6vectorENS4_12basic_stringIcNS4_11char_traitsIcEENS4_9allocatorIcEEEEbxydSA_NS0_14adl_serializerENS6_IhNSA_IhEEEEEEE3keyERSC_, symObjAddr: 0xCEA4, symBinAddr: 0x2A964, symSize: 0x210 }
  - { offset: 0x20BF3F, size: 0x8, addend: 0x0, symName: __ZNK8nlohmann16json_abi_v3_11_26detail5lexerINS0_10basic_jsonINSt3__13mapENS4_6vectorENS4_12basic_stringIcNS4_11char_traitsIcEENS4_9allocatorIcEEEEbxydSA_NS0_14adl_serializerENS6_IhNSA_IhEEEEEENS1_22iterator_input_adapterIPKcEEE16get_token_stringEv, symObjAddr: 0xB1F0, symBinAddr: 0x2903C, symSize: 0xE4 }
  - { offset: 0x20C1C8, size: 0x8, addend: 0x0, symName: __ZN8nlohmann16json_abi_v3_11_26detail28json_sax_dom_callback_parserINS0_10basic_jsonINSt3__13mapENS4_6vectorENS4_12basic_stringIcNS4_11char_traitsIcEENS4_9allocatorIcEEEEbxydSA_NS0_14adl_serializerENS6_IhNSA_IhEEEEEEE11parse_errorINS1_11parse_errorEEEbmRKSC_RKT_, symObjAddr: 0xB19C, symBinAddr: 0x28FE8, symSize: 0x54 }
  - { offset: 0x20CA9C, size: 0x8, addend: 0x0, symName: __ZN8nlohmann16json_abi_v3_11_26detail28json_sax_dom_callback_parserINS0_10basic_jsonINSt3__13mapENS4_6vectorENS4_12basic_stringIcNS4_11char_traitsIcEENS4_9allocatorIcEEEEbxydSA_NS0_14adl_serializerENS6_IhNSA_IhEEEEEEE11parse_errorINS1_12out_of_rangeEEEbmRKSC_RKT_, symObjAddr: 0xD580, symBinAddr: 0x2B040, symSize: 0x54 }
  - { offset: 0x20CB22, size: 0x8, addend: 0x0, symName: __ZN8nlohmann16json_abi_v3_11_26detail28json_sax_dom_callback_parserINS0_10basic_jsonINSt3__13mapENS4_6vectorENS4_12basic_stringIcNS4_11char_traitsIcEENS4_9allocatorIcEEEEbxydSA_NS0_14adl_serializerENS6_IhNSA_IhEEEEEEE12start_objectEm, symObjAddr: 0xC8B8, symBinAddr: 0x2A378, symSize: 0x360 }
  - { offset: 0x20CB2D, size: 0x8, addend: 0x0, symName: __ZN8nlohmann16json_abi_v3_11_26detail11parse_errorC1ERKS2_, symObjAddr: 0xFC9C, symBinAddr: 0x2CF90, symSize: 0x58 }
  - { offset: 0x20D08E, size: 0x8, addend: 0x0, symName: __ZN8nlohmann16json_abi_v3_11_26detail19json_sax_dom_parserINS0_10basic_jsonINSt3__13mapENS4_6vectorENS4_12basic_stringIcNS4_11char_traitsIcEENS4_9allocatorIcEEEEbxydSA_NS0_14adl_serializerENS6_IhNSA_IhEEEEEEE12handle_valueIRbEEPSG_OT_, symObjAddr: 0x10D70, symBinAddr: 0x2DBCC, symSize: 0x11C }
  - { offset: 0x20D568, size: 0x8, addend: 0x0, symName: __ZN8nlohmann16json_abi_v3_11_26detail19json_sax_dom_parserINS0_10basic_jsonINSt3__13mapENS4_6vectorENS4_12basic_stringIcNS4_11char_traitsIcEENS4_9allocatorIcEEEEbxydSA_NS0_14adl_serializerENS6_IhNSA_IhEEEEEEE11start_arrayEm, symObjAddr: 0x104B0, symBinAddr: 0x2D30C, symSize: 0x29C }
  - { offset: 0x20DC12, size: 0x8, addend: 0x0, symName: __ZN8nlohmann16json_abi_v3_11_26detail19json_sax_dom_parserINS0_10basic_jsonINSt3__13mapENS4_6vectorENS4_12basic_stringIcNS4_11char_traitsIcEENS4_9allocatorIcEEEEbxydSA_NS0_14adl_serializerENS6_IhNSA_IhEEEEEEE12handle_valueIRxEEPSG_OT_, symObjAddr: 0x111A0, symBinAddr: 0x2DFFC, symSize: 0x11C }
  - { offset: 0x20E0FA, size: 0x8, addend: 0x0, symName: __ZN8nlohmann16json_abi_v3_11_26detail19json_sax_dom_parserINS0_10basic_jsonINSt3__13mapENS4_6vectorENS4_12basic_stringIcNS4_11char_traitsIcEENS4_9allocatorIcEEEEbxydSA_NS0_14adl_serializerENS6_IhNSA_IhEEEEEEE12handle_valueIDnEEPSG_OT_, symObjAddr: 0x10F9C, symBinAddr: 0x2DDF8, symSize: 0x100 }
  - { offset: 0x20E55B, size: 0x8, addend: 0x0, symName: __ZN8nlohmann16json_abi_v3_11_26detail19json_sax_dom_parserINS0_10basic_jsonINSt3__13mapENS4_6vectorENS4_12basic_stringIcNS4_11char_traitsIcEENS4_9allocatorIcEEEEbxydSA_NS0_14adl_serializerENS6_IhNSA_IhEEEEEEE12start_objectEm, symObjAddr: 0x10214, symBinAddr: 0x2D070, symSize: 0x29C }
  - { offset: 0x20EC02, size: 0x8, addend: 0x0, symName: __ZN8nlohmann16json_abi_v3_11_26detail19json_sax_dom_parserINS0_10basic_jsonINSt3__13mapENS4_6vectorENS4_12basic_stringIcNS4_11char_traitsIcEENS4_9allocatorIcEEEEbxydSA_NS0_14adl_serializerENS6_IhNSA_IhEEEEEEE12handle_valueIRSC_EEPSG_OT_, symObjAddr: 0x113CC, symBinAddr: 0x2E228, symSize: 0x220 }
  - { offset: 0x20F8C8, size: 0x8, addend: 0x0, symName: __ZN8nlohmann16json_abi_v3_11_26detail19json_sax_dom_parserINS0_10basic_jsonINSt3__13mapENS4_6vectorENS4_12basic_stringIcNS4_11char_traitsIcEENS4_9allocatorIcEEEEbxydSA_NS0_14adl_serializerENS6_IhNSA_IhEEEEEEE12handle_valueIRdEEPSG_OT_, symObjAddr: 0x10B44, symBinAddr: 0x2D9A0, symSize: 0x11C }
  - { offset: 0x20FDB2, size: 0x8, addend: 0x0, symName: __ZN8nlohmann16json_abi_v3_11_26detail19json_sax_dom_parserINS0_10basic_jsonINSt3__13mapENS4_6vectorENS4_12basic_stringIcNS4_11char_traitsIcEENS4_9allocatorIcEEEEbxydSA_NS0_14adl_serializerENS6_IhNSA_IhEEEEEEE12handle_valueIRyEEPSG_OT_, symObjAddr: 0x117BC, symBinAddr: 0x2E618, symSize: 0x11C }
  - { offset: 0x2102AC, size: 0x8, addend: 0x0, symName: __ZNSt3__16__treeINS_12__value_typeINS_12basic_stringIcNS_11char_traitsIcEENS_9allocatorIcEEEEN8nlohmann16json_abi_v3_11_210basic_jsonINS_3mapENS_6vectorES7_bxydS5_NS9_14adl_serializerENSC_IhNS5_IhEEEEEEEENS_19__map_value_compareIS7_SH_NS_4lessIvEELb1EEENS5_ISH_EEE25__emplace_unique_key_argsIS7_JRKNS_21piecewise_construct_tENS_5tupleIJRKS7_EEENSS_IJEEEEEENS_4pairINS_15__tree_iteratorISH_PNS_11__tree_nodeISH_PvEElEEbEERKT_DpOT0_, symObjAddr: 0xED64, symBinAddr: 0x2C058, symSize: 0x1A0 }
  - { offset: 0x210A49, size: 0x8, addend: 0x0, symName: __ZN8nlohmann16json_abi_v3_11_26detail19json_sax_dom_parserINS0_10basic_jsonINSt3__13mapENS4_6vectorENS4_12basic_stringIcNS4_11char_traitsIcEENS4_9allocatorIcEEEEbxydSA_NS0_14adl_serializerENS6_IhNSA_IhEEEEEEE11parse_errorINS1_11parse_errorEEEbmRKSC_RKT_, symObjAddr: 0xC58C, symBinAddr: 0x2A160, symSize: 0x54 }
  - { offset: 0x210A9A, size: 0x8, addend: 0x0, symName: __ZN8nlohmann16json_abi_v3_11_26detail19json_sax_dom_parserINS0_10basic_jsonINSt3__13mapENS4_6vectorENS4_12basic_stringIcNS4_11char_traitsIcEENS4_9allocatorIcEEEEbxydSA_NS0_14adl_serializerENS6_IhNSA_IhEEEEEEE11parse_errorINS1_12out_of_rangeEEEbmRKSC_RKT_, symObjAddr: 0x1074C, symBinAddr: 0x2D5A8, symSize: 0x54 }
  - { offset: 0x2110CC, size: 0x8, addend: 0x0, symName: __ZN8nlohmann16json_abi_v3_11_26detail28json_sax_dom_callback_parserINS0_10basic_jsonINSt3__13mapENS4_6vectorENS4_12basic_stringIcNS4_11char_traitsIcEENS4_9allocatorIcEEEEbxydSA_NS0_14adl_serializerENS6_IhNSA_IhEEEEEEE12handle_valueINS1_7value_tEEENS4_4pairIbPSG_EEOT_b, symObjAddr: 0xD888, symBinAddr: 0x2B094, symSize: 0x2A8 }
  - { offset: 0x212748, size: 0x8, addend: 0x0, symName: __ZNK8nlohmann16json_abi_v3_11_26detail9iter_implINS0_10basic_jsonINSt3__13mapENS4_6vectorENS4_12basic_stringIcNS4_11char_traitsIcEENS4_9allocatorIcEEEEbxydSA_NS0_14adl_serializerENS6_IhNSA_IhEEEEEEEeqISH_LDn0EEEbRKT_, symObjAddr: 0xE368, symBinAddr: 0x2B910, symSize: 0x108 }
  - { offset: 0x21299C, size: 0x8, addend: 0x0, symName: __ZNK8nlohmann16json_abi_v3_11_26detail9iter_implINS0_10basic_jsonINSt3__13mapENS4_6vectorENS4_12basic_stringIcNS4_11char_traitsIcEENS4_9allocatorIcEEEEbxydSA_NS0_14adl_serializerENS6_IhNSA_IhEEEEEEEptEv, symObjAddr: 0xDF48, symBinAddr: 0x2B4F0, symSize: 0x100 }
  - { offset: 0x212BB7, size: 0x8, addend: 0x0, symName: __ZN8nlohmann16json_abi_v3_11_210basic_jsonINSt3__13mapENS2_6vectorENS2_12basic_stringIcNS2_11char_traitsIcEENS2_9allocatorIcEEEEbxydS8_NS0_14adl_serializerENS4_IhNS8_IhEEEEE5eraseINS0_6detail9iter_implISE_EELi0EEET_SJ_, symObjAddr: 0xE048, symBinAddr: 0x2B5F0, symSize: 0x320 }
  - { offset: 0x21367E, size: 0x8, addend: 0x0, symName: __ZN8nlohmann16json_abi_v3_11_26detail12out_of_rangeC1ERKS2_, symObjAddr: 0xEFA4, symBinAddr: 0x2C298, symSize: 0x4C }
  - { offset: 0x213874, size: 0x8, addend: 0x0, symName: __ZNSt3__16vectorIN8nlohmann16json_abi_v3_11_210basic_jsonINS_3mapES0_NS_12basic_stringIcNS_11char_traitsIcEENS_9allocatorIcEEEEbxydS8_NS2_14adl_serializerENS0_IhNS8_IhEEEEEENS8_ISE_EEE24__emplace_back_slow_pathIJSE_EEEPSE_DpOT_, symObjAddr: 0xDDEC, symBinAddr: 0x2B3DC, symSize: 0x114 }
  - { offset: 0x213E50, size: 0x8, addend: 0x0, symName: __ZN8nlohmann16json_abi_v3_11_26detail16invalid_iterator6createIPNS0_10basic_jsonINSt3__13mapENS5_6vectorENS5_12basic_stringIcNS5_11char_traitsIcEENS5_9allocatorIcEEEEbxydSB_NS0_14adl_serializerENS7_IhNSB_IhEEEEEELi0EEES2_iRKSD_T_, symObjAddr: 0xE470, symBinAddr: 0x2BA18, symSize: 0x1C4 }
  - { offset: 0x214D55, size: 0x8, addend: 0x0, symName: __ZNSt3__16__treeINS_12__value_typeINS_12basic_stringIcNS_11char_traitsIcEENS_9allocatorIcEEEEN8nlohmann16json_abi_v3_11_210basic_jsonINS_3mapENS_6vectorES7_bxydS5_NS9_14adl_serializerENSC_IhNS5_IhEEEEEEEENS_19__map_value_compareIS7_SH_NS_4lessIvEELb1EEENS5_ISH_EEE5eraseENS_21__tree_const_iteratorISH_PNS_11__tree_nodeISH_PvEElEE, symObjAddr: 0xE8E8, symBinAddr: 0x2BBDC, symSize: 0xB8 }
  - { offset: 0x215917, size: 0x8, addend: 0x0, symName: __ZN8nlohmann16json_abi_v3_11_26detail19json_sax_dom_parserINS0_10basic_jsonINSt3__13mapENS4_6vectorENS4_12basic_stringIcNS4_11char_traitsIcEENS4_9allocatorIcEEEEbxydSA_NS0_14adl_serializerENS6_IhNSA_IhEEEEEEE12handle_valueINS1_7value_tEEEPSG_OT_, symObjAddr: 0x107A0, symBinAddr: 0x2D5FC, symSize: 0x24C }
  - { offset: 0x216889, size: 0x8, addend: 0x0, symName: __ZNSt3__16vectorIN8nlohmann16json_abi_v3_11_210basic_jsonINS_3mapES0_NS_12basic_stringIcNS_11char_traitsIcEENS_9allocatorIcEEEEbxydS8_NS2_14adl_serializerENS0_IhNS8_IhEEEEEENS8_ISE_EEE24__emplace_back_slow_pathIJNS2_6detail7value_tEEEEPSE_DpOT_, symObjAddr: 0x109EC, symBinAddr: 0x2D848, symSize: 0x158 }
  - { offset: 0x217039, size: 0x8, addend: 0x0, symName: __ZNSt3__16vectorIN8nlohmann16json_abi_v3_11_210basic_jsonINS_3mapES0_NS_12basic_stringIcNS_11char_traitsIcEENS_9allocatorIcEEEEbxydS8_NS2_14adl_serializerENS0_IhNS8_IhEEEEEENS8_ISE_EEE24__emplace_back_slow_pathIJRdEEEPSE_DpOT_, symObjAddr: 0x10C60, symBinAddr: 0x2DABC, symSize: 0x110 }
  - { offset: 0x2176C8, size: 0x8, addend: 0x0, symName: __ZNSt3__16vectorIN8nlohmann16json_abi_v3_11_210basic_jsonINS_3mapES0_NS_12basic_stringIcNS_11char_traitsIcEENS_9allocatorIcEEEEbxydS8_NS2_14adl_serializerENS0_IhNS8_IhEEEEEENS8_ISE_EEE24__emplace_back_slow_pathIJRbEEEPSE_DpOT_, symObjAddr: 0x10E8C, symBinAddr: 0x2DCE8, symSize: 0x110 }
  - { offset: 0x217D47, size: 0x8, addend: 0x0, symName: __ZNSt3__16vectorIN8nlohmann16json_abi_v3_11_210basic_jsonINS_3mapES0_NS_12basic_stringIcNS_11char_traitsIcEENS_9allocatorIcEEEEbxydS8_NS2_14adl_serializerENS0_IhNS8_IhEEEEEENS8_ISE_EEE24__emplace_back_slow_pathIJDnEEEPSE_DpOT_, symObjAddr: 0x1109C, symBinAddr: 0x2DEF8, symSize: 0x104 }
  - { offset: 0x2183A2, size: 0x8, addend: 0x0, symName: __ZNSt3__16vectorIN8nlohmann16json_abi_v3_11_210basic_jsonINS_3mapES0_NS_12basic_stringIcNS_11char_traitsIcEENS_9allocatorIcEEEEbxydS8_NS2_14adl_serializerENS0_IhNS8_IhEEEEEENS8_ISE_EEE24__emplace_back_slow_pathIJRxEEEPSE_DpOT_, symObjAddr: 0x112BC, symBinAddr: 0x2E118, symSize: 0x110 }
  - { offset: 0x218A2F, size: 0x8, addend: 0x0, symName: __ZNSt3__16vectorIN8nlohmann16json_abi_v3_11_210basic_jsonINS_3mapES0_NS_12basic_stringIcNS_11char_traitsIcEENS_9allocatorIcEEEEbxydS8_NS2_14adl_serializerENS0_IhNS8_IhEEEEEENS8_ISE_EEE24__emplace_back_slow_pathIJRSA_EEEPSE_DpOT_, symObjAddr: 0x115EC, symBinAddr: 0x2E448, symSize: 0x1D0 }
  - { offset: 0x219445, size: 0x8, addend: 0x0, symName: __ZNSt3__16vectorIN8nlohmann16json_abi_v3_11_210basic_jsonINS_3mapES0_NS_12basic_stringIcNS_11char_traitsIcEENS_9allocatorIcEEEEbxydS8_NS2_14adl_serializerENS0_IhNS8_IhEEEEEENS8_ISE_EEE24__emplace_back_slow_pathIJRyEEEPSE_DpOT_, symObjAddr: 0x118D8, symBinAddr: 0x2E734, symSize: 0x110 }
  - { offset: 0x21A424, size: 0x8, addend: 0x0, symName: __ZN8nlohmann16json_abi_v3_11_26detail10serializerINS0_10basic_jsonINSt3__13mapENS4_6vectorENS4_12basic_stringIcNS4_11char_traitsIcEENS4_9allocatorIcEEEEbxydSA_NS0_14adl_serializerENS6_IhNSA_IhEEEEEEE12dump_escapedERKSC_b, symObjAddr: 0x12E78, symBinAddr: 0x2FC04, symSize: 0x54C }
  - { offset: 0x21AE86, size: 0x8, addend: 0x0, symName: __ZNSt3__120__shared_ptr_emplaceIN8nlohmann16json_abi_v3_11_26detail21output_string_adapterIcNS_12basic_stringIcNS_11char_traitsIcEENS_9allocatorIcEEEEEENS8_ISB_EEED1Ev, symObjAddr: 0x12E20, symBinAddr: 0x2FBAC, symSize: 0x10 }
  - { offset: 0x21AEA8, size: 0x8, addend: 0x0, symName: __ZNSt3__120__shared_ptr_emplaceIN8nlohmann16json_abi_v3_11_26detail21output_string_adapterIcNS_12basic_stringIcNS_11char_traitsIcEENS_9allocatorIcEEEEEENS8_ISB_EEED1Ev, symObjAddr: 0x12E20, symBinAddr: 0x2FBAC, symSize: 0x10 }
  - { offset: 0x21AEDE, size: 0x8, addend: 0x0, symName: __ZNSt3__120__shared_ptr_emplaceIN8nlohmann16json_abi_v3_11_26detail21output_string_adapterIcNS_12basic_stringIcNS_11char_traitsIcEENS_9allocatorIcEEEEEENS8_ISB_EEED0Ev, symObjAddr: 0x12E30, symBinAddr: 0x2FBBC, symSize: 0x20 }
  - { offset: 0x21AFCA, size: 0x8, addend: 0x0, symName: __ZNSt3__120__shared_ptr_emplaceIN8nlohmann16json_abi_v3_11_26detail21output_string_adapterIcNS_12basic_stringIcNS_11char_traitsIcEENS_9allocatorIcEEEEEENS8_ISB_EEE16__on_zero_sharedEv, symObjAddr: 0x12E50, symBinAddr: 0x2FBDC, symSize: 0xC }
  - { offset: 0x21AFF3, size: 0x8, addend: 0x0, symName: __ZNSt3__120__shared_ptr_emplaceIN8nlohmann16json_abi_v3_11_26detail21output_string_adapterIcNS_12basic_stringIcNS_11char_traitsIcEENS_9allocatorIcEEEEEENS8_ISB_EEE16__on_zero_sharedEv, symObjAddr: 0x12E50, symBinAddr: 0x2FBDC, symSize: 0xC }
  - { offset: 0x21B011, size: 0x8, addend: 0x0, symName: __ZNSt3__120__shared_ptr_emplaceIN8nlohmann16json_abi_v3_11_26detail21output_string_adapterIcNS_12basic_stringIcNS_11char_traitsIcEENS_9allocatorIcEEEEEENS8_ISB_EEE16__on_zero_sharedEv, symObjAddr: 0x12E50, symBinAddr: 0x2FBDC, symSize: 0xC }
  - { offset: 0x21B02F, size: 0x8, addend: 0x0, symName: __ZNSt3__120__shared_ptr_emplaceIN8nlohmann16json_abi_v3_11_26detail21output_string_adapterIcNS_12basic_stringIcNS_11char_traitsIcEENS_9allocatorIcEEEEEENS8_ISB_EEE16__on_zero_sharedEv, symObjAddr: 0x12E50, symBinAddr: 0x2FBDC, symSize: 0xC }
  - { offset: 0x21B0B2, size: 0x8, addend: 0x0, symName: __ZNSt3__120__shared_ptr_emplaceIN8nlohmann16json_abi_v3_11_26detail21output_string_adapterIcNS_12basic_stringIcNS_11char_traitsIcEENS_9allocatorIcEEEEEENS8_ISB_EEE21__on_zero_shared_weakEv, symObjAddr: 0x12E5C, symBinAddr: 0x2FBE8, symSize: 0x4 }
  - { offset: 0x21B0E5, size: 0x8, addend: 0x0, symName: __ZNSt3__120__shared_ptr_emplaceIN8nlohmann16json_abi_v3_11_26detail21output_string_adapterIcNS_12basic_stringIcNS_11char_traitsIcEENS_9allocatorIcEEEEEENS8_ISB_EEE21__on_zero_shared_weakEv, symObjAddr: 0x12E5C, symBinAddr: 0x2FBE8, symSize: 0x4 }
  - { offset: 0x21B107, size: 0x8, addend: 0x0, symName: __ZNSt3__120__shared_ptr_emplaceIN8nlohmann16json_abi_v3_11_26detail21output_string_adapterIcNS_12basic_stringIcNS_11char_traitsIcEENS_9allocatorIcEEEEEENS8_ISB_EEE21__on_zero_shared_weakEv, symObjAddr: 0x12E5C, symBinAddr: 0x2FBE8, symSize: 0x4 }
  - { offset: 0x21B129, size: 0x8, addend: 0x0, symName: __ZNSt3__120__shared_ptr_emplaceIN8nlohmann16json_abi_v3_11_26detail21output_string_adapterIcNS_12basic_stringIcNS_11char_traitsIcEENS_9allocatorIcEEEEEENS8_ISB_EEE21__on_zero_shared_weakEv, symObjAddr: 0x12E5C, symBinAddr: 0x2FBE8, symSize: 0x4 }
  - { offset: 0x21B155, size: 0x8, addend: 0x0, symName: __ZNSt3__120__shared_ptr_emplaceIN8nlohmann16json_abi_v3_11_26detail21output_string_adapterIcNS_12basic_stringIcNS_11char_traitsIcEENS_9allocatorIcEEEEEENS8_ISB_EEE21__on_zero_shared_weakEv, symObjAddr: 0x12E5C, symBinAddr: 0x2FBE8, symSize: 0x4 }
  - { offset: 0x21B17C, size: 0x8, addend: 0x0, symName: __ZNSt3__120__shared_ptr_emplaceIN8nlohmann16json_abi_v3_11_26detail21output_string_adapterIcNS_12basic_stringIcNS_11char_traitsIcEENS_9allocatorIcEEEEEENS8_ISB_EEE21__on_zero_shared_weakEv, symObjAddr: 0x12E5C, symBinAddr: 0x2FBE8, symSize: 0x4 }
  - { offset: 0x21B1A7, size: 0x8, addend: 0x0, symName: __ZN8nlohmann16json_abi_v3_11_26detail21output_string_adapterIcNSt3__112basic_stringIcNS3_11char_traitsIcEENS3_9allocatorIcEEEEE15write_characterEc, symObjAddr: 0x12E60, symBinAddr: 0x2FBEC, symSize: 0x8 }
  - { offset: 0x21B1DC, size: 0x8, addend: 0x0, symName: __ZN8nlohmann16json_abi_v3_11_26detail21output_string_adapterIcNSt3__112basic_stringIcNS3_11char_traitsIcEENS3_9allocatorIcEEEEE16write_charactersEPKcm, symObjAddr: 0x12E68, symBinAddr: 0x2FBF4, symSize: 0x8 }
  - { offset: 0x21B21F, size: 0x8, addend: 0x0, symName: __ZN8nlohmann16json_abi_v3_11_26detail21output_string_adapterIcNSt3__112basic_stringIcNS3_11char_traitsIcEENS3_9allocatorIcEEEEED1Ev, symObjAddr: 0x12E70, symBinAddr: 0x2FBFC, symSize: 0x4 }
  - { offset: 0x21B24A, size: 0x8, addend: 0x0, symName: __ZN8nlohmann16json_abi_v3_11_26detail21output_string_adapterIcNSt3__112basic_stringIcNS3_11char_traitsIcEENS3_9allocatorIcEEEEED0Ev, symObjAddr: 0x12E74, symBinAddr: 0x2FC00, symSize: 0x4 }
  - { offset: 0x21BC06, size: 0x8, addend: 0x0, symName: __ZN9inference21InferenceRunnerParams11inout_paramIxEC2ERKNSt3__112basic_stringIcNS3_11char_traitsIcEENS3_9allocatorIcEEEERKNS3_6vectorIxNS7_IxEEEE, symObjAddr: 0x14864, symBinAddr: 0x30F7C, symSize: 0xF4 }
  - { offset: 0x21BE06, size: 0x8, addend: 0x0, symName: __ZN9inference21InferenceRunnerParams11inout_paramIxEC2ERKNSt3__112basic_stringIcNS3_11char_traitsIcEENS3_9allocatorIcEEEERKNS3_6vectorIxNS7_IxEEEE.cold.1, symObjAddr: 0x1E694, symBinAddr: 0xC443B0, symSize: 0x14 }
  - { offset: 0x21BE21, size: 0x8, addend: 0x0, symName: __ZN9inference21InferenceRunnerParams11inout_paramIxEC2ERKNSt3__112basic_stringIcNS3_11char_traitsIcEENS3_9allocatorIcEEEERKNS3_6vectorIxNS7_IxEEEE.cold.1, symObjAddr: 0x1E694, symBinAddr: 0xC443B0, symSize: 0x14 }
  - { offset: 0x21BE35, size: 0x8, addend: 0x0, symName: __ZN9inference21InferenceRunnerParams11inout_paramIxEC2ERKNSt3__112basic_stringIcNS3_11char_traitsIcEENS3_9allocatorIcEEEERKNS3_6vectorIxNS7_IxEEEE.cold.1, symObjAddr: 0x1E694, symBinAddr: 0xC443B0, symSize: 0x14 }
  - { offset: 0x21BE4A, size: 0x8, addend: 0x0, symName: __ZN9inference21InferenceRunnerParams11inout_paramIxEC2ERKNSt3__112basic_stringIcNS3_11char_traitsIcEENS3_9allocatorIcEEEERKNS3_6vectorIxNS7_IxEEEE.cold.1, symObjAddr: 0x1E694, symBinAddr: 0xC443B0, symSize: 0x14 }
  - { offset: 0x21BF22, size: 0x8, addend: 0x0, symName: __ZNSt3__135__uninitialized_allocator_copy_implB8ne180100INS_9allocatorINS_6vectorIiNS1_IiEEEEEEPKS4_S7_PS4_EET2_RT_T0_T1_S9_, symObjAddr: 0x1496C, symBinAddr: 0x31070, symSize: 0x100 }
  - { offset: 0x21C1D7, size: 0x8, addend: 0x0, symName: __ZNSt3__128__exception_guard_exceptionsINS_29_AllocatorDestroyRangeReverseINS_9allocatorINS_6vectorIiNS2_IiEEEEEEPS5_EEED1B8ne180100Ev, symObjAddr: 0x14A6C, symBinAddr: 0x31170, symSize: 0x6C }
  - { offset: 0x21C407, size: 0x8, addend: 0x0, symName: __ZN7facesdk18FaceDetectorRetinaIN9inference18InferenceRunnerORTEEC2ERKNS_18FaceDetectorParamsENSt3__110unique_ptrINS1_15InferenceRunnerIS2_EENS7_14default_deleteISA_EEEERKNS_12PriorsConfigE, symObjAddr: 0x14AEC, symBinAddr: 0x311DC, symSize: 0x190 }
  - { offset: 0x21C67D, size: 0x8, addend: 0x0, symName: __ZN7facesdk12PriorsConfigC2ERKS0_, symObjAddr: 0x1712C, symBinAddr: 0x3381C, symSize: 0x134 }
  - { offset: 0x21FFE3, size: 0x8, addend: 0x0, symName: __ZNK7facesdk18FaceDetectorRetinaIN9inference18InferenceRunnerORTEE6detectERKN2cv3MatERNSt3__16vectorINS4_5Rect_IiEENS8_9allocatorISB_EEEERNS9_INS9_INS4_6Point_IiEENSC_ISH_EEEENSC_ISJ_EEEERNS9_INS9_IfNSC_IfEEEENSC_ISO_EEEE, symObjAddr: 0x14C7C, symBinAddr: 0x3136C, symSize: 0x2320 }
  - { offset: 0x2290EC, size: 0x8, addend: 0x0, symName: __ZNSt3__16vectorIN2cv3MatENS_9allocatorIS2_EEEC1B8ne180100ESt16initializer_listIS2_E, symObjAddr: 0x17434, symBinAddr: 0x33B24, symSize: 0x10C }
  - { offset: 0x22955F, size: 0x8, addend: 0x0, symName: __ZN9inference15InferenceRunnerINS_18InferenceRunnerORTEE3runIffEEbmRKNSt3__16vectorINS5_IT_NS4_9allocatorIS6_EEEENS7_IS9_EEEERNS5_INS5_IT0_NS7_ISE_EEEENS7_ISG_EEEE, symObjAddr: 0x17BB8, symBinAddr: 0x342A8, symSize: 0xAC }
  - { offset: 0x229978, size: 0x8, addend: 0x0, symName: __ZN5Eigen15PlainObjectBaseINS_6MatrixIfLin1ELi1ELi0ELin1ELi1EEEE6resizeEll, symObjAddr: 0x1A604, symBinAddr: 0x36C38, symSize: 0xA0 }
  - { offset: 0x229B0F, size: 0x8, addend: 0x0, symName: __ZN5Eigen12DenseStorageIfLin1ELin1ELin1ELi1EE6resizeElll, symObjAddr: 0x1A6A4, symBinAddr: 0x36CD8, symSize: 0x90 }
  - { offset: 0x229C59, size: 0x8, addend: 0x0, symName: __ZNK7facesdk18FaceDetectorRetinaIN9inference18InferenceRunnerORTEE14decodeLocationERKNSt3__16vectorIfNS4_9allocatorIfEEEERN5Eigen6MatrixIfLin1ELin1ELi0ELin1ELin1EEE, symObjAddr: 0x17C64, symBinAddr: 0x34354, symSize: 0x5B0 }
  - { offset: 0x22C19D, size: 0x8, addend: 0x0, symName: __ZNSt3__16vectorIN2cv5Rect_IdEENS_9allocatorIS3_EEE12emplace_backIJS3_EEERS3_DpOT_, symObjAddr: 0x18214, symBinAddr: 0x34904, symSize: 0x1B8 }
  - { offset: 0x22C65B, size: 0x8, addend: 0x0, symName: __ZNSt3__16vectorIN2cv5Rect_IiEENS_9allocatorIS3_EEE9push_backB8ne180100ERKS3_, symObjAddr: 0x183CC, symBinAddr: 0x34ABC, symSize: 0x19C }
  - { offset: 0x22C6AC, size: 0x8, addend: 0x0, symName: __ZNSt3__16vectorIN2cv5Rect_IiEENS_9allocatorIS3_EEE9push_backB8ne180100ERKS3_, symObjAddr: 0x183CC, symBinAddr: 0x34ABC, symSize: 0x19C }
  - { offset: 0x22CBB5, size: 0x8, addend: 0x0, symName: __ZNK7facesdk18FaceDetectorRetinaIN9inference18InferenceRunnerORTEE15decodeLandmarksERKNSt3__16vectorIfNS4_9allocatorIfEEEERN5Eigen6MatrixIfLin1ELin1ELi0ELin1ELin1EEE, symObjAddr: 0x18568, symBinAddr: 0x34C58, symSize: 0x578 }
  - { offset: 0x22CBC0, size: 0x8, addend: 0x0, symName: __ZNK7facesdk18FaceDetectorRetinaIN9inference18InferenceRunnerORTEE15decodeLandmarksERKNSt3__16vectorIfNS4_9allocatorIfEEEERN5Eigen6MatrixIfLin1ELin1ELi0ELin1ELin1EEE, symObjAddr: 0x18568, symBinAddr: 0x34C58, symSize: 0x578 }
  - { offset: 0x22D2A8, size: 0x8, addend: 0x0, symName: __ZNSt3__16vectorINS0_IN2cv6Point_IiEENS_9allocatorIS3_EEEENS4_IS6_EEE21__push_back_slow_pathIRKS6_EEPS6_OT_, symObjAddr: 0x1B340, symBinAddr: 0x378A8, symSize: 0x2B0 }
  - { offset: 0x22DCD4, size: 0x8, addend: 0x0, symName: __ZNSt3__16vectorINS0_IfNS_9allocatorIfEEEENS1_IS3_EEE21__push_back_slow_pathIRKS3_EEPS3_OT_, symObjAddr: 0x1B670, symBinAddr: 0x37B58, symSize: 0x20C }
  - { offset: 0x22E76B, size: 0x8, addend: 0x0, symName: __ZNSt3__16vectorINS0_IN2cv6Point_IiEENS_9allocatorIS3_EEEENS4_IS6_EEE21__push_back_slow_pathIRKS6_EEPS6_OT_, symObjAddr: 0x1B340, symBinAddr: 0x378A8, symSize: 0x2B0 }
  - { offset: 0x22E81E, size: 0x8, addend: 0x0, symName: __ZNSt3__16vectorIN2cv3MatENS_9allocatorIS2_EEED1B8ne180100Ev, symObjAddr: 0x18AE0, symBinAddr: 0x351D0, symSize: 0x58 }
  - { offset: 0x22E9B1, size: 0x8, addend: 0x0, symName: __ZN7facesdk18FaceDetectorRetinaIN9inference18InferenceRunnerORTEED1Ev, symObjAddr: 0x16F9C, symBinAddr: 0x3368C, symSize: 0xC8 }
  - { offset: 0x22F0FC, size: 0x8, addend: 0x0, symName: __ZN7facesdk18FaceDetectorRetinaIN9inference18InferenceRunnerORTEED0Ev, symObjAddr: 0x17064, symBinAddr: 0x33754, symSize: 0xC8 }
  - { offset: 0x22F87A, size: 0x8, addend: 0x0, symName: __ZNSt3__16vectorINS0_IiNS_9allocatorIiEEEENS1_IS3_EEEC2ERKS5_, symObjAddr: 0x17260, symBinAddr: 0x33950, symSize: 0xD4 }
  - { offset: 0x22FC11, size: 0x8, addend: 0x0, symName: __ZNSt3__16vectorINS0_IiNS_9allocatorIiEEEENS1_IS3_EEEC2ERKS5_.cold.1, symObjAddr: 0x1E6E8, symBinAddr: 0xC443C4, symSize: 0x60 }
  - { offset: 0x2300E7, size: 0x8, addend: 0x0, symName: __ZNSt3__16vectorIN2cv3MatENS_9allocatorIS2_EEE18__assign_with_sizeB8ne180100IPKS2_S8_EEvT_T0_l, symObjAddr: 0x18B4C, symBinAddr: 0x35228, symSize: 0x284 }
  - { offset: 0x230698, size: 0x8, addend: 0x0, symName: __ZNSt3__16vectorIN2cv3MatENS_9allocatorIS2_EEE18__assign_with_sizeB8ne180100IPKS2_S8_EEvT_T0_l, symObjAddr: 0x18B4C, symBinAddr: 0x35228, symSize: 0x284 }
  - { offset: 0x2311AD, size: 0x8, addend: 0x0, symName: __ZN9inference18InferenceRunnerORT3runIfffEEbmRKNSt3__16vectorINS3_IT_NS2_9allocatorIS4_EEEENS5_IS7_EEEERKNS3_INS3_IT0_NS5_ISC_EEEENS5_ISE_EEEERNS3_INS3_IT1_NS5_ISJ_EEEENS5_ISL_EEEE, symObjAddr: 0x18F50, symBinAddr: 0x355AC, symSize: 0x444 }
  - { offset: 0x232DBE, size: 0x8, addend: 0x0, symName: __ZN9inference15InferenceRunnerINS_18InferenceRunnerORTEE3runIffEEbmRKNSt3__16vectorINS5_IT_NS4_9allocatorIS6_EEEENS7_IS9_EEEERNS5_INS5_IT0_NS7_ISE_EEEENS7_ISG_EEEE.cold.1, symObjAddr: 0x1E748, symBinAddr: 0xC44424, symSize: 0x48 }
  - { offset: 0x235270, size: 0x8, addend: 0x0, symName: __ZNSt3__135__uninitialized_allocator_copy_implB8ne180100INS_9allocatorINS_6vectorIfNS1_IfEEEEEEPKS4_S7_PS4_EET2_RT_T0_T1_S9_, symObjAddr: 0x18DE4, symBinAddr: 0x354AC, symSize: 0x100 }
  - { offset: 0x235A9A, size: 0x8, addend: 0x0, symName: __ZNSt3__16vectorIN3Ort5ValueENS_9allocatorIS2_EEE24__emplace_back_slow_pathIJS2_EEEPS2_DpOT_, symObjAddr: 0x19C64, symBinAddr: 0x362C0, symSize: 0x194 }
  - { offset: 0x2360C8, size: 0x8, addend: 0x0, symName: __ZN9inference18InferenceRunnerORT3runIfEEbRNSt3__16vectorIN3Ort5ValueENS2_9allocatorIS5_EEEERNS3_INS3_IT_NS6_ISA_EEEENS6_ISC_EEEE, symObjAddr: 0x19394, symBinAddr: 0x359F0, symSize: 0x674 }
  - { offset: 0x237AFB, size: 0x8, addend: 0x0, symName: __ZNSt3__16vectorIN3Ort5ValueENS_9allocatorIS2_EEED1B8ne180100Ev, symObjAddr: 0x19A08, symBinAddr: 0x36064, symSize: 0x64 }
  - { offset: 0x238607, size: 0x8, addend: 0x0, symName: __ZNSt3__16vectorIPKcNS_9allocatorIS2_EEE8__appendEmRKS2_, symObjAddr: 0x19E0C, symBinAddr: 0x36454, symSize: 0x25C }
  - { offset: 0x238B28, size: 0x8, addend: 0x0, symName: __ZNSt3__16vectorIN3Ort5ValueENS_9allocatorIS2_EEE7reserveEm, symObjAddr: 0x1A07C, symBinAddr: 0x366B0, symSize: 0x16C }
  - { offset: 0x238FD4, size: 0x8, addend: 0x0, symName: __ZNSt3__16vectorIN3Ort5ValueENS_9allocatorIS2_EEE24__emplace_back_slow_pathIJDnEEEPS2_DpOT_, symObjAddr: 0x1A1E8, symBinAddr: 0x3681C, symSize: 0x19C }
  - { offset: 0x239593, size: 0x8, addend: 0x0, symName: __ZNSt3__16vectorINS0_IfNS_9allocatorIfEEEENS1_IS3_EEE24__emplace_back_slow_pathIJRPfS7_EEEPS3_DpOT_, symObjAddr: 0x1A384, symBinAddr: 0x369B8, symSize: 0x214 }
  - { offset: 0x23A206, size: 0x8, addend: 0x0, symName: __ZN3Ort9ExceptionD1Ev, symObjAddr: 0x19BA8, symBinAddr: 0x36204, symSize: 0x4C }
  - { offset: 0x23A376, size: 0x8, addend: 0x0, symName: __ZN3Ort9ExceptionD0Ev, symObjAddr: 0x19BF4, symBinAddr: 0x36250, symSize: 0x54 }
  - { offset: 0x23A4E5, size: 0x8, addend: 0x0, symName: __ZNK3Ort9Exception4whatEv, symObjAddr: 0x19C48, symBinAddr: 0x362A4, symSize: 0x1C }
  - { offset: 0x23A77B, size: 0x8, addend: 0x0, symName: __ZNSt3__16vectorIPKcNS_9allocatorIS2_EEE8__appendEmRKS2_, symObjAddr: 0x19E0C, symBinAddr: 0x36454, symSize: 0x25C }
  - { offset: 0x23AB42, size: 0x8, addend: 0x0, symName: __ZNSt3__16vectorIN3Ort5ValueENS_9allocatorIS2_EEE7reserveEm, symObjAddr: 0x1A07C, symBinAddr: 0x366B0, symSize: 0x16C }
  - { offset: 0x23AE74, size: 0x8, addend: 0x0, symName: __ZNSt3__114__split_bufferINS_6vectorIfNS_9allocatorIfEEEERNS2_IS4_EEED1Ev, symObjAddr: 0x1A598, symBinAddr: 0x36BCC, symSize: 0x6C }
  - { offset: 0x23C624, size: 0x8, addend: 0x0, symName: __ZNSt3__16vectorINS0_IfNS_9allocatorIfEEEENS1_IS3_EEE21__push_back_slow_pathIRKS3_EEPS3_OT_, symObjAddr: 0x1B670, symBinAddr: 0x37B58, symSize: 0x20C }
  - { offset: 0x23C7C8, size: 0x8, addend: 0x0, symName: __ZN7facesdk10ClassifierIN9inference18InferenceRunnerORTEhfED1Ev, symObjAddr: 0x1B87C, symBinAddr: 0x37D64, symSize: 0x5C }
  - { offset: 0x23C952, size: 0x8, addend: 0x0, symName: __ZN7facesdk10ClassifierIN9inference18InferenceRunnerORTEhfED0Ev, symObjAddr: 0x1B8D8, symBinAddr: 0x37DC0, symSize: 0x5C }
  - { offset: 0x23CFD6, size: 0x8, addend: 0x0, symName: __ZNK7facesdk10ClassifierIN9inference18InferenceRunnerORTEhfE3runERKN2cv3MatERKNSt3__16vectorINS4_6Point_IiEENS8_9allocatorISB_EEEERNS9_IfNSC_IfEEEE, symObjAddr: 0x1B934, symBinAddr: 0x37E1C, symSize: 0x35C }
  - { offset: 0x23E2EF, size: 0x8, addend: 0x0, symName: __ZN9inference15InferenceRunnerINS_18InferenceRunnerORTEE3runIhfEEbmRKNSt3__16vectorINS5_IT_NS4_9allocatorIS6_EEEENS7_IS9_EEEERNS5_INS5_IT0_NS7_ISE_EEEENS7_ISG_EEEE, symObjAddr: 0x1C31C, symBinAddr: 0x38804, symSize: 0xAC }
  - { offset: 0x23E708, size: 0x8, addend: 0x0, symName: __ZNSt3__16vectorIfNS_9allocatorIfEEE18__assign_with_sizeB8ne180100INS_11__wrap_iterIPKfEES8_EEvT_T0_l, symObjAddr: 0x1C9E8, symBinAddr: 0x38DF0, symSize: 0x148 }
  - { offset: 0x23F0F0, size: 0x8, addend: 0x0, symName: __ZNK7facesdk19EyeLandmarkDetectorIN9inference18InferenceRunnerORTEE6detectERKN2cv3MatERNSt3__16vectorINS4_6Point_IiEENS8_9allocatorISB_EEEE, symObjAddr: 0x1CB30, symBinAddr: 0x38F38, symSize: 0x74C }
  - { offset: 0x23F979, size: 0x8, addend: 0x0, symName: __ZN9inference18InferenceRunnerORT3runIhffEEbmRKNSt3__16vectorINS3_IT_NS2_9allocatorIS4_EEEENS5_IS7_EEEERKNS3_INS3_IT0_NS5_ISC_EEEENS5_ISE_EEEERNS3_INS3_IT1_NS5_ISJ_EEEENS5_ISL_EEEE, symObjAddr: 0x1C5A4, symBinAddr: 0x389AC, symSize: 0x444 }
  - { offset: 0x241C3E, size: 0x8, addend: 0x0, symName: __ZNK7facesdk19EyeLandmarkDetectorIN9inference18InferenceRunnerORTEE6detectERKN2cv3MatERNSt3__16vectorINS4_6Point_IiEENS8_9allocatorISB_EEEE, symObjAddr: 0x1CB30, symBinAddr: 0x38F38, symSize: 0x74C }
  - { offset: 0x243A90, size: 0x8, addend: 0x0, symName: __ZN7facesdk19EyeLandmarkDetectorIN9inference18InferenceRunnerORTEED1Ev, symObjAddr: 0x1D27C, symBinAddr: 0x39684, symSize: 0x40 }
  - { offset: 0x243B72, size: 0x8, addend: 0x0, symName: __ZN7facesdk19EyeLandmarkDetectorIN9inference18InferenceRunnerORTEED0Ev, symObjAddr: 0x1D2BC, symBinAddr: 0x396C4, symSize: 0x44 }
  - { offset: 0x2461A1, size: 0x8, addend: 0x0, symName: _OUTLINED_FUNCTION_0, symObjAddr: 0x1E858, symBinAddr: 0x39914, symSize: 0xC }
  - { offset: 0x2461B9, size: 0x8, addend: 0x0, symName: _OUTLINED_FUNCTION_1, symObjAddr: 0x1E864, symBinAddr: 0x39920, symSize: 0xC }
  - { offset: 0x2461D1, size: 0x8, addend: 0x0, symName: _OUTLINED_FUNCTION_2, symObjAddr: 0x1E870, symBinAddr: 0x3992C, symSize: 0x10 }
  - { offset: 0x2461E9, size: 0x8, addend: 0x0, symName: _OUTLINED_FUNCTION_3, symObjAddr: 0x1E880, symBinAddr: 0x3993C, symSize: 0x8 }
  - { offset: 0x246201, size: 0x8, addend: 0x0, symName: _OUTLINED_FUNCTION_4, symObjAddr: 0x1E888, symBinAddr: 0x39944, symSize: 0x18 }
  - { offset: 0x246219, size: 0x8, addend: 0x0, symName: _OUTLINED_FUNCTION_5, symObjAddr: 0x1E8A0, symBinAddr: 0x3995C, symSize: 0xC }
  - { offset: 0x246231, size: 0x8, addend: 0x0, symName: _OUTLINED_FUNCTION_6, symObjAddr: 0x1E8AC, symBinAddr: 0x39968, symSize: 0xC }
  - { offset: 0x246249, size: 0x8, addend: 0x0, symName: _OUTLINED_FUNCTION_7, symObjAddr: 0x1E8B8, symBinAddr: 0x39974, symSize: 0x8 }
  - { offset: 0x2C574C, size: 0x8, addend: 0x0, symName: __ZN5Eigen7umeyamaINS_6MatrixIfLi2ELi5ELi0ELi2ELi5EEES2_EENS_8internal29umeyama_transform_matrix_typeIT_T0_E4typeERKNS_10MatrixBaseIS5_EERKNS9_IS6_EEb, symObjAddr: 0x4C68, symBinAddr: 0x3C72C, symSize: 0x4BC }
  - { offset: 0x2F9D8C, size: 0x8, addend: 0x0, symName: __ZNSt3__116__throw_bad_castB8ne180100Ev, symObjAddr: 0x7DEC, symBinAddr: 0x3F010, symSize: 0x28 }
  - { offset: 0x305277, size: 0x8, addend: 0x0, symName: __ZN7facesdk8readFileERKNSt3__112basic_stringIcNS0_11char_traitsIcEENS0_9allocatorIcEEEE, symObjAddr: 0x48, symBinAddr: 0x39AC0, symSize: 0x2B8 }
  - { offset: 0x30583A, size: 0x8, addend: 0x0, symName: __ZN7facesdk19serializeCurrResultERNS_15LivenessSessionEPKNS_12LFrameResultE, symObjAddr: 0x5BC, symBinAddr: 0x39EEC, symSize: 0x290 }
  - { offset: 0x30602D, size: 0x8, addend: 0x0, symName: __ZN7facesdk16serializeSessionERNS_15LivenessSessionE, symObjAddr: 0x84C, symBinAddr: 0x3A17C, symSize: 0x3D0 }
  - { offset: 0x306C28, size: 0x8, addend: 0x0, symName: __ZN7facesdk10rectToJsonIiEEN8nlohmann16json_abi_v3_11_210basic_jsonINSt3__13mapENS4_6vectorENS4_12basic_stringIcNS4_11char_traitsIcEENS4_9allocatorIcEEEEbxydSA_NS2_14adl_serializerENS6_IhNSA_IhEEEEEERKN2cv5Rect_IT_EE, symObjAddr: 0xD3C, symBinAddr: 0x3A54C, symSize: 0x1F0 }
  - { offset: 0x307479, size: 0x8, addend: 0x0, symName: __ZN7facesdk17generateDebugInfoERKNS_12LFrameResultERKNS_15LivenessSessionE, symObjAddr: 0xF2C, symBinAddr: 0x3A73C, symSize: 0x1D8 }
  - { offset: 0x307BCE, size: 0x8, addend: 0x0, symName: __ZN7facesdk17frameResultToJsonERKNS_12LFrameResultERKNS_17FrameSavingParamsE, symObjAddr: 0x13F8, symBinAddr: 0x3A914, symSize: 0x6C8 }
  - { offset: 0x309E5D, size: 0x8, addend: 0x0, symName: __ZN7facesdk13ellipseToJsonERKNS_8LEllipseE, symObjAddr: 0x1AC0, symBinAddr: 0x3AFDC, symSize: 0x208 }
  - { offset: 0x30A6C1, size: 0x8, addend: 0x0, symName: __ZN7facesdk11pointToJsonIiEEN8nlohmann16json_abi_v3_11_210basic_jsonINSt3__13mapENS4_6vectorENS4_12basic_stringIcNS4_11char_traitsIcEENS4_9allocatorIcEEEEbxydSA_NS2_14adl_serializerENS6_IhNSA_IhEEEEEERKN2cv6Point_IT_EE, symObjAddr: 0x1CC8, symBinAddr: 0x3B1E4, symSize: 0x110 }
  - { offset: 0x30AB9C, size: 0x8, addend: 0x0, symName: __ZN7facesdk10faceToJsonERKNS_5LFaceE, symObjAddr: 0x1F38, symBinAddr: 0x3B2F4, symSize: 0x334 }
  - { offset: 0x30B3D9, size: 0x8, addend: 0x0, symName: __ZN7facesdk21faceOrientationToJsonENS_15LFaceOrienationE, symObjAddr: 0x226C, symBinAddr: 0x3B628, symSize: 0x18C }
  - { offset: 0x30B9FD, size: 0x8, addend: 0x0, symName: __ZN7facesdk9saveImageERKN2cv3MatERKNSt3__112basic_stringIcNS4_11char_traitsIcEENS4_9allocatorIcEEEERKNS4_6vectorIiNS8_IiEEEE, symObjAddr: 0x23F8, symBinAddr: 0x3B7B4, symSize: 0x6C }
  - { offset: 0x30BC42, size: 0x8, addend: 0x0, symName: __ZN7facesdk7calcFPSERKNS_15LivenessSessionE, symObjAddr: 0x2BA4, symBinAddr: 0x3B820, symSize: 0x124 }
  - { offset: 0x30BD71, size: 0x8, addend: 0x0, symName: __ZN7facesdk6centerERKN2cv5Rect_IiEE, symObjAddr: 0x2D28, symBinAddr: 0x3B944, symSize: 0x1C }
  - { offset: 0x30BD8F, size: 0x8, addend: 0x0, symName: __ZN7facesdk6centerERKN2cv5Rect_IiEE, symObjAddr: 0x2D28, symBinAddr: 0x3B944, symSize: 0x1C }
  - { offset: 0x30BE04, size: 0x8, addend: 0x0, symName: __ZN7facesdk15saveImageBase64ERKN2cv3MatERKNSt3__112basic_stringIcNS4_11char_traitsIcEENS4_9allocatorIcEEEERKNS4_6vectorIiNS8_IiEEEE, symObjAddr: 0x2E94, symBinAddr: 0x3B960, symSize: 0xF8 }
  - { offset: 0x30C352, size: 0x8, addend: 0x0, symName: __ZN7facesdk11rotateImageERKN2cv3MatEi, symObjAddr: 0x2FCC, symBinAddr: 0x3BA98, symSize: 0xF8 }
  - { offset: 0x30C660, size: 0x8, addend: 0x0, symName: __ZN7facesdk11createFrameEPvN2cv5Size_IiEEii, symObjAddr: 0x30C4, symBinAddr: 0x3BB90, symSize: 0xF8 }
  - { offset: 0x30C8CD, size: 0x8, addend: 0x0, symName: __ZN7facesdk17findBestFaceIndexERKNSt3__16vectorIN2cv5Rect_IiEENS0_9allocatorIS4_EEEERKNS2_5Size_IiEE, symObjAddr: 0x32A0, symBinAddr: 0x3BC88, symSize: 0x170 }
  - { offset: 0x30C961, size: 0x8, addend: 0x0, symName: __ZN7facesdk17findBestFaceIndexERKNSt3__16vectorIN2cv5Rect_IiEENS0_9allocatorIS4_EEEERKNS2_5Size_IiEE, symObjAddr: 0x32A0, symBinAddr: 0x3BC88, symSize: 0x170 }
  - { offset: 0x30CD6F, size: 0x8, addend: 0x0, symName: __ZN7facesdk11calcFaceBoxERKN2cv5Size_IiEERKNS0_6Point_IiEERKNS_15LStageConstantsE, symObjAddr: 0x3B90, symBinAddr: 0x3BE30, symSize: 0x28 }
  - { offset: 0x30CE1D, size: 0x8, addend: 0x0, symName: __ZN7facesdk11calcEllipseERKN2cv5Rect_IiEERKNS0_6Point_IiEERKNS_15LStageConstantsE, symObjAddr: 0x3BB8, symBinAddr: 0x3BE58, symSize: 0x20 }
  - { offset: 0x30CEC8, size: 0x8, addend: 0x0, symName: __ZN7facesdk16getHeightOnFrameEfiff, symObjAddr: 0x3C10, symBinAddr: 0x3BE78, symSize: 0x8C }
  - { offset: 0x30D047, size: 0x8, addend: 0x0, symName: __ZN7facesdk8calcBallERKNS_14LSessionParamsENS_15LFaceOrienationE, symObjAddr: 0x43A8, symBinAddr: 0x3BF04, symSize: 0x44 }
  - { offset: 0x30D133, size: 0x8, addend: 0x0, symName: __ZN7facesdk15calcCroppedFaceERKN2cv3MatERKNSt3__16vectorINS0_6Point_IiEENS4_9allocatorIS7_EEEERKNS5_INS6_IdEENS8_ISD_EEEERKNS0_5Size_IiEE, symObjAddr: 0x4484, symBinAddr: 0x3BF48, symSize: 0x7E4 }
  - { offset: 0x30E652, size: 0x8, addend: 0x0, symName: __ZN7facesdk15calcCroppedFaceERKN2cv3MatERKNSt3__16vectorINS0_6Point_IiEENS4_9allocatorIS7_EEEE, symObjAddr: 0x5124, symBinAddr: 0x3CBE8, symSize: 0x184 }
  - { offset: 0x30ECD6, size: 0x8, addend: 0x0, symName: __ZN7facesdk23generateTargetExposuresEjjjj, symObjAddr: 0x530C, symBinAddr: 0x3CD6C, symSize: 0x160 }
  - { offset: 0x30F0C3, size: 0x8, addend: 0x0, symName: __ZN7facesdk20generateRandomNumberIiEET_S1_S1_, symObjAddr: 0x546C, symBinAddr: 0x3CECC, symSize: 0x114 }
  - { offset: 0x30F76E, size: 0x8, addend: 0x0, symName: __ZN7facesdk20generateRandomNumberIjEET_S1_S1_, symObjAddr: 0x5580, symBinAddr: 0x3CFE0, symSize: 0x114 }
  - { offset: 0x30FE19, size: 0x8, addend: 0x0, symName: __ZN7facesdk16correctReadinessEf, symObjAddr: 0x5870, symBinAddr: 0x3D0F4, symSize: 0x8C }
  - { offset: 0x30FE7A, size: 0x8, addend: 0x0, symName: __ZN7facesdk18calcLandmarkHeightERKNS_5LFaceE, symObjAddr: 0x58FC, symBinAddr: 0x3D180, symSize: 0xBC }
  - { offset: 0x30FFF6, size: 0x8, addend: 0x0, symName: __ZN7facesdk17calcCurrentSectorERKN2cv6Point_IiEERKNS_14LSessionParamsEj, symObjAddr: 0x59B8, symBinAddr: 0x3D23C, symSize: 0xFC }
  - { offset: 0x310102, size: 0x8, addend: 0x0, symName: __ZN7facesdk14calcFaceHeightERKNSt3__16vectorIN2cv6Point_IiEENS0_9allocatorIS4_EEEE, symObjAddr: 0x5AB4, symBinAddr: 0x3D338, symSize: 0xA0 }
  - { offset: 0x31017B, size: 0x8, addend: 0x0, symName: __ZN7facesdk14calcFaceHeightERKNSt3__16vectorIN2cv6Point_IiEENS0_9allocatorIS4_EEEE, symObjAddr: 0x5AB4, symBinAddr: 0x3D338, symSize: 0xA0 }
  - { offset: 0x310376, size: 0x8, addend: 0x0, symName: __ZN7facesdk17serializeDepthMapERKN2cv3MatERKNS0_5Size_IiEERKNS0_5Rect_IiEEjb, symObjAddr: 0x5B54, symBinAddr: 0x3D3D8, symSize: 0x498 }
  - { offset: 0x311BD8, size: 0x8, addend: 0x0, symName: __ZN7facesdk12compressDataEPKhmRKNSt3__112basic_stringIcNS2_11char_traitsIcEENS2_9allocatorIcEEEE, symObjAddr: 0x5FEC, symBinAddr: 0x3D870, symSize: 0x148 }
  - { offset: 0x31206C, size: 0x8, addend: 0x0, symName: __ZN7facesdk13calcSharpnessERKN2cv3MatE, symObjAddr: 0x66BC, symBinAddr: 0x3DB20, symSize: 0x184 }
  - { offset: 0x312587, size: 0x8, addend: 0x0, symName: __ZN7facesdk7isEmptyEPKc, symObjAddr: 0x6840, symBinAddr: 0x3DCA4, symSize: 0x1C }
  - { offset: 0x3125B6, size: 0x8, addend: 0x0, symName: __ZN7facesdk21generateFakePublicKeyEv, symObjAddr: 0x685C, symBinAddr: 0x3DCC0, symSize: 0x1CC }
  - { offset: 0x313167, size: 0x8, addend: 0x0, symName: __ZN7facesdk20generateRandomNumberIhEET_S1_S1_, symObjAddr: 0xF21C, symBinAddr: 0x40614, symSize: 0x118 }
  - { offset: 0x313811, size: 0x8, addend: 0x0, symName: __ZN7facesdk10calcSHA256ERKNSt3__16vectorIhNS0_9allocatorIhEEEE, symObjAddr: 0x6A28, symBinAddr: 0x3DE8C, symSize: 0xD8 }
  - { offset: 0x313C02, size: 0x8, addend: 0x0, symName: __ZN7facesdk14buildHistogramERKN2cv3MatES3_, symObjAddr: 0x6B00, symBinAddr: 0x3DF64, symSize: 0x1B4 }
  - { offset: 0x3141C0, size: 0x8, addend: 0x0, symName: __ZN7facesdk27calcInjectionCheckPatchRectEN6common4type4spanIKN2cv6Point_IiEELm18446744073709551615EEEff, symObjAddr: 0x6CB4, symBinAddr: 0x3E118, symSize: 0xA4 }
  - { offset: 0x314302, size: 0x8, addend: 0x0, symName: __ZN7facesdk11calcEyeRectERKN2cv6Point_IiEEi, symObjAddr: 0x6D58, symBinAddr: 0x3E1BC, symSize: 0x20 }
  - { offset: 0x314392, size: 0x8, addend: 0x0, symName: __ZN7facesdk18calcEyeAspectRatioEN6common4type4spanIKN2cv6Point_IiEELm18446744073709551615EEE, symObjAddr: 0x6D78, symBinAddr: 0x3E1DC, symSize: 0x64 }
  - { offset: 0x314427, size: 0x8, addend: 0x0, symName: __ZN7facesdk8getValueERKN8nlohmann16json_abi_v3_11_210basic_jsonINSt3__13mapENS3_6vectorENS3_12basic_stringIcNS3_11char_traitsIcEENS3_9allocatorIcEEEEbxydS9_NS1_14adl_serializerENS5_IhNS9_IhEEEEEERKSB_SH_, symObjAddr: 0x6DDC, symBinAddr: 0x3E240, symSize: 0x60 }
  - { offset: 0x322C72, size: 0x8, addend: 0x0, symName: __ZNSt3__124uniform_int_distributionIiEclINS_23mersenne_twister_engineIjLm32ELm624ELm397ELm31ELj2567483615ELm11ELj4294967295ELm7ELj2636928640ELm15ELj4022730752ELm18ELj1812433253EEEEEiRT_RKNS1_10param_typeE, symObjAddr: 0xE5A8, symBinAddr: 0x40258, symSize: 0x1A0 }
  - { offset: 0x322D13, size: 0x8, addend: 0x0, symName: __ZNSt3__124uniform_int_distributionIiEclINS_23mersenne_twister_engineIjLm32ELm624ELm397ELm31ELj2567483615ELm11ELj4294967295ELm7ELj2636928640ELm15ELj4022730752ELm18ELj1812433253EEEEEiRT_RKNS1_10param_typeE, symObjAddr: 0xE5A8, symBinAddr: 0x40258, symSize: 0x1A0 }
  - { offset: 0x323138, size: 0x8, addend: 0x0, symName: __ZNSt3__124uniform_int_distributionIhEclINS_23mersenne_twister_engineIjLm32ELm624ELm397ELm31ELj2567483615ELm11ELj4294967295ELm7ELj2636928640ELm15ELj4022730752ELm18ELj1812433253EEEEEhRT_RKNS1_10param_typeE, symObjAddr: 0xF334, symBinAddr: 0x4072C, symSize: 0x1AC }
  - { offset: 0x3231DA, size: 0x8, addend: 0x0, symName: __ZNSt3__124uniform_int_distributionIhEclINS_23mersenne_twister_engineIjLm32ELm624ELm397ELm31ELj2567483615ELm11ELj4294967295ELm7ELj2636928640ELm15ELj4022730752ELm18ELj1812433253EEEEEhRT_RKNS1_10param_typeE, symObjAddr: 0xF334, symBinAddr: 0x4072C, symSize: 0x1AC }
  - { offset: 0x32348E, size: 0x8, addend: 0x0, symName: __ZNK7facesdk15LFaceOrienationltES0_, symObjAddr: 0x0, symBinAddr: 0x39A78, symSize: 0x48 }
  - { offset: 0x323A06, size: 0x8, addend: 0x0, symName: __ZNSt3__113basic_filebufIcNS_11char_traitsIcEEEC2Ev, symObjAddr: 0x8DB8, symBinAddr: 0x3F1E4, symSize: 0x138 }
  - { offset: 0x323AE2, size: 0x8, addend: 0x0, symName: __ZNSt3__114basic_ifstreamIcNS_11char_traitsIcEEEC1ERKNS_12basic_stringIcS2_NS_9allocatorIcEEEEj, symObjAddr: 0x300, symBinAddr: 0x39D78, symSize: 0x114 }
  - { offset: 0x323CDF, size: 0x8, addend: 0x0, symName: __ZNSt3__113basic_filebufIcNS_11char_traitsIcEEE4swapERS3_, symObjAddr: 0x9028, symBinAddr: 0x3F454, symSize: 0x3A0 }
  - { offset: 0x3242F3, size: 0x8, addend: 0x0, symName: __ZNSt3__113basic_filebufIcNS_11char_traitsIcEEED2Ev, symObjAddr: 0x71A8, symBinAddr: 0x3E3CC, symSize: 0xBC }
  - { offset: 0x3243FD, size: 0x8, addend: 0x0, symName: __ZNSt3__16vectorIhNS_9allocatorIhEEE20__init_with_sentinelB8ne180100INS_19istreambuf_iteratorIcNS_11char_traitsIcEEEES8_EEvT_T0_, symObjAddr: 0x93C8, symBinAddr: 0x3F7F4, symSize: 0x2CC }
  - { offset: 0x324A75, size: 0x8, addend: 0x0, symName: __ZNSt3__114basic_ifstreamIcNS_11char_traitsIcEEED1Ev, symObjAddr: 0x414, symBinAddr: 0x39E8C, symSize: 0x60 }
  - { offset: 0x324BB9, size: 0x8, addend: 0x0, symName: __ZNSt3__113basic_filebufIcNS_11char_traitsIcEEE4openEPKcj, symObjAddr: 0x8EF0, symBinAddr: 0x3F31C, symSize: 0x138 }
  - { offset: 0x32AB24, size: 0x8, addend: 0x0, symName: __ZNSt3__16vectorIN8nlohmann16json_abi_v3_11_210basic_jsonINS_3mapES0_NS_12basic_stringIcNS_11char_traitsIcEENS_9allocatorIcEEEEbxydS8_NS2_14adl_serializerENS0_IhNS8_IhEEEEEENS8_ISE_EEEC2INS_11__wrap_iterIPKiEELi0EEET_SM_, symObjAddr: 0xCF10, symBinAddr: 0x3FAC0, symSize: 0xE0 }
  - { offset: 0x32CB9A, size: 0x8, addend: 0x0, symName: __ZN6common6base647EncoderD1Ev, symObjAddr: 0x2F8C, symBinAddr: 0x3BA58, symSize: 0x40 }
  - { offset: 0x32D054, size: 0x8, addend: 0x0, symName: __ZN2cv7MatExprD1Ev, symObjAddr: 0x35EC, symBinAddr: 0x3BDF8, symSize: 0x38 }
  - { offset: 0x3305DA, size: 0x8, addend: 0x0, symName: __ZN5Eigen9JacobiSVDINS_6MatrixIfLi2ELi2ELi0ELi2ELi2EEELi2EE7computeERKS2_j, symObjAddr: 0xDEF0, symBinAddr: 0x3FBA0, symSize: 0x6B8 }
  - { offset: 0x333C1A, size: 0x8, addend: 0x0, symName: __ZN8nlohmann16json_abi_v3_11_210basic_jsonINSt3__13mapENS2_6vectorENS2_12basic_stringIcNS2_11char_traitsIcEENS2_9allocatorIcEEEEbxydS8_NS0_14adl_serializerENS4_IhNS8_IhEEEEE6binaryERKSD_, symObjAddr: 0x6134, symBinAddr: 0x3D9B8, symSize: 0xDC }
  - { offset: 0x3346B1, size: 0x8, addend: 0x0, symName: __ZNKSt3__111__copy_loopINS_17_ClassicAlgPolicyEEclB8ne180100IPhS4_NS_20back_insert_iteratorINS_6vectorIhNS_9allocatorIhEEEEEEEENS_4pairIT_T1_EESC_T0_SD_, symObjAddr: 0xEDA8, symBinAddr: 0x403F8, symSize: 0x21C }
  - { offset: 0x334F72, size: 0x8, addend: 0x0, symName: __ZNSt3__119basic_ostringstreamIcNS_11char_traitsIcEENS_9allocatorIcEEED1Ev, symObjAddr: 0x6630, symBinAddr: 0x3DA94, symSize: 0x8C }
  - { offset: 0x33649E, size: 0x8, addend: 0x0, symName: __ZTv0_n24_NSt3__114basic_ifstreamIcNS_11char_traitsIcEEED1Ev, symObjAddr: 0x707C, symBinAddr: 0x3E2A0, symSize: 0x60 }
  - { offset: 0x336528, size: 0x8, addend: 0x0, symName: __ZNSt3__114basic_ifstreamIcNS_11char_traitsIcEEED0Ev, symObjAddr: 0x70DC, symBinAddr: 0x3E300, symSize: 0x60 }
  - { offset: 0x3365D1, size: 0x8, addend: 0x0, symName: __ZTv0_n24_NSt3__114basic_ifstreamIcNS_11char_traitsIcEEED0Ev, symObjAddr: 0x713C, symBinAddr: 0x3E360, symSize: 0x68 }
  - { offset: 0x336677, size: 0x8, addend: 0x0, symName: __ZNSt3__113basic_filebufIcNS_11char_traitsIcEEED1Ev, symObjAddr: 0x71A4, symBinAddr: 0x3E3C8, symSize: 0x4 }
  - { offset: 0x33669A, size: 0x8, addend: 0x0, symName: __ZNSt3__113basic_filebufIcNS_11char_traitsIcEEED1Ev, symObjAddr: 0x71A4, symBinAddr: 0x3E3C8, symSize: 0x4 }
  - { offset: 0x3366AD, size: 0x8, addend: 0x0, symName: __ZNSt3__113basic_filebufIcNS_11char_traitsIcEEE4syncEv, symObjAddr: 0x7660, symBinAddr: 0x3E884, symSize: 0x26C }
  - { offset: 0x33696D, size: 0x8, addend: 0x0, symName: __ZNSt3__113basic_filebufIcNS_11char_traitsIcEEE9underflowEv, symObjAddr: 0x78CC, symBinAddr: 0x3EAF0, symSize: 0x2B4 }
  - { offset: 0x336978, size: 0x8, addend: 0x0, symName: __ZNSt3__113basic_filebufIcNS_11char_traitsIcEEED0Ev, symObjAddr: 0x7264, symBinAddr: 0x3E488, symSize: 0x14 }
  - { offset: 0x336A28, size: 0x8, addend: 0x0, symName: __ZNSt3__113basic_filebufIcNS_11char_traitsIcEEE5imbueERKNS_6localeE, symObjAddr: 0x7278, symBinAddr: 0x3E49C, symSize: 0xFC }
  - { offset: 0x336AF9, size: 0x8, addend: 0x0, symName: __ZNSt3__113basic_filebufIcNS_11char_traitsIcEEE6setbufEPcl, symObjAddr: 0x7374, symBinAddr: 0x3E598, symSize: 0x120 }
  - { offset: 0x336BD6, size: 0x8, addend: 0x0, symName: __ZNSt3__113basic_filebufIcNS_11char_traitsIcEEE7seekoffExNS_8ios_base7seekdirEj, symObjAddr: 0x7494, symBinAddr: 0x3E6B8, symSize: 0x110 }
  - { offset: 0x336D2D, size: 0x8, addend: 0x0, symName: __ZNSt3__113basic_filebufIcNS_11char_traitsIcEEE7seekposENS_4fposI11__mbstate_tEEj, symObjAddr: 0x75A4, symBinAddr: 0x3E7C8, symSize: 0xBC }
  - { offset: 0x336D8E, size: 0x8, addend: 0x0, symName: __ZNSt3__113basic_filebufIcNS_11char_traitsIcEEE7seekposENS_4fposI11__mbstate_tEEj, symObjAddr: 0x75A4, symBinAddr: 0x3E7C8, symSize: 0xBC }
  - { offset: 0x337007, size: 0x8, addend: 0x0, symName: __ZNSt3__113basic_filebufIcNS_11char_traitsIcEEE9underflowEv, symObjAddr: 0x78CC, symBinAddr: 0x3EAF0, symSize: 0x2B4 }
  - { offset: 0x33736A, size: 0x8, addend: 0x0, symName: __ZNSt3__113basic_filebufIcNS_11char_traitsIcEEE9pbackfailEi, symObjAddr: 0x7B80, symBinAddr: 0x3EDA4, symSize: 0x5C }
  - { offset: 0x3373B7, size: 0x8, addend: 0x0, symName: __ZNSt3__113basic_filebufIcNS_11char_traitsIcEEE9pbackfailEi, symObjAddr: 0x7B80, symBinAddr: 0x3EDA4, symSize: 0x5C }
  - { offset: 0x337535, size: 0x8, addend: 0x0, symName: __ZNSt3__113basic_filebufIcNS_11char_traitsIcEEE8overflowEi, symObjAddr: 0x7BDC, symBinAddr: 0x3EE00, symSize: 0x210 }
  - { offset: 0x3378E8, size: 0x8, addend: 0x0, symName: __ZTv0_n24_NSt3__119basic_ostringstreamIcNS_11char_traitsIcEENS_9allocatorIcEEED1Ev, symObjAddr: 0x7E14, symBinAddr: 0x3F038, symSize: 0x8C }
  - { offset: 0x337A8E, size: 0x8, addend: 0x0, symName: __ZNSt3__119basic_ostringstreamIcNS_11char_traitsIcEENS_9allocatorIcEEED0Ev, symObjAddr: 0x7EA0, symBinAddr: 0x3F0C4, symSize: 0x8C }
  - { offset: 0x337C59, size: 0x8, addend: 0x0, symName: __ZTv0_n24_NSt3__119basic_ostringstreamIcNS_11char_traitsIcEENS_9allocatorIcEEED0Ev, symObjAddr: 0x7F2C, symBinAddr: 0x3F150, symSize: 0x94 }
  - { offset: 0x3411A4, size: 0x8, addend: 0x0, symName: __ZN5boost16exception_detail37exception_ptr_static_exception_objectINS0_10bad_alloc_EE1eE, symObjAddr: 0x9B38, symBinAddr: 0xEA0E10, symSize: 0x0 }
  - { offset: 0x3416BD, size: 0x8, addend: 0x0, symName: __ZN5boost16exception_detail37exception_ptr_static_exception_objectINS0_14bad_exception_EE1eE, symObjAddr: 0x9B50, symBinAddr: 0xEA0E28, symSize: 0x0 }
  - { offset: 0x341779, size: 0x8, addend: 0x0, symName: __ZN5boost16exception_detail27get_static_exception_objectINS0_10bad_alloc_EEENS_13exception_ptrEv, symObjAddr: 0x2BC4, symBinAddr: 0xB47484, symSize: 0x2A0 }
  - { offset: 0x341781, size: 0x8, addend: 0x0, symName: __ZN5boost13exception_ptrD1Ev, symObjAddr: 0x2E64, symBinAddr: 0xB47724, symSize: 0x7C }
  - { offset: 0x3417B2, size: 0x8, addend: 0x0, symName: __ZZN5boost16exception_detail27get_static_exception_objectINS0_10bad_alloc_EEENS_13exception_ptrEvE2ep, symObjAddr: 0x9BA0, symBinAddr: 0xEA0E78, symSize: 0x0 }
  - { offset: 0x342033, size: 0x8, addend: 0x0, symName: __ZN5boost16exception_detail27get_static_exception_objectINS0_14bad_exception_EEENS_13exception_ptrEv, symObjAddr: 0x2EE0, symBinAddr: 0xB477A0, symSize: 0x260 }
  - { offset: 0x34203B, size: 0x8, addend: 0x0, symName: __ZN5boost6detail17shared_state_base22mark_finished_internalERNS_11unique_lockINS_5mutexEEE, symObjAddr: 0x3140, symBinAddr: 0xB47A00, symSize: 0xD4 }
  - { offset: 0x34206C, size: 0x8, addend: 0x0, symName: __ZZN5boost16exception_detail27get_static_exception_objectINS0_14bad_exception_EEENS_13exception_ptrEvE2ep, symObjAddr: 0x9BB8, symBinAddr: 0xEA0E90, symSize: 0x0 }
  - { offset: 0x342F15, size: 0x8, addend: 0x0, symName: __ZN5boost16exception_detail20copy_boost_exceptionEPNS_9exceptionEPKS1_, symObjAddr: 0x3964, symBinAddr: 0xB4821C, symSize: 0x138 }
  - { offset: 0x34412C, size: 0x8, addend: 0x0, symName: __MergedGlobals, symObjAddr: 0xBE610, symBinAddr: 0xF485A0, symSize: 0x0 }
  - { offset: 0x34414A, size: 0x8, addend: 0x0, symName: __MergedGlobals, symObjAddr: 0xBE610, symBinAddr: 0xF485A0, symSize: 0x0 }
  - { offset: 0x345529, size: 0x8, addend: 0x0, symName: __ZN5boost6detail23get_current_thread_dataEv, symObjAddr: 0x3D8, symBinAddr: 0xB44EC0, symSize: 0x7C }
  - { offset: 0x345531, size: 0x8, addend: 0x0, symName: __ZN5boost6detail23set_current_thread_dataEPNS0_16thread_data_baseE, symObjAddr: 0x454, symBinAddr: 0xB44F3C, symSize: 0x84 }
  - { offset: 0x3455AD, size: 0x8, addend: 0x0, symName: __ZN5boost6detail23set_current_thread_dataEPNS0_16thread_data_baseE, symObjAddr: 0x454, symBinAddr: 0xB44F3C, symSize: 0x84 }
  - { offset: 0x3459B4, size: 0x8, addend: 0x0, symName: __ZN5boost6detail24add_thread_exit_functionEPNS0_25thread_exit_function_baseE, symObjAddr: 0x2394, symBinAddr: 0xB46D98, symSize: 0x84 }
  - { offset: 0x345BB4, size: 0x8, addend: 0x0, symName: __ZN5boost6detail12get_tss_dataEPKv, symObjAddr: 0x248C, symBinAddr: 0xB46E1C, symSize: 0x84 }
  - { offset: 0x345BBC, size: 0x8, addend: 0x0, symName: __ZN5boost6detail16add_new_tss_nodeEPKvPFvPFvPvES3_ES5_S3_, symObjAddr: 0x2510, symBinAddr: 0xB46EA0, symSize: 0x130 }
  - { offset: 0x345DE8, size: 0x8, addend: 0x0, symName: __ZN5boost6detail16add_new_tss_nodeEPKvPFvPFvPvES3_ES5_S3_, symObjAddr: 0x2510, symBinAddr: 0xB46EA0, symSize: 0x130 }
  - { offset: 0x3462CA, size: 0x8, addend: 0x0, symName: __ZN5boost6detail12set_tss_dataEPKvPFvPFvPvES3_ES5_S3_b, symObjAddr: 0x2710, symBinAddr: 0xB46FD0, symSize: 0x1A8 }
  - { offset: 0x3462D2, size: 0x8, addend: 0x0, symName: __ZN5boost25notify_all_at_thread_exitERNS_18condition_variableENS_11unique_lockINS_5mutexEEE, symObjAddr: 0x28B8, symBinAddr: 0xB47178, symSize: 0x4C }
  - { offset: 0x34671F, size: 0x8, addend: 0x0, symName: __ZN5boost25notify_all_at_thread_exitERNS_18condition_variableENS_11unique_lockINS_5mutexEEE, symObjAddr: 0x28B8, symBinAddr: 0xB47178, symSize: 0x4C }
  - { offset: 0x346846, size: 0x8, addend: 0x0, symName: __ZN5boost25notify_all_at_thread_exitERNS_18condition_variableENS_11unique_lockINS_5mutexEEE, symObjAddr: 0x28B8, symBinAddr: 0xB47178, symSize: 0x4C }
  - { offset: 0x34687C, size: 0x8, addend: 0x0, symName: __ZN5boost25notify_all_at_thread_exitERNS_18condition_variableENS_11unique_lockINS_5mutexEEE, symObjAddr: 0x28B8, symBinAddr: 0xB47178, symSize: 0x4C }
  - { offset: 0x3468B2, size: 0x8, addend: 0x0, symName: __ZN5boost25notify_all_at_thread_exitERNS_18condition_variableENS_11unique_lockINS_5mutexEEE, symObjAddr: 0x28B8, symBinAddr: 0xB47178, symSize: 0x4C }
  - { offset: 0x3468F5, size: 0x8, addend: 0x0, symName: __ZN5boost25notify_all_at_thread_exitERNS_18condition_variableENS_11unique_lockINS_5mutexEEE, symObjAddr: 0x28B8, symBinAddr: 0xB47178, symSize: 0x4C }
  - { offset: 0x34692F, size: 0x8, addend: 0x0, symName: __ZN5boost25notify_all_at_thread_exitERNS_18condition_variableENS_11unique_lockINS_5mutexEEE, symObjAddr: 0x28B8, symBinAddr: 0xB47178, symSize: 0x4C }
  - { offset: 0x346956, size: 0x8, addend: 0x0, symName: __ZN5boost6detail25make_ready_at_thread_exitENS_10shared_ptrINS0_17shared_state_baseEEE, symObjAddr: 0x2904, symBinAddr: 0xB471C4, symSize: 0x124 }
  - { offset: 0x34695E, size: 0x8, addend: 0x0, symName: __ZN5boost10shared_ptrINS_6detail17shared_state_baseEED1Ev, symObjAddr: 0x2A28, symBinAddr: 0xB472E8, symSize: 0x7C }
  - { offset: 0x3473C4, size: 0x8, addend: 0x0, symName: __ZN5boost6detail20sp_pointer_constructINS0_16thread_data_baseES2_EEvPNS_10shared_ptrIT_EEPT0_RNS0_12shared_countE, symObjAddr: 0x763C, symBinAddr: 0xB4BA18, symSize: 0x104 }
  - { offset: 0x3473CC, size: 0x8, addend: 0x0, symName: __ZN5boost6detail17sp_counted_impl_pINS0_16thread_data_baseEED1Ev, symObjAddr: 0x7740, symBinAddr: 0xB4BB1C, symSize: 0x4 }
  - { offset: 0x34800B, size: 0x8, addend: 0x0, symName: __ZN5boost6system6detail8snprintfEPcmPKcz, symObjAddr: 0x5540, symBinAddr: 0xB49984, symSize: 0x28 }
  - { offset: 0x348013, size: 0x8, addend: 0x0, symName: __ZN5boost11unique_lockINS_5mutexEE4lockEv, symObjAddr: 0x5568, symBinAddr: 0xB499AC, symSize: 0xEC }
  - { offset: 0x351684, size: 0x8, addend: 0x0, symName: __ZN5boost11this_thread21no_interruption_point6hidden18sleep_for_internalERKNS_6detail17platform_durationE, symObjAddr: 0x18B4, symBinAddr: 0xB462B8, symSize: 0x24 }
  - { offset: 0x35168C, size: 0x8, addend: 0x0, symName: __ZN5boost11this_thread5yieldEv, symObjAddr: 0x18D8, symBinAddr: 0xB462DC, symSize: 0x18 }
  - { offset: 0x35173B, size: 0x8, addend: 0x0, symName: __ZN5boost11this_thread5yieldEv, symObjAddr: 0x18D8, symBinAddr: 0xB462DC, symSize: 0x18 }
  - { offset: 0x351743, size: 0x8, addend: 0x0, symName: __ZN5boost6thread20hardware_concurrencyEv, symObjAddr: 0x18F0, symBinAddr: 0xB462F4, symSize: 0x4C }
  - { offset: 0x35175C, size: 0x8, addend: 0x0, symName: __ZN5boost11this_thread18interruption_pointEv, symObjAddr: 0x1F24, symBinAddr: 0xB46928, symSize: 0x140 }
  - { offset: 0x351764, size: 0x8, addend: 0x0, symName: __ZN5boost11this_thread20interruption_enabledEv, symObjAddr: 0x2064, symBinAddr: 0xB46A68, symSize: 0x28 }
  - { offset: 0x351AA8, size: 0x8, addend: 0x0, symName: __ZN5boost11this_thread20interruption_enabledEv, symObjAddr: 0x2064, symBinAddr: 0xB46A68, symSize: 0x28 }
  - { offset: 0x351AB0, size: 0x8, addend: 0x0, symName: __ZN5boost11this_thread22interruption_requestedEv, symObjAddr: 0x208C, symBinAddr: 0xB46A90, symSize: 0x110 }
  - { offset: 0x351AD3, size: 0x8, addend: 0x0, symName: __ZN5boost11this_thread22interruption_requestedEv, symObjAddr: 0x208C, symBinAddr: 0xB46A90, symSize: 0x110 }
  - { offset: 0x351ADB, size: 0x8, addend: 0x0, symName: __ZN5boost11this_thread20disable_interruptionC2Ev, symObjAddr: 0x219C, symBinAddr: 0xB46BA0, symSize: 0x58 }
  - { offset: 0x351FAB, size: 0x8, addend: 0x0, symName: __ZN5boost25notify_all_at_thread_exitERNS_18condition_variableENS_11unique_lockINS_5mutexEEE, symObjAddr: 0x28B8, symBinAddr: 0xB47178, symSize: 0x4C }
  - { offset: 0x351FB3, size: 0x8, addend: 0x0, symName: __ZN5boost6detail25make_ready_at_thread_exitENS_10shared_ptrINS0_17shared_state_baseEEE, symObjAddr: 0x2904, symBinAddr: 0xB471C4, symSize: 0x124 }
  - { offset: 0x3522ED, size: 0x8, addend: 0x0, symName: __ZN5boost15throw_exceptionINS_12bad_weak_ptrEEEvRKT_, symObjAddr: 0x3500, symBinAddr: 0xB47DC0, symSize: 0x48 }
  - { offset: 0x3522F5, size: 0x8, addend: 0x0, symName: __ZN5boost12bad_weak_ptrD1Ev, symObjAddr: 0x3548, symBinAddr: 0xB47E08, symSize: 0x4 }
  - { offset: 0x3523A0, size: 0x8, addend: 0x0, symName: __ZN5boost15throw_exceptionINS_15condition_errorEEEvRKT_, symObjAddr: 0x3FAC, symBinAddr: 0xB484A0, symSize: 0x50 }
  - { offset: 0x3523A8, size: 0x8, addend: 0x0, symName: __ZN5boost15condition_errorC1EiPKc, symObjAddr: 0x3FFC, symBinAddr: 0xB484F0, symSize: 0xB0 }
  - { offset: 0x3523E3, size: 0x8, addend: 0x0, symName: __ZN5boost15throw_exceptionINS_10lock_errorEEEvRKT_, symObjAddr: 0x4308, symBinAddr: 0xB487FC, symSize: 0x50 }
  - { offset: 0x3523EB, size: 0x8, addend: 0x0, symName: __ZN5boost10lock_errorC1EiPKc, symObjAddr: 0x4358, symBinAddr: 0xB4884C, symSize: 0xB0 }
  - { offset: 0x35247E, size: 0x8, addend: 0x0, symName: __ZN5boost15throw_exceptionINS_21thread_resource_errorEEEvRKT_, symObjAddr: 0x6F9C, symBinAddr: 0xB4B378, symSize: 0x50 }
  - { offset: 0x352486, size: 0x8, addend: 0x0, symName: __ZN5boost21thread_resource_errorC1EiPKc, symObjAddr: 0x6FEC, symBinAddr: 0xB4B3C8, symSize: 0xB0 }
  - { offset: 0x365B82, size: 0x8, addend: 0x0, symName: __ZN5boost6system6detail18generic_cat_holderIvE8instanceE, symObjAddr: 0x9B68, symBinAddr: 0xEA0E40, symSize: 0x0 }
  - { offset: 0x368620, size: 0x8, addend: 0x0, symName: __ZN5boost6detail16thread_data_baseD2Ev, symObjAddr: 0x0, symBinAddr: 0xB44AF8, symSize: 0x2C0 }
  - { offset: 0x369286, size: 0x8, addend: 0x0, symName: __ZN5boost5mutexD1Ev, symObjAddr: 0x2D0, symBinAddr: 0xB44DB8, symSize: 0x34 }
  - { offset: 0x36928E, size: 0x8, addend: 0x0, symName: __ZN5boost10shared_ptrINS_6detail16thread_data_baseEED1Ev, symObjAddr: 0x304, symBinAddr: 0xB44DEC, symSize: 0x7C }
  - { offset: 0x36930D, size: 0x8, addend: 0x0, symName: __ZN5boost10shared_ptrINS_6detail16thread_data_baseEED1Ev, symObjAddr: 0x304, symBinAddr: 0xB44DEC, symSize: 0x7C }
  - { offset: 0x369315, size: 0x8, addend: 0x0, symName: __ZN5boost23enable_shared_from_thisINS_6detail16thread_data_baseEED2Ev, symObjAddr: 0x380, symBinAddr: 0xB44E68, symSize: 0x50 }
  - { offset: 0x369440, size: 0x8, addend: 0x0, symName: __ZN5boost23enable_shared_from_thisINS_6detail16thread_data_baseEED2Ev, symObjAddr: 0x380, symBinAddr: 0xB44E68, symSize: 0x50 }
  - { offset: 0x369448, size: 0x8, addend: 0x0, symName: __ZN5boost6detail16thread_data_baseD1Ev, symObjAddr: 0x3D0, symBinAddr: 0xB44EB8, symSize: 0x4 }
  - { offset: 0x36953D, size: 0x8, addend: 0x0, symName: __ZN5boost6detail16thread_data_baseD1Ev, symObjAddr: 0x3D0, symBinAddr: 0xB44EB8, symSize: 0x4 }
  - { offset: 0x369545, size: 0x8, addend: 0x0, symName: __ZN5boost6detail16thread_data_baseD0Ev, symObjAddr: 0x3D4, symBinAddr: 0xB44EBC, symSize: 0x4 }
  - { offset: 0x369574, size: 0x8, addend: 0x0, symName: __ZN5boost6detail16thread_data_baseD0Ev, symObjAddr: 0x3D4, symBinAddr: 0xB44EBC, symSize: 0x4 }
  - { offset: 0x36957C, size: 0x8, addend: 0x0, symName: __ZN5boost6detail23get_current_thread_dataEv, symObjAddr: 0x3D8, symBinAddr: 0xB44EC0, symSize: 0x7C }
  - { offset: 0x3696E4, size: 0x8, addend: 0x0, symName: __ZN5boost10shared_ptrINS_6detail16thread_data_baseEE5resetIS2_EEvPT_, symObjAddr: 0x53C, symBinAddr: 0xB44FC0, symSize: 0x108 }
  - { offset: 0x369BA6, size: 0x8, addend: 0x0, symName: __ZN5boost6threadC2Ev, symObjAddr: 0x6C4, symBinAddr: 0xB450C8, symSize: 0x8 }
  - { offset: 0x369BAE, size: 0x8, addend: 0x0, symName: __ZN5boost6threadC1Ev, symObjAddr: 0x6CC, symBinAddr: 0xB450D0, symSize: 0x8 }
  - { offset: 0x369BDB, size: 0x8, addend: 0x0, symName: __ZN5boost6threadC2Ev, symObjAddr: 0x6C4, symBinAddr: 0xB450C8, symSize: 0x8 }
  - { offset: 0x369C05, size: 0x8, addend: 0x0, symName: __ZN5boost6threadC2Ev, symObjAddr: 0x6C4, symBinAddr: 0xB450C8, symSize: 0x8 }
  - { offset: 0x369C2F, size: 0x8, addend: 0x0, symName: __ZN5boost6threadC2Ev, symObjAddr: 0x6C4, symBinAddr: 0xB450C8, symSize: 0x8 }
  - { offset: 0x369C57, size: 0x8, addend: 0x0, symName: __ZN5boost6threadC2Ev, symObjAddr: 0x6C4, symBinAddr: 0xB450C8, symSize: 0x8 }
  - { offset: 0x369CAA, size: 0x8, addend: 0x0, symName: __ZN5boost6threadC1Ev, symObjAddr: 0x6CC, symBinAddr: 0xB450D0, symSize: 0x8 }
  - { offset: 0x369CB2, size: 0x8, addend: 0x0, symName: __ZN5boost6thread21start_thread_noexceptEv, symObjAddr: 0x6D4, symBinAddr: 0xB450D8, symSize: 0x124 }
  - { offset: 0x369CEB, size: 0x8, addend: 0x0, symName: __ZN5boost6threadC1Ev, symObjAddr: 0x6CC, symBinAddr: 0xB450D0, symSize: 0x8 }
  - { offset: 0x369D15, size: 0x8, addend: 0x0, symName: __ZN5boost6threadC1Ev, symObjAddr: 0x6CC, symBinAddr: 0xB450D0, symSize: 0x8 }
  - { offset: 0x369D3F, size: 0x8, addend: 0x0, symName: __ZN5boost6threadC1Ev, symObjAddr: 0x6CC, symBinAddr: 0xB450D0, symSize: 0x8 }
  - { offset: 0x369D69, size: 0x8, addend: 0x0, symName: __ZN5boost6threadC1Ev, symObjAddr: 0x6CC, symBinAddr: 0xB450D0, symSize: 0x8 }
  - { offset: 0x369D91, size: 0x8, addend: 0x0, symName: __ZN5boost6threadC1Ev, symObjAddr: 0x6CC, symBinAddr: 0xB450D0, symSize: 0x8 }
  - { offset: 0x369F56, size: 0x8, addend: 0x0, symName: __ZN5boost6thread21start_thread_noexceptEv, symObjAddr: 0x6D4, symBinAddr: 0xB450D8, symSize: 0x124 }
  - { offset: 0x369F5E, size: 0x8, addend: 0x0, symName: __ZN5boost12_GLOBAL__N_112thread_proxyEPv, symObjAddr: 0x7F8, symBinAddr: 0xB451FC, symSize: 0x2E8 }
  - { offset: 0x36A91D, size: 0x8, addend: 0x0, symName: __ZN5boost12_GLOBAL__N_112thread_proxyEPv, symObjAddr: 0x7F8, symBinAddr: 0xB451FC, symSize: 0x2E8 }
  - { offset: 0x36A925, size: 0x8, addend: 0x0, symName: __ZN5boost6thread21start_thread_noexceptERKNS_17thread_attributesE, symObjAddr: 0xAE0, symBinAddr: 0xB454E4, symSize: 0x270 }
  - { offset: 0x36AAF9, size: 0x8, addend: 0x0, symName: __ZN5boost6thread21start_thread_noexceptERKNS_17thread_attributesE, symObjAddr: 0xAE0, symBinAddr: 0xB454E4, symSize: 0x270 }
  - { offset: 0x36AB21, size: 0x8, addend: 0x0, symName: __ZN5boost6thread21start_thread_noexceptERKNS_17thread_attributesE, symObjAddr: 0xAE0, symBinAddr: 0xB454E4, symSize: 0x270 }
  - { offset: 0x36B25D, size: 0x8, addend: 0x0, symName: __ZN5boost6thread21start_thread_noexceptERKNS_17thread_attributesE, symObjAddr: 0xAE0, symBinAddr: 0xB454E4, symSize: 0x270 }
  - { offset: 0x36B265, size: 0x8, addend: 0x0, symName: __ZNK5boost6thread15get_thread_infoEv, symObjAddr: 0xD50, symBinAddr: 0xB45754, symSize: 0x24 }
  - { offset: 0x36BAF8, size: 0x8, addend: 0x0, symName: __ZNK5boost6thread15get_thread_infoEv, symObjAddr: 0xD50, symBinAddr: 0xB45754, symSize: 0x24 }
  - { offset: 0x36BB00, size: 0x8, addend: 0x0, symName: __ZN5boost6thread13join_noexceptEv, symObjAddr: 0xD74, symBinAddr: 0xB45778, symSize: 0x304 }
  - { offset: 0x36BB2D, size: 0x8, addend: 0x0, symName: __ZNK5boost6thread15get_thread_infoEv, symObjAddr: 0xD50, symBinAddr: 0xB45754, symSize: 0x24 }
  - { offset: 0x36BB65, size: 0x8, addend: 0x0, symName: __ZNK5boost6thread15get_thread_infoEv, symObjAddr: 0xD50, symBinAddr: 0xB45754, symSize: 0x24 }
  - { offset: 0x36BC8B, size: 0x8, addend: 0x0, symName: __ZN5boost6thread13join_noexceptEv, symObjAddr: 0xD74, symBinAddr: 0xB45778, symSize: 0x304 }
  - { offset: 0x36BC93, size: 0x8, addend: 0x0, symName: __ZN5boost18condition_variable4waitERNS_11unique_lockINS_5mutexEEE, symObjAddr: 0x1078, symBinAddr: 0xB45A7C, symSize: 0xFC }
  - { offset: 0x36C87A, size: 0x8, addend: 0x0, symName: __ZN5boost18condition_variable4waitERNS_11unique_lockINS_5mutexEEE, symObjAddr: 0x1078, symBinAddr: 0xB45A7C, symSize: 0xFC }
  - { offset: 0x36C882, size: 0x8, addend: 0x0, symName: __ZN5boost11unique_lockINS_5mutexEED1Ev, symObjAddr: 0x1174, symBinAddr: 0xB45B78, symSize: 0x40 }
  - { offset: 0x36CB29, size: 0x8, addend: 0x0, symName: __ZN5boost11unique_lockINS_5mutexEED1Ev, symObjAddr: 0x1174, symBinAddr: 0xB45B78, symSize: 0x40 }
  - { offset: 0x36CB31, size: 0x8, addend: 0x0, symName: __ZN5boost10lock_guardINS_5mutexEED1Ev, symObjAddr: 0x11B4, symBinAddr: 0xB45BB8, symSize: 0x38 }
  - { offset: 0x36CC07, size: 0x8, addend: 0x0, symName: __ZN5boost10lock_guardINS_5mutexEED1Ev, symObjAddr: 0x11B4, symBinAddr: 0xB45BB8, symSize: 0x38 }
  - { offset: 0x36CC0F, size: 0x8, addend: 0x0, symName: __ZN5boost6thread26do_try_join_until_noexceptERKNS_6detail23real_platform_timepointERb, symObjAddr: 0x11EC, symBinAddr: 0xB45BF0, symSize: 0x364 }
  - { offset: 0x36CCB8, size: 0x8, addend: 0x0, symName: __ZN5boost6thread26do_try_join_until_noexceptERKNS_6detail23real_platform_timepointERb, symObjAddr: 0x11EC, symBinAddr: 0xB45BF0, symSize: 0x364 }
  - { offset: 0x36CCC0, size: 0x8, addend: 0x0, symName: __ZN5boost18condition_variable13do_wait_untilERNS_11unique_lockINS_5mutexEEERKNS_6detail23real_platform_timepointE, symObjAddr: 0x1550, symBinAddr: 0xB45F54, symSize: 0x114 }
  - { offset: 0x36D725, size: 0x8, addend: 0x0, symName: __ZN5boost18condition_variable13do_wait_untilERNS_11unique_lockINS_5mutexEEERKNS_6detail23real_platform_timepointE, symObjAddr: 0x1550, symBinAddr: 0xB45F54, symSize: 0x114 }
  - { offset: 0x36D72D, size: 0x8, addend: 0x0, symName: __ZNK5boost6thread8joinableEv, symObjAddr: 0x1664, symBinAddr: 0xB46068, symSize: 0x8C }
  - { offset: 0x36D9E8, size: 0x8, addend: 0x0, symName: __ZNK5boost6thread8joinableEv, symObjAddr: 0x1664, symBinAddr: 0xB46068, symSize: 0x8C }
  - { offset: 0x36D9F0, size: 0x8, addend: 0x0, symName: __ZN5boost6thread6detachEv, symObjAddr: 0x16F0, symBinAddr: 0xB460F4, symSize: 0x1C4 }
  - { offset: 0x36DC41, size: 0x8, addend: 0x0, symName: __ZN5boost6thread6detachEv, symObjAddr: 0x16F0, symBinAddr: 0xB460F4, symSize: 0x1C4 }
  - { offset: 0x36DC49, size: 0x8, addend: 0x0, symName: __ZN5boost11this_thread21no_interruption_point6hidden18sleep_for_internalERKNS_6detail17platform_durationE, symObjAddr: 0x18B4, symBinAddr: 0xB462B8, symSize: 0x24 }
  - { offset: 0x36E168, size: 0x8, addend: 0x0, symName: __ZN5boost6thread20hardware_concurrencyEv, symObjAddr: 0x18F0, symBinAddr: 0xB462F4, symSize: 0x4C }
  - { offset: 0x36E170, size: 0x8, addend: 0x0, symName: __ZN5boost6thread20physical_concurrencyEv, symObjAddr: 0x193C, symBinAddr: 0xB46340, symSize: 0x4C }
  - { offset: 0x36E1AF, size: 0x8, addend: 0x0, symName: __ZN5boost6thread20physical_concurrencyEv, symObjAddr: 0x193C, symBinAddr: 0xB46340, symSize: 0x4C }
  - { offset: 0x36E1B7, size: 0x8, addend: 0x0, symName: __ZN5boost6thread9interruptEv, symObjAddr: 0x1988, symBinAddr: 0xB4638C, symSize: 0x214 }
  - { offset: 0x36E1F6, size: 0x8, addend: 0x0, symName: __ZN5boost6thread9interruptEv, symObjAddr: 0x1988, symBinAddr: 0xB4638C, symSize: 0x214 }
  - { offset: 0x36E1FE, size: 0x8, addend: 0x0, symName: __ZN5boost7pthread25pthread_mutex_scoped_lockD1Ev, symObjAddr: 0x1B9C, symBinAddr: 0xB465A0, symSize: 0x44 }
  - { offset: 0x36E8C5, size: 0x8, addend: 0x0, symName: __ZN5boost7pthread25pthread_mutex_scoped_lockD1Ev, symObjAddr: 0x1B9C, symBinAddr: 0xB465A0, symSize: 0x44 }
  - { offset: 0x36E8CD, size: 0x8, addend: 0x0, symName: __ZNK5boost6thread22interruption_requestedEv, symObjAddr: 0x1BE0, symBinAddr: 0xB465E4, symSize: 0x190 }
  - { offset: 0x36E96C, size: 0x8, addend: 0x0, symName: __ZNK5boost6thread22interruption_requestedEv, symObjAddr: 0x1BE0, symBinAddr: 0xB465E4, symSize: 0x190 }
  - { offset: 0x36E974, size: 0x8, addend: 0x0, symName: __ZN5boost6thread13native_handleEv, symObjAddr: 0x1D70, symBinAddr: 0xB46774, symSize: 0x1B4 }
  - { offset: 0x36EF17, size: 0x8, addend: 0x0, symName: __ZN5boost6thread13native_handleEv, symObjAddr: 0x1D70, symBinAddr: 0xB46774, symSize: 0x1B4 }
  - { offset: 0x36EF1F, size: 0x8, addend: 0x0, symName: __ZN5boost11this_thread18interruption_pointEv, symObjAddr: 0x1F24, symBinAddr: 0xB46928, symSize: 0x140 }
  - { offset: 0x36F50D, size: 0x8, addend: 0x0, symName: __ZN5boost11this_thread20disable_interruptionC2Ev, symObjAddr: 0x219C, symBinAddr: 0xB46BA0, symSize: 0x58 }
  - { offset: 0x36F515, size: 0x8, addend: 0x0, symName: __ZN5boost11this_thread20disable_interruptionC1Ev, symObjAddr: 0x21F4, symBinAddr: 0xB46BF8, symSize: 0x58 }
  - { offset: 0x36F58C, size: 0x8, addend: 0x0, symName: __ZN5boost11this_thread20disable_interruptionC1Ev, symObjAddr: 0x21F4, symBinAddr: 0xB46BF8, symSize: 0x58 }
  - { offset: 0x36F594, size: 0x8, addend: 0x0, symName: __ZN5boost11this_thread20disable_interruptionD2Ev, symObjAddr: 0x224C, symBinAddr: 0xB46C50, symSize: 0x38 }
  - { offset: 0x36F609, size: 0x8, addend: 0x0, symName: __ZN5boost11this_thread20disable_interruptionD2Ev, symObjAddr: 0x224C, symBinAddr: 0xB46C50, symSize: 0x38 }
  - { offset: 0x36F611, size: 0x8, addend: 0x0, symName: __ZN5boost11this_thread20disable_interruptionD1Ev, symObjAddr: 0x2284, symBinAddr: 0xB46C88, symSize: 0x38 }
  - { offset: 0x36F65E, size: 0x8, addend: 0x0, symName: __ZN5boost11this_thread20disable_interruptionD1Ev, symObjAddr: 0x2284, symBinAddr: 0xB46C88, symSize: 0x38 }
  - { offset: 0x36F666, size: 0x8, addend: 0x0, symName: __ZN5boost11this_thread20restore_interruptionC2ERNS0_20disable_interruptionE, symObjAddr: 0x22BC, symBinAddr: 0xB46CC0, symSize: 0x38 }
  - { offset: 0x36F6E0, size: 0x8, addend: 0x0, symName: __ZN5boost11this_thread20restore_interruptionC2ERNS0_20disable_interruptionE, symObjAddr: 0x22BC, symBinAddr: 0xB46CC0, symSize: 0x38 }
  - { offset: 0x36F6E8, size: 0x8, addend: 0x0, symName: __ZN5boost11this_thread20restore_interruptionC1ERNS0_20disable_interruptionE, symObjAddr: 0x22F4, symBinAddr: 0xB46CF8, symSize: 0x38 }
  - { offset: 0x36F75C, size: 0x8, addend: 0x0, symName: __ZN5boost11this_thread20restore_interruptionC1ERNS0_20disable_interruptionE, symObjAddr: 0x22F4, symBinAddr: 0xB46CF8, symSize: 0x38 }
  - { offset: 0x36F764, size: 0x8, addend: 0x0, symName: __ZN5boost11this_thread20restore_interruptionD2Ev, symObjAddr: 0x232C, symBinAddr: 0xB46D30, symSize: 0x34 }
  - { offset: 0x36F7DB, size: 0x8, addend: 0x0, symName: __ZN5boost11this_thread20restore_interruptionD2Ev, symObjAddr: 0x232C, symBinAddr: 0xB46D30, symSize: 0x34 }
  - { offset: 0x36F7E3, size: 0x8, addend: 0x0, symName: __ZN5boost11this_thread20restore_interruptionD1Ev, symObjAddr: 0x2360, symBinAddr: 0xB46D64, symSize: 0x34 }
  - { offset: 0x36F830, size: 0x8, addend: 0x0, symName: __ZN5boost11this_thread20restore_interruptionD1Ev, symObjAddr: 0x2360, symBinAddr: 0xB46D64, symSize: 0x34 }
  - { offset: 0x36F838, size: 0x8, addend: 0x0, symName: __ZN5boost6detail24add_thread_exit_functionEPNS0_25thread_exit_function_baseE, symObjAddr: 0x2394, symBinAddr: 0xB46D98, symSize: 0x84 }
  - { offset: 0x370393, size: 0x8, addend: 0x0, symName: __ZN5boost10shared_ptrINS_6detail17shared_state_baseEED1Ev, symObjAddr: 0x2A28, symBinAddr: 0xB472E8, symSize: 0x7C }
  - { offset: 0x37039B, size: 0x8, addend: 0x0, symName: __ZN5boost6detail16thread_data_base25notify_all_at_thread_exitEPNS_18condition_variableEPNS_5mutexE, symObjAddr: 0x2AA4, symBinAddr: 0xB47364, symSize: 0x120 }
  - { offset: 0x370919, size: 0x8, addend: 0x0, symName: __ZN5boost6detail16thread_data_base25notify_all_at_thread_exitEPNS_18condition_variableEPNS_5mutexE, symObjAddr: 0x2AA4, symBinAddr: 0xB47364, symSize: 0x120 }
  - { offset: 0x370921, size: 0x8, addend: 0x0, symName: __ZN5boost16exception_detail27get_static_exception_objectINS0_10bad_alloc_EEENS_13exception_ptrEv, symObjAddr: 0x2BC4, symBinAddr: 0xB47484, symSize: 0x2A0 }
  - { offset: 0x371576, size: 0x8, addend: 0x0, symName: __ZN5boost13exception_ptrD1Ev, symObjAddr: 0x2E64, symBinAddr: 0xB47724, symSize: 0x7C }
  - { offset: 0x37157E, size: 0x8, addend: 0x0, symName: __ZN5boost16exception_detail27get_static_exception_objectINS0_14bad_exception_EEENS_13exception_ptrEv, symObjAddr: 0x2EE0, symBinAddr: 0xB477A0, symSize: 0x260 }
  - { offset: 0x3719C7, size: 0x8, addend: 0x0, symName: __ZN5boost6detail17shared_state_base22mark_finished_internalERNS_11unique_lockINS_5mutexEEE, symObjAddr: 0x3140, symBinAddr: 0xB47A00, symSize: 0xD4 }
  - { offset: 0x3719CF, size: 0x8, addend: 0x0, symName: __ZN5boost6detail12shared_countD1Ev, symObjAddr: 0x3214, symBinAddr: 0xB47AD4, symSize: 0x7C }
  - { offset: 0x371CAA, size: 0x8, addend: 0x0, symName: __ZN5boost6detail12shared_countD1Ev, symObjAddr: 0x3214, symBinAddr: 0xB47AD4, symSize: 0x7C }
  - { offset: 0x371CB2, size: 0x8, addend: 0x0, symName: __ZN5boost6detail12_GLOBAL__N_114tls_destructorEPv, symObjAddr: 0x3290, symBinAddr: 0xB47B50, symSize: 0x270 }
  - { offset: 0x371E38, size: 0x8, addend: 0x0, symName: __ZN5boost6detail12_GLOBAL__N_114tls_destructorEPv, symObjAddr: 0x3290, symBinAddr: 0xB47B50, symSize: 0x270 }
  - { offset: 0x371E40, size: 0x8, addend: 0x0, symName: __ZN5boost15throw_exceptionINS_12bad_weak_ptrEEEvRKT_, symObjAddr: 0x3500, symBinAddr: 0xB47DC0, symSize: 0x48 }
  - { offset: 0x3726AA, size: 0x8, addend: 0x0, symName: __ZN5boost12bad_weak_ptrD1Ev, symObjAddr: 0x3548, symBinAddr: 0xB47E08, symSize: 0x4 }
  - { offset: 0x3726B2, size: 0x8, addend: 0x0, symName: __ZN5boost10wrapexceptINS_12bad_weak_ptrEED1Ev, symObjAddr: 0x354C, symBinAddr: 0xB47E0C, symSize: 0x58 }
  - { offset: 0x3726DF, size: 0x8, addend: 0x0, symName: __ZN5boost12bad_weak_ptrD1Ev, symObjAddr: 0x3548, symBinAddr: 0xB47E08, symSize: 0x4 }
  - { offset: 0x3726E7, size: 0x8, addend: 0x0, symName: __ZN5boost10wrapexceptINS_12bad_weak_ptrEED1Ev, symObjAddr: 0x354C, symBinAddr: 0xB47E0C, symSize: 0x58 }
  - { offset: 0x372727, size: 0x8, addend: 0x0, symName: __ZN5boost10wrapexceptINS_12bad_weak_ptrEED1Ev, symObjAddr: 0x354C, symBinAddr: 0xB47E0C, symSize: 0x58 }
  - { offset: 0x37272F, size: 0x8, addend: 0x0, symName: __ZNK5boost10wrapexceptINS_12bad_weak_ptrEE5cloneEv, symObjAddr: 0x35A4, symBinAddr: 0xB47E64, symSize: 0xEC }
  - { offset: 0x372909, size: 0x8, addend: 0x0, symName: __ZNK5boost10wrapexceptINS_12bad_weak_ptrEE5cloneEv, symObjAddr: 0x35A4, symBinAddr: 0xB47E64, symSize: 0xEC }
  - { offset: 0x372911, size: 0x8, addend: 0x0, symName: __ZNK5boost10wrapexceptINS_12bad_weak_ptrEE7rethrowEv, symObjAddr: 0x3690, symBinAddr: 0xB47F50, symSize: 0x50 }
  - { offset: 0x372B02, size: 0x8, addend: 0x0, symName: __ZNK5boost10wrapexceptINS_12bad_weak_ptrEE7rethrowEv, symObjAddr: 0x3690, symBinAddr: 0xB47F50, symSize: 0x50 }
  - { offset: 0x372B1F, size: 0x8, addend: 0x0, symName: __ZNK5boost10wrapexceptINS_12bad_weak_ptrEE7rethrowEv, symObjAddr: 0x3690, symBinAddr: 0xB47F50, symSize: 0x50 }
  - { offset: 0x372B2E, size: 0x8, addend: 0x0, symName: __ZNK5boost10wrapexceptINS_12bad_weak_ptrEE7rethrowEv, symObjAddr: 0x3690, symBinAddr: 0xB47F50, symSize: 0x50 }
  - { offset: 0x372B36, size: 0x8, addend: 0x0, symName: __ZN5boost10wrapexceptINS_12bad_weak_ptrEED0Ev, symObjAddr: 0x36E0, symBinAddr: 0xB47FA0, symSize: 0x58 }
  - { offset: 0x372B87, size: 0x8, addend: 0x0, symName: __ZN5boost10wrapexceptINS_12bad_weak_ptrEED0Ev, symObjAddr: 0x36E0, symBinAddr: 0xB47FA0, symSize: 0x58 }
  - { offset: 0x372B8F, size: 0x8, addend: 0x0, symName: __ZThn8_N5boost10wrapexceptINS_12bad_weak_ptrEED1Ev, symObjAddr: 0x3738, symBinAddr: 0xB47FF8, symSize: 0x50 }
  - { offset: 0x372C9D, size: 0x8, addend: 0x0, symName: __ZThn8_N5boost10wrapexceptINS_12bad_weak_ptrEED1Ev, symObjAddr: 0x3738, symBinAddr: 0xB47FF8, symSize: 0x50 }
  - { offset: 0x372CA5, size: 0x8, addend: 0x0, symName: __ZThn8_N5boost10wrapexceptINS_12bad_weak_ptrEED0Ev, symObjAddr: 0x3788, symBinAddr: 0xB48048, symSize: 0x5C }
  - { offset: 0x372CCA, size: 0x8, addend: 0x0, symName: __ZThn8_N5boost10wrapexceptINS_12bad_weak_ptrEED0Ev, symObjAddr: 0x3788, symBinAddr: 0xB48048, symSize: 0x5C }
  - { offset: 0x372CF0, size: 0x8, addend: 0x0, symName: __ZThn8_N5boost10wrapexceptINS_12bad_weak_ptrEED0Ev, symObjAddr: 0x3788, symBinAddr: 0xB48048, symSize: 0x5C }
  - { offset: 0x372DD8, size: 0x8, addend: 0x0, symName: __ZThn8_N5boost10wrapexceptINS_12bad_weak_ptrEED0Ev, symObjAddr: 0x3788, symBinAddr: 0xB48048, symSize: 0x5C }
  - { offset: 0x372DE0, size: 0x8, addend: 0x0, symName: __ZNK5boost12bad_weak_ptr4whatEv, symObjAddr: 0x37E4, symBinAddr: 0xB480A4, symSize: 0xC }
  - { offset: 0x372EFC, size: 0x8, addend: 0x0, symName: __ZNK5boost12bad_weak_ptr4whatEv, symObjAddr: 0x37E4, symBinAddr: 0xB480A4, symSize: 0xC }
  - { offset: 0x372F04, size: 0x8, addend: 0x0, symName: __ZThn16_N5boost10wrapexceptINS_12bad_weak_ptrEED1Ev, symObjAddr: 0x37F0, symBinAddr: 0xB480B0, symSize: 0x50 }
  - { offset: 0x372F31, size: 0x8, addend: 0x0, symName: __ZThn16_N5boost10wrapexceptINS_12bad_weak_ptrEED1Ev, symObjAddr: 0x37F0, symBinAddr: 0xB480B0, symSize: 0x50 }
  - { offset: 0x372F39, size: 0x8, addend: 0x0, symName: __ZThn16_N5boost10wrapexceptINS_12bad_weak_ptrEED0Ev, symObjAddr: 0x3840, symBinAddr: 0xB48100, symSize: 0x5C }
  - { offset: 0x372F5E, size: 0x8, addend: 0x0, symName: __ZThn16_N5boost10wrapexceptINS_12bad_weak_ptrEED0Ev, symObjAddr: 0x3840, symBinAddr: 0xB48100, symSize: 0x5C }
  - { offset: 0x372F84, size: 0x8, addend: 0x0, symName: __ZThn16_N5boost10wrapexceptINS_12bad_weak_ptrEED0Ev, symObjAddr: 0x3840, symBinAddr: 0xB48100, symSize: 0x5C }
  - { offset: 0x373049, size: 0x8, addend: 0x0, symName: __ZThn16_N5boost10wrapexceptINS_12bad_weak_ptrEED0Ev, symObjAddr: 0x3840, symBinAddr: 0xB48100, symSize: 0x5C }
  - { offset: 0x373051, size: 0x8, addend: 0x0, symName: __ZN5boost16exception_detail10clone_baseD1Ev, symObjAddr: 0x389C, symBinAddr: 0xC46BCC, symSize: 0x4 }
  - { offset: 0x373171, size: 0x8, addend: 0x0, symName: __ZN5boost16exception_detail10clone_baseD1Ev, symObjAddr: 0x389C, symBinAddr: 0xC46BCC, symSize: 0x4 }
  - { offset: 0x373179, size: 0x8, addend: 0x0, symName: __ZN5boost16exception_detail10clone_baseD0Ev, symObjAddr: 0x38A0, symBinAddr: 0xC46BD0, symSize: 0x4 }
  - { offset: 0x3731A8, size: 0x8, addend: 0x0, symName: __ZN5boost16exception_detail10clone_baseD0Ev, symObjAddr: 0x38A0, symBinAddr: 0xC46BD0, symSize: 0x4 }
  - { offset: 0x3731B0, size: 0x8, addend: 0x0, symName: __ZN5boost12bad_weak_ptrD0Ev, symObjAddr: 0x38A4, symBinAddr: 0xB4815C, symSize: 0x14 }
  - { offset: 0x3731DF, size: 0x8, addend: 0x0, symName: __ZN5boost12bad_weak_ptrD0Ev, symObjAddr: 0x38A4, symBinAddr: 0xB4815C, symSize: 0x14 }
  - { offset: 0x3731E7, size: 0x8, addend: 0x0, symName: __ZN5boost10wrapexceptINS_12bad_weak_ptrEEC1ERKS2_, symObjAddr: 0x38B8, symBinAddr: 0xB48170, symSize: 0xAC }
  - { offset: 0x37326B, size: 0x8, addend: 0x0, symName: __ZN5boost10wrapexceptINS_12bad_weak_ptrEEC1ERKS2_, symObjAddr: 0x38B8, symBinAddr: 0xB48170, symSize: 0xAC }
  - { offset: 0x373273, size: 0x8, addend: 0x0, symName: __ZN5boost16exception_detail20copy_boost_exceptionEPNS_9exceptionEPKS1_, symObjAddr: 0x3964, symBinAddr: 0xB4821C, symSize: 0x138 }
  - { offset: 0x3733E8, size: 0x8, addend: 0x0, symName: __ZN5boost16exception_detail20copy_boost_exceptionEPNS_9exceptionEPKS1_, symObjAddr: 0x3964, symBinAddr: 0xB4821C, symSize: 0x138 }
  - { offset: 0x373488, size: 0x8, addend: 0x0, symName: __ZN5boost6detail20interruption_checker16unlock_if_lockedEv, symObjAddr: 0x3E60, symBinAddr: 0xB48354, symSize: 0x14C }
  - { offset: 0x373490, size: 0x8, addend: 0x0, symName: __ZN5boost15throw_exceptionINS_15condition_errorEEEvRKT_, symObjAddr: 0x3FAC, symBinAddr: 0xB484A0, symSize: 0x50 }
  - { offset: 0x3738AC, size: 0x8, addend: 0x0, symName: __ZN5boost15condition_errorC1EiPKc, symObjAddr: 0x3FFC, symBinAddr: 0xB484F0, symSize: 0xB0 }
  - { offset: 0x3738B4, size: 0x8, addend: 0x0, symName: __ZN5boost15condition_errorD1Ev, symObjAddr: 0x40AC, symBinAddr: 0xB485A0, symSize: 0x4 }
  - { offset: 0x3739C2, size: 0x8, addend: 0x0, symName: __ZN5boost15condition_errorD1Ev, symObjAddr: 0x40AC, symBinAddr: 0xB485A0, symSize: 0x4 }
  - { offset: 0x3739CA, size: 0x8, addend: 0x0, symName: __ZN5boost6detail20interruption_checkerC2EP23_opaque_pthread_mutex_tP22_opaque_pthread_cond_t, symObjAddr: 0x40B0, symBinAddr: 0xB485A4, symSize: 0x1A8 }
  - { offset: 0x3739F7, size: 0x8, addend: 0x0, symName: __ZN5boost15condition_errorD1Ev, symObjAddr: 0x40AC, symBinAddr: 0xB485A0, symSize: 0x4 }
  - { offset: 0x3739FF, size: 0x8, addend: 0x0, symName: __ZN5boost6detail20interruption_checkerC2EP23_opaque_pthread_mutex_tP22_opaque_pthread_cond_t, symObjAddr: 0x40B0, symBinAddr: 0xB485A4, symSize: 0x1A8 }
  - { offset: 0x373A20, size: 0x8, addend: 0x0, symName: __ZN5boost15condition_errorD1Ev, symObjAddr: 0x40AC, symBinAddr: 0xB485A0, symSize: 0x4 }
  - { offset: 0x373A28, size: 0x8, addend: 0x0, symName: __ZN5boost6detail20interruption_checkerC2EP23_opaque_pthread_mutex_tP22_opaque_pthread_cond_t, symObjAddr: 0x40B0, symBinAddr: 0xB485A4, symSize: 0x1A8 }
  - { offset: 0x373A63, size: 0x8, addend: 0x0, symName: __ZN5boost6detail20interruption_checkerC2EP23_opaque_pthread_mutex_tP22_opaque_pthread_cond_t, symObjAddr: 0x40B0, symBinAddr: 0xB485A4, symSize: 0x1A8 }
  - { offset: 0x373A6B, size: 0x8, addend: 0x0, symName: __ZN5boost11unique_lockINS_5mutexEE6unlockEv, symObjAddr: 0x4258, symBinAddr: 0xB4874C, symSize: 0xB0 }
  - { offset: 0x373E59, size: 0x8, addend: 0x0, symName: __ZN5boost11unique_lockINS_5mutexEE6unlockEv, symObjAddr: 0x4258, symBinAddr: 0xB4874C, symSize: 0xB0 }
  - { offset: 0x373E61, size: 0x8, addend: 0x0, symName: __ZN5boost15throw_exceptionINS_10lock_errorEEEvRKT_, symObjAddr: 0x4308, symBinAddr: 0xB487FC, symSize: 0x50 }
  - { offset: 0x373F12, size: 0x8, addend: 0x0, symName: __ZN5boost15throw_exceptionINS_10lock_errorEEEvRKT_, symObjAddr: 0x4308, symBinAddr: 0xB487FC, symSize: 0x50 }
  - { offset: 0x373F2E, size: 0x8, addend: 0x0, symName: __ZN5boost15throw_exceptionINS_10lock_errorEEEvRKT_, symObjAddr: 0x4308, symBinAddr: 0xB487FC, symSize: 0x50 }
  - { offset: 0x373F4B, size: 0x8, addend: 0x0, symName: __ZN5boost15throw_exceptionINS_10lock_errorEEEvRKT_, symObjAddr: 0x4308, symBinAddr: 0xB487FC, symSize: 0x50 }
  - { offset: 0x373F68, size: 0x8, addend: 0x0, symName: __ZN5boost15throw_exceptionINS_10lock_errorEEEvRKT_, symObjAddr: 0x4308, symBinAddr: 0xB487FC, symSize: 0x50 }
  - { offset: 0x373F79, size: 0x8, addend: 0x0, symName: __ZN5boost10lock_errorC1EiPKc, symObjAddr: 0x4358, symBinAddr: 0xB4884C, symSize: 0xB0 }
  - { offset: 0x373F81, size: 0x8, addend: 0x0, symName: __ZN5boost10lock_errorD1Ev, symObjAddr: 0x4408, symBinAddr: 0xB488FC, symSize: 0x4 }
  - { offset: 0x374098, size: 0x8, addend: 0x0, symName: __ZN5boost10lock_errorD1Ev, symObjAddr: 0x4408, symBinAddr: 0xB488FC, symSize: 0x4 }
  - { offset: 0x3740A0, size: 0x8, addend: 0x0, symName: __ZN5boost10wrapexceptINS_10lock_errorEEC1ERKS1_, symObjAddr: 0x440C, symBinAddr: 0xB48900, symSize: 0x80 }
  - { offset: 0x3740CD, size: 0x8, addend: 0x0, symName: __ZN5boost10lock_errorD1Ev, symObjAddr: 0x4408, symBinAddr: 0xB488FC, symSize: 0x4 }
  - { offset: 0x3740D5, size: 0x8, addend: 0x0, symName: __ZN5boost10wrapexceptINS_10lock_errorEEC1ERKS1_, symObjAddr: 0x440C, symBinAddr: 0xB48900, symSize: 0x80 }
  - { offset: 0x3740F6, size: 0x8, addend: 0x0, symName: __ZN5boost10lock_errorD1Ev, symObjAddr: 0x4408, symBinAddr: 0xB488FC, symSize: 0x4 }
  - { offset: 0x3740FE, size: 0x8, addend: 0x0, symName: __ZN5boost10wrapexceptINS_10lock_errorEEC1ERKS1_, symObjAddr: 0x440C, symBinAddr: 0xB48900, symSize: 0x80 }
  - { offset: 0x37411F, size: 0x8, addend: 0x0, symName: __ZN5boost10lock_errorD1Ev, symObjAddr: 0x4408, symBinAddr: 0xB488FC, symSize: 0x4 }
  - { offset: 0x374127, size: 0x8, addend: 0x0, symName: __ZN5boost10wrapexceptINS_10lock_errorEEC1ERKS1_, symObjAddr: 0x440C, symBinAddr: 0xB48900, symSize: 0x80 }
  - { offset: 0x374243, size: 0x8, addend: 0x0, symName: __ZN5boost10wrapexceptINS_10lock_errorEEC1ERKS1_, symObjAddr: 0x440C, symBinAddr: 0xB48900, symSize: 0x80 }
  - { offset: 0x37424B, size: 0x8, addend: 0x0, symName: __ZN5boost10wrapexceptINS_10lock_errorEED1Ev, symObjAddr: 0x448C, symBinAddr: 0xB48980, symSize: 0x58 }
  - { offset: 0x3743AE, size: 0x8, addend: 0x0, symName: __ZN5boost10wrapexceptINS_10lock_errorEED1Ev, symObjAddr: 0x448C, symBinAddr: 0xB48980, symSize: 0x58 }
  - { offset: 0x3743B6, size: 0x8, addend: 0x0, symName: __ZNK5boost10wrapexceptINS_10lock_errorEE5cloneEv, symObjAddr: 0x44E4, symBinAddr: 0xB489D8, symSize: 0x110 }
  - { offset: 0x3745B6, size: 0x8, addend: 0x0, symName: __ZNK5boost10wrapexceptINS_10lock_errorEE5cloneEv, symObjAddr: 0x44E4, symBinAddr: 0xB489D8, symSize: 0x110 }
  - { offset: 0x3745BE, size: 0x8, addend: 0x0, symName: __ZNK5boost10wrapexceptINS_10lock_errorEE7rethrowEv, symObjAddr: 0x45F4, symBinAddr: 0xB48AE8, symSize: 0x50 }
  - { offset: 0x37489B, size: 0x8, addend: 0x0, symName: __ZNK5boost10wrapexceptINS_10lock_errorEE7rethrowEv, symObjAddr: 0x45F4, symBinAddr: 0xB48AE8, symSize: 0x50 }
  - { offset: 0x3748B8, size: 0x8, addend: 0x0, symName: __ZNK5boost10wrapexceptINS_10lock_errorEE7rethrowEv, symObjAddr: 0x45F4, symBinAddr: 0xB48AE8, symSize: 0x50 }
  - { offset: 0x3748C7, size: 0x8, addend: 0x0, symName: __ZNK5boost10wrapexceptINS_10lock_errorEE7rethrowEv, symObjAddr: 0x45F4, symBinAddr: 0xB48AE8, symSize: 0x50 }
  - { offset: 0x3748CF, size: 0x8, addend: 0x0, symName: __ZN5boost10wrapexceptINS_10lock_errorEED0Ev, symObjAddr: 0x4644, symBinAddr: 0xB48B38, symSize: 0x58 }
  - { offset: 0x374920, size: 0x8, addend: 0x0, symName: __ZN5boost10wrapexceptINS_10lock_errorEED0Ev, symObjAddr: 0x4644, symBinAddr: 0xB48B38, symSize: 0x58 }
  - { offset: 0x374928, size: 0x8, addend: 0x0, symName: __ZThn8_N5boost10wrapexceptINS_10lock_errorEED1Ev, symObjAddr: 0x469C, symBinAddr: 0xB48B90, symSize: 0x50 }
  - { offset: 0x374A8A, size: 0x8, addend: 0x0, symName: __ZThn8_N5boost10wrapexceptINS_10lock_errorEED1Ev, symObjAddr: 0x469C, symBinAddr: 0xB48B90, symSize: 0x50 }
  - { offset: 0x374A92, size: 0x8, addend: 0x0, symName: __ZThn8_N5boost10wrapexceptINS_10lock_errorEED0Ev, symObjAddr: 0x46EC, symBinAddr: 0xB48BE0, symSize: 0x5C }
  - { offset: 0x374AB7, size: 0x8, addend: 0x0, symName: __ZThn8_N5boost10wrapexceptINS_10lock_errorEED0Ev, symObjAddr: 0x46EC, symBinAddr: 0xB48BE0, symSize: 0x5C }
  - { offset: 0x374ADD, size: 0x8, addend: 0x0, symName: __ZThn8_N5boost10wrapexceptINS_10lock_errorEED0Ev, symObjAddr: 0x46EC, symBinAddr: 0xB48BE0, symSize: 0x5C }
  - { offset: 0x374C1D, size: 0x8, addend: 0x0, symName: __ZThn8_N5boost10wrapexceptINS_10lock_errorEED0Ev, symObjAddr: 0x46EC, symBinAddr: 0xB48BE0, symSize: 0x5C }
  - { offset: 0x374C25, size: 0x8, addend: 0x0, symName: __ZThn48_N5boost10wrapexceptINS_10lock_errorEED1Ev, symObjAddr: 0x4748, symBinAddr: 0xB48C3C, symSize: 0x50 }
  - { offset: 0x374D95, size: 0x8, addend: 0x0, symName: __ZThn48_N5boost10wrapexceptINS_10lock_errorEED1Ev, symObjAddr: 0x4748, symBinAddr: 0xB48C3C, symSize: 0x50 }
  - { offset: 0x374D9D, size: 0x8, addend: 0x0, symName: __ZThn48_N5boost10wrapexceptINS_10lock_errorEED0Ev, symObjAddr: 0x4798, symBinAddr: 0xB48C8C, symSize: 0x5C }
  - { offset: 0x374DC2, size: 0x8, addend: 0x0, symName: __ZThn48_N5boost10wrapexceptINS_10lock_errorEED0Ev, symObjAddr: 0x4798, symBinAddr: 0xB48C8C, symSize: 0x5C }
  - { offset: 0x374DE8, size: 0x8, addend: 0x0, symName: __ZThn48_N5boost10wrapexceptINS_10lock_errorEED0Ev, symObjAddr: 0x4798, symBinAddr: 0xB48C8C, symSize: 0x5C }
  - { offset: 0x374F01, size: 0x8, addend: 0x0, symName: __ZThn48_N5boost10wrapexceptINS_10lock_errorEED0Ev, symObjAddr: 0x4798, symBinAddr: 0xB48C8C, symSize: 0x5C }
  - { offset: 0x374F09, size: 0x8, addend: 0x0, symName: __ZN5boost10lock_errorD0Ev, symObjAddr: 0x47F4, symBinAddr: 0xB48CE8, symSize: 0x14 }
  - { offset: 0x37507D, size: 0x8, addend: 0x0, symName: __ZN5boost10lock_errorD0Ev, symObjAddr: 0x47F4, symBinAddr: 0xB48CE8, symSize: 0x14 }
  - { offset: 0x375085, size: 0x8, addend: 0x0, symName: __ZN5boost6system12system_errorD1Ev, symObjAddr: 0x4808, symBinAddr: 0xB48CFC, symSize: 0x4 }
  - { offset: 0x37515B, size: 0x8, addend: 0x0, symName: __ZN5boost6system12system_errorD1Ev, symObjAddr: 0x4808, symBinAddr: 0xB48CFC, symSize: 0x4 }
  - { offset: 0x375163, size: 0x8, addend: 0x0, symName: __ZN5boost6system12system_errorD0Ev, symObjAddr: 0x480C, symBinAddr: 0xB48D00, symSize: 0x14 }
  - { offset: 0x375190, size: 0x8, addend: 0x0, symName: __ZN5boost6system12system_errorD1Ev, symObjAddr: 0x4808, symBinAddr: 0xB48CFC, symSize: 0x4 }
  - { offset: 0x375198, size: 0x8, addend: 0x0, symName: __ZN5boost6system12system_errorD0Ev, symObjAddr: 0x480C, symBinAddr: 0xB48D00, symSize: 0x14 }
  - { offset: 0x3751D8, size: 0x8, addend: 0x0, symName: __ZN5boost6system12system_errorD0Ev, symObjAddr: 0x480C, symBinAddr: 0xB48D00, symSize: 0x14 }
  - { offset: 0x3751E0, size: 0x8, addend: 0x0, symName: __ZN5boost10wrapexceptINS_10lock_errorEEC1ERKS2_, symObjAddr: 0x4820, symBinAddr: 0xB48D14, symSize: 0xE0 }
  - { offset: 0x375264, size: 0x8, addend: 0x0, symName: __ZN5boost10wrapexceptINS_10lock_errorEEC1ERKS2_, symObjAddr: 0x4820, symBinAddr: 0xB48D14, symSize: 0xE0 }
  - { offset: 0x37526C, size: 0x8, addend: 0x0, symName: __ZN5boost6system12system_errorC2ERKNS0_10error_codeEPKc, symObjAddr: 0x4900, symBinAddr: 0xB48DF4, symSize: 0x250 }
  - { offset: 0x375449, size: 0x8, addend: 0x0, symName: __ZN5boost6system12system_errorC2ERKNS0_10error_codeEPKc, symObjAddr: 0x4900, symBinAddr: 0xB48DF4, symSize: 0x250 }
  - { offset: 0x375472, size: 0x8, addend: 0x0, symName: __ZN5boost6system12system_errorC2ERKNS0_10error_codeEPKc, symObjAddr: 0x4900, symBinAddr: 0xB48DF4, symSize: 0x250 }
  - { offset: 0x37549B, size: 0x8, addend: 0x0, symName: __ZN5boost6system12system_errorC2ERKNS0_10error_codeEPKc, symObjAddr: 0x4900, symBinAddr: 0xB48DF4, symSize: 0x250 }
  - { offset: 0x3759A5, size: 0x8, addend: 0x0, symName: __ZN5boost6system12system_errorC2ERKNS0_10error_codeEPKc, symObjAddr: 0x4900, symBinAddr: 0xB48DF4, symSize: 0x250 }
  - { offset: 0x3759AD, size: 0x8, addend: 0x0, symName: __ZNK5boost6system6detail22generic_error_category4nameEv, symObjAddr: 0x4B50, symBinAddr: 0xB49044, symSize: 0xC }
  - { offset: 0x376BEB, size: 0x8, addend: 0x0, symName: __ZNK5boost6system6detail22generic_error_category4nameEv, symObjAddr: 0x4B50, symBinAddr: 0xB49044, symSize: 0xC }
  - { offset: 0x376C21, size: 0x8, addend: 0x0, symName: __ZNK5boost6system6detail22generic_error_category4nameEv, symObjAddr: 0x4B50, symBinAddr: 0xB49044, symSize: 0xC }
  - { offset: 0x376C57, size: 0x8, addend: 0x0, symName: __ZNK5boost6system6detail22generic_error_category4nameEv, symObjAddr: 0x4B50, symBinAddr: 0xB49044, symSize: 0xC }
  - { offset: 0x376C8C, size: 0x8, addend: 0x0, symName: __ZNK5boost6system6detail22generic_error_category4nameEv, symObjAddr: 0x4B50, symBinAddr: 0xB49044, symSize: 0xC }
  - { offset: 0x376CB8, size: 0x8, addend: 0x0, symName: __ZNK5boost6system6detail22generic_error_category4nameEv, symObjAddr: 0x4B50, symBinAddr: 0xB49044, symSize: 0xC }
  - { offset: 0x376CDC, size: 0x8, addend: 0x0, symName: __ZNK5boost6system6detail22generic_error_category4nameEv, symObjAddr: 0x4B50, symBinAddr: 0xB49044, symSize: 0xC }
  - { offset: 0x376CE4, size: 0x8, addend: 0x0, symName: __ZNK5boost6system14error_category23default_error_conditionEi, symObjAddr: 0x4B5C, symBinAddr: 0xB49050, symSize: 0x10 }
  - { offset: 0x376D11, size: 0x8, addend: 0x0, symName: __ZNK5boost6system14error_category23default_error_conditionEi, symObjAddr: 0x4B5C, symBinAddr: 0xB49050, symSize: 0x10 }
  - { offset: 0x376D19, size: 0x8, addend: 0x0, symName: __ZNK5boost6system14error_category10equivalentEiRKNS0_15error_conditionE, symObjAddr: 0x4B6C, symBinAddr: 0xB49060, symSize: 0xB4 }
  - { offset: 0x376D84, size: 0x8, addend: 0x0, symName: __ZNK5boost6system14error_category10equivalentEiRKNS0_15error_conditionE, symObjAddr: 0x4B6C, symBinAddr: 0xB49060, symSize: 0xB4 }
  - { offset: 0x376D8C, size: 0x8, addend: 0x0, symName: __ZNK5boost6system14error_category10equivalentERKNS0_10error_codeEi, symObjAddr: 0x4C20, symBinAddr: 0xB49114, symSize: 0xD4 }
  - { offset: 0x376F29, size: 0x8, addend: 0x0, symName: __ZNK5boost6system14error_category10equivalentERKNS0_10error_codeEi, symObjAddr: 0x4C20, symBinAddr: 0xB49114, symSize: 0xD4 }
  - { offset: 0x376F31, size: 0x8, addend: 0x0, symName: __ZNK5boost6system6detail22generic_error_category7messageEi, symObjAddr: 0x4CF4, symBinAddr: 0xB491E8, symSize: 0xC4 }
  - { offset: 0x377083, size: 0x8, addend: 0x0, symName: __ZNK5boost6system6detail22generic_error_category7messageEi, symObjAddr: 0x4CF4, symBinAddr: 0xB491E8, symSize: 0xC4 }
  - { offset: 0x37708B, size: 0x8, addend: 0x0, symName: __ZNK5boost6system6detail22generic_error_category7messageEiPcm, symObjAddr: 0x4DB8, symBinAddr: 0xB492AC, symSize: 0x70 }
  - { offset: 0x3775F7, size: 0x8, addend: 0x0, symName: __ZNK5boost6system6detail22generic_error_category7messageEiPcm, symObjAddr: 0x4DB8, symBinAddr: 0xB492AC, symSize: 0x70 }
  - { offset: 0x3775FF, size: 0x8, addend: 0x0, symName: __ZNK5boost6system14error_category6failedEi, symObjAddr: 0x4E28, symBinAddr: 0xB4931C, symSize: 0xC }
  - { offset: 0x3776B2, size: 0x8, addend: 0x0, symName: __ZNK5boost6system14error_category6failedEi, symObjAddr: 0x4E28, symBinAddr: 0xB4931C, symSize: 0xC }
  - { offset: 0x377795, size: 0x8, addend: 0x0, symName: __ZNK5boost6system10error_code4whatEv, symObjAddr: 0x4EE4, symBinAddr: 0xB49328, symSize: 0x16C }
  - { offset: 0x37779D, size: 0x8, addend: 0x0, symName: __ZNK5boost6system10error_code7messageEv, symObjAddr: 0x5050, symBinAddr: 0xB49494, symSize: 0x110 }
  - { offset: 0x377F4B, size: 0x8, addend: 0x0, symName: __ZNK5boost6system10error_code7messageEv, symObjAddr: 0x5050, symBinAddr: 0xB49494, symSize: 0x110 }
  - { offset: 0x377F77, size: 0x8, addend: 0x0, symName: __ZNK5boost6system10error_code7messageEv, symObjAddr: 0x5050, symBinAddr: 0xB49494, symSize: 0x110 }
  - { offset: 0x377FA3, size: 0x8, addend: 0x0, symName: __ZNK5boost6system10error_code7messageEv, symObjAddr: 0x5050, symBinAddr: 0xB49494, symSize: 0x110 }
  - { offset: 0x377FD8, size: 0x8, addend: 0x0, symName: __ZNK5boost6system10error_code7messageEv, symObjAddr: 0x5050, symBinAddr: 0xB49494, symSize: 0x110 }
  - { offset: 0x378004, size: 0x8, addend: 0x0, symName: __ZNK5boost6system10error_code7messageEv, symObjAddr: 0x5050, symBinAddr: 0xB49494, symSize: 0x110 }
  - { offset: 0x378047, size: 0x8, addend: 0x0, symName: __ZNK5boost6system10error_code7messageEv, symObjAddr: 0x5050, symBinAddr: 0xB49494, symSize: 0x110 }
  - { offset: 0x37804F, size: 0x8, addend: 0x0, symName: __ZNK5boost6system10error_code9to_stringEv, symObjAddr: 0x5160, symBinAddr: 0xB495A4, symSize: 0x20C }
  - { offset: 0x3786D7, size: 0x8, addend: 0x0, symName: __ZNK5boost6system10error_code9to_stringEv, symObjAddr: 0x5160, symBinAddr: 0xB495A4, symSize: 0x20C }
  - { offset: 0x3786DF, size: 0x8, addend: 0x0, symName: __ZNK5boost15source_location9to_stringEv, symObjAddr: 0x536C, symBinAddr: 0xB497B0, symSize: 0x1D4 }
  - { offset: 0x3792FA, size: 0x8, addend: 0x0, symName: __ZNK5boost15source_location9to_stringEv, symObjAddr: 0x536C, symBinAddr: 0xB497B0, symSize: 0x1D4 }
  - { offset: 0x379302, size: 0x8, addend: 0x0, symName: __ZN5boost6system6detail8snprintfEPcmPKcz, symObjAddr: 0x5540, symBinAddr: 0xB49984, symSize: 0x28 }
  - { offset: 0x37A008, size: 0x8, addend: 0x0, symName: __ZN5boost11unique_lockINS_5mutexEE4lockEv, symObjAddr: 0x5568, symBinAddr: 0xB499AC, symSize: 0xEC }
  - { offset: 0x37A010, size: 0x8, addend: 0x0, symName: __ZN5boost10wrapexceptINS_15condition_errorEEC1ERKS1_, symObjAddr: 0x5654, symBinAddr: 0xB49A98, symSize: 0x80 }
  - { offset: 0x37A10F, size: 0x8, addend: 0x0, symName: __ZN5boost10wrapexceptINS_15condition_errorEEC1ERKS1_, symObjAddr: 0x5654, symBinAddr: 0xB49A98, symSize: 0x80 }
  - { offset: 0x37A117, size: 0x8, addend: 0x0, symName: __ZN5boost10wrapexceptINS_15condition_errorEED1Ev, symObjAddr: 0x56D4, symBinAddr: 0xB49B18, symSize: 0x58 }
  - { offset: 0x37A250, size: 0x8, addend: 0x0, symName: __ZN5boost10wrapexceptINS_15condition_errorEED1Ev, symObjAddr: 0x56D4, symBinAddr: 0xB49B18, symSize: 0x58 }
  - { offset: 0x37A258, size: 0x8, addend: 0x0, symName: __ZNK5boost10wrapexceptINS_15condition_errorEE5cloneEv, symObjAddr: 0x572C, symBinAddr: 0xB49B70, symSize: 0x110 }
  - { offset: 0x37A42E, size: 0x8, addend: 0x0, symName: __ZNK5boost10wrapexceptINS_15condition_errorEE5cloneEv, symObjAddr: 0x572C, symBinAddr: 0xB49B70, symSize: 0x110 }
  - { offset: 0x37A436, size: 0x8, addend: 0x0, symName: __ZNK5boost10wrapexceptINS_15condition_errorEE7rethrowEv, symObjAddr: 0x583C, symBinAddr: 0xB49C80, symSize: 0x50 }
  - { offset: 0x37A6B1, size: 0x8, addend: 0x0, symName: __ZNK5boost10wrapexceptINS_15condition_errorEE7rethrowEv, symObjAddr: 0x583C, symBinAddr: 0xB49C80, symSize: 0x50 }
  - { offset: 0x37A6CE, size: 0x8, addend: 0x0, symName: __ZNK5boost10wrapexceptINS_15condition_errorEE7rethrowEv, symObjAddr: 0x583C, symBinAddr: 0xB49C80, symSize: 0x50 }
  - { offset: 0x37A6DD, size: 0x8, addend: 0x0, symName: __ZNK5boost10wrapexceptINS_15condition_errorEE7rethrowEv, symObjAddr: 0x583C, symBinAddr: 0xB49C80, symSize: 0x50 }
  - { offset: 0x37A6E5, size: 0x8, addend: 0x0, symName: __ZN5boost10wrapexceptINS_15condition_errorEED0Ev, symObjAddr: 0x588C, symBinAddr: 0xB49CD0, symSize: 0x58 }
  - { offset: 0x37A736, size: 0x8, addend: 0x0, symName: __ZN5boost10wrapexceptINS_15condition_errorEED0Ev, symObjAddr: 0x588C, symBinAddr: 0xB49CD0, symSize: 0x58 }
  - { offset: 0x37A73E, size: 0x8, addend: 0x0, symName: __ZThn8_N5boost10wrapexceptINS_15condition_errorEED1Ev, symObjAddr: 0x58E4, symBinAddr: 0xB49D28, symSize: 0x50 }
  - { offset: 0x37A876, size: 0x8, addend: 0x0, symName: __ZThn8_N5boost10wrapexceptINS_15condition_errorEED1Ev, symObjAddr: 0x58E4, symBinAddr: 0xB49D28, symSize: 0x50 }
  - { offset: 0x37A87E, size: 0x8, addend: 0x0, symName: __ZThn8_N5boost10wrapexceptINS_15condition_errorEED0Ev, symObjAddr: 0x5934, symBinAddr: 0xB49D78, symSize: 0x5C }
  - { offset: 0x37A8A3, size: 0x8, addend: 0x0, symName: __ZThn8_N5boost10wrapexceptINS_15condition_errorEED0Ev, symObjAddr: 0x5934, symBinAddr: 0xB49D78, symSize: 0x5C }
  - { offset: 0x37A8C9, size: 0x8, addend: 0x0, symName: __ZThn8_N5boost10wrapexceptINS_15condition_errorEED0Ev, symObjAddr: 0x5934, symBinAddr: 0xB49D78, symSize: 0x5C }
  - { offset: 0x37A9DD, size: 0x8, addend: 0x0, symName: __ZThn8_N5boost10wrapexceptINS_15condition_errorEED0Ev, symObjAddr: 0x5934, symBinAddr: 0xB49D78, symSize: 0x5C }
  - { offset: 0x37A9E5, size: 0x8, addend: 0x0, symName: __ZThn48_N5boost10wrapexceptINS_15condition_errorEED1Ev, symObjAddr: 0x5990, symBinAddr: 0xB49DD4, symSize: 0x50 }
  - { offset: 0x37AB2B, size: 0x8, addend: 0x0, symName: __ZThn48_N5boost10wrapexceptINS_15condition_errorEED1Ev, symObjAddr: 0x5990, symBinAddr: 0xB49DD4, symSize: 0x50 }
  - { offset: 0x37AB33, size: 0x8, addend: 0x0, symName: __ZThn48_N5boost10wrapexceptINS_15condition_errorEED0Ev, symObjAddr: 0x59E0, symBinAddr: 0xB49E24, symSize: 0x5C }
  - { offset: 0x37AB58, size: 0x8, addend: 0x0, symName: __ZThn48_N5boost10wrapexceptINS_15condition_errorEED0Ev, symObjAddr: 0x59E0, symBinAddr: 0xB49E24, symSize: 0x5C }
  - { offset: 0x37AB7E, size: 0x8, addend: 0x0, symName: __ZThn48_N5boost10wrapexceptINS_15condition_errorEED0Ev, symObjAddr: 0x59E0, symBinAddr: 0xB49E24, symSize: 0x5C }
  - { offset: 0x37AC6D, size: 0x8, addend: 0x0, symName: __ZThn48_N5boost10wrapexceptINS_15condition_errorEED0Ev, symObjAddr: 0x59E0, symBinAddr: 0xB49E24, symSize: 0x5C }
  - { offset: 0x37AC75, size: 0x8, addend: 0x0, symName: __ZN5boost15condition_errorD0Ev, symObjAddr: 0x5A3C, symBinAddr: 0xB49E80, symSize: 0x14 }
  - { offset: 0x37ADBF, size: 0x8, addend: 0x0, symName: __ZN5boost15condition_errorD0Ev, symObjAddr: 0x5A3C, symBinAddr: 0xB49E80, symSize: 0x14 }
  - { offset: 0x37ADC7, size: 0x8, addend: 0x0, symName: __ZN5boost10wrapexceptINS_15condition_errorEEC1ERKS2_, symObjAddr: 0x5A50, symBinAddr: 0xB49E94, symSize: 0xE0 }
  - { offset: 0x37AE75, size: 0x8, addend: 0x0, symName: __ZN5boost10wrapexceptINS_15condition_errorEEC1ERKS2_, symObjAddr: 0x5A50, symBinAddr: 0xB49E94, symSize: 0xE0 }
  - { offset: 0x37AE7D, size: 0x8, addend: 0x0, symName: __ZNSt3__16vectorIN5boost10shared_ptrINS1_6detail17shared_state_baseEEENS_9allocatorIS5_EEE21__push_back_slow_pathIRKS5_EEPS5_OT_, symObjAddr: 0x5B30, symBinAddr: 0xB49F74, symSize: 0x184 }
  - { offset: 0x37B02E, size: 0x8, addend: 0x0, symName: __ZNSt3__16vectorIN5boost10shared_ptrINS1_6detail17shared_state_baseEEENS_9allocatorIS5_EEE21__push_back_slow_pathIRKS5_EEPS5_OT_, symObjAddr: 0x5B30, symBinAddr: 0xB49F74, symSize: 0x184 }
  - { offset: 0x37B057, size: 0x8, addend: 0x0, symName: __ZNSt3__16vectorIN5boost10shared_ptrINS1_6detail17shared_state_baseEEENS_9allocatorIS5_EEE21__push_back_slow_pathIRKS5_EEPS5_OT_, symObjAddr: 0x5B30, symBinAddr: 0xB49F74, symSize: 0x184 }
  - { offset: 0x37B41E, size: 0x8, addend: 0x0, symName: __ZNSt3__16vectorIN5boost10shared_ptrINS1_6detail17shared_state_baseEEENS_9allocatorIS5_EEE21__push_back_slow_pathIRKS5_EEPS5_OT_, symObjAddr: 0x5B30, symBinAddr: 0xB49F74, symSize: 0x184 }
  - { offset: 0x37BC2E, size: 0x8, addend: 0x0, symName: __ZN5boost16exception_detail10clone_implINS0_10bad_alloc_EEC1ERKS3_, symObjAddr: 0x5D1C, symBinAddr: 0xB4A0F8, symSize: 0x80 }
  - { offset: 0x37BC36, size: 0x8, addend: 0x0, symName: __ZN5boost10shared_ptrIKNS_16exception_detail10clone_baseEED1Ev, symObjAddr: 0x5D9C, symBinAddr: 0xB4A178, symSize: 0x7C }
  - { offset: 0x37BD5D, size: 0x8, addend: 0x0, symName: __ZN5boost10shared_ptrIKNS_16exception_detail10clone_baseEED1Ev, symObjAddr: 0x5D9C, symBinAddr: 0xB4A178, symSize: 0x7C }
  - { offset: 0x37BD65, size: 0x8, addend: 0x0, symName: __ZN5boost16exception_detail10clone_implINS0_10bad_alloc_EED1Ev, symObjAddr: 0x5E18, symBinAddr: 0xB4A1F4, symSize: 0x58 }
  - { offset: 0x37BE90, size: 0x8, addend: 0x0, symName: __ZN5boost16exception_detail10clone_implINS0_10bad_alloc_EED1Ev, symObjAddr: 0x5E18, symBinAddr: 0xB4A1F4, symSize: 0x58 }
  - { offset: 0x37BE98, size: 0x8, addend: 0x0, symName: __ZN5boost16exception_detail10bad_alloc_D1Ev, symObjAddr: 0x5E70, symBinAddr: 0xB4A24C, symSize: 0x58 }
  - { offset: 0x37BF82, size: 0x8, addend: 0x0, symName: __ZN5boost16exception_detail10bad_alloc_D1Ev, symObjAddr: 0x5E70, symBinAddr: 0xB4A24C, symSize: 0x58 }
  - { offset: 0x37BF8A, size: 0x8, addend: 0x0, symName: __ZN5boost16exception_detail10bad_alloc_D0Ev, symObjAddr: 0x5EC8, symBinAddr: 0xB4A2A4, symSize: 0x50 }
  - { offset: 0x37C052, size: 0x8, addend: 0x0, symName: __ZN5boost16exception_detail10bad_alloc_D0Ev, symObjAddr: 0x5EC8, symBinAddr: 0xB4A2A4, symSize: 0x50 }
  - { offset: 0x37C05A, size: 0x8, addend: 0x0, symName: __ZThn40_N5boost16exception_detail10bad_alloc_D1Ev, symObjAddr: 0x5F18, symBinAddr: 0xB4A2F4, symSize: 0x50 }
  - { offset: 0x37C142, size: 0x8, addend: 0x0, symName: __ZThn40_N5boost16exception_detail10bad_alloc_D1Ev, symObjAddr: 0x5F18, symBinAddr: 0xB4A2F4, symSize: 0x50 }
  - { offset: 0x37C14A, size: 0x8, addend: 0x0, symName: __ZThn40_N5boost16exception_detail10bad_alloc_D0Ev, symObjAddr: 0x5F68, symBinAddr: 0xB4A344, symSize: 0x4C }
  - { offset: 0x37C237, size: 0x8, addend: 0x0, symName: __ZThn40_N5boost16exception_detail10bad_alloc_D0Ev, symObjAddr: 0x5F68, symBinAddr: 0xB4A344, symSize: 0x4C }
  - { offset: 0x37C23F, size: 0x8, addend: 0x0, symName: __ZN5boost16exception_detail10bad_alloc_D2Ev, symObjAddr: 0x5FB4, symBinAddr: 0xB4A390, symSize: 0x58 }
  - { offset: 0x37C264, size: 0x8, addend: 0x0, symName: __ZN5boost16exception_detail10bad_alloc_D2Ev, symObjAddr: 0x5FB4, symBinAddr: 0xB4A390, symSize: 0x58 }
  - { offset: 0x37C341, size: 0x8, addend: 0x0, symName: __ZN5boost16exception_detail10bad_alloc_D2Ev, symObjAddr: 0x5FB4, symBinAddr: 0xB4A390, symSize: 0x58 }
  - { offset: 0x37C349, size: 0x8, addend: 0x0, symName: __ZN5boost16exception_detail10clone_implINS0_10bad_alloc_EED0Ev, symObjAddr: 0x600C, symBinAddr: 0xB4A3E8, symSize: 0x50 }
  - { offset: 0x37C3F1, size: 0x8, addend: 0x0, symName: __ZN5boost16exception_detail10clone_implINS0_10bad_alloc_EED0Ev, symObjAddr: 0x600C, symBinAddr: 0xB4A3E8, symSize: 0x50 }
  - { offset: 0x37C3F9, size: 0x8, addend: 0x0, symName: __ZNK5boost16exception_detail10clone_implINS0_10bad_alloc_EE5cloneEv, symObjAddr: 0x605C, symBinAddr: 0xB4A438, symSize: 0xC8 }
  - { offset: 0x37C544, size: 0x8, addend: 0x0, symName: __ZNK5boost16exception_detail10clone_implINS0_10bad_alloc_EE5cloneEv, symObjAddr: 0x605C, symBinAddr: 0xB4A438, symSize: 0xC8 }
  - { offset: 0x37C54C, size: 0x8, addend: 0x0, symName: __ZNK5boost16exception_detail10clone_implINS0_10bad_alloc_EE7rethrowEv, symObjAddr: 0x6124, symBinAddr: 0xB4A500, symSize: 0x50 }
  - { offset: 0x37C694, size: 0x8, addend: 0x0, symName: __ZNK5boost16exception_detail10clone_implINS0_10bad_alloc_EE7rethrowEv, symObjAddr: 0x6124, symBinAddr: 0xB4A500, symSize: 0x50 }
  - { offset: 0x37C69C, size: 0x8, addend: 0x0, symName: __ZThn40_N5boost16exception_detail10clone_implINS0_10bad_alloc_EED1Ev, symObjAddr: 0x6174, symBinAddr: 0xB4A550, symSize: 0x50 }
  - { offset: 0x37C6C3, size: 0x8, addend: 0x0, symName: __ZThn40_N5boost16exception_detail10clone_implINS0_10bad_alloc_EED1Ev, symObjAddr: 0x6174, symBinAddr: 0xB4A550, symSize: 0x50 }
  - { offset: 0x37C6CB, size: 0x8, addend: 0x0, symName: __ZThn40_N5boost16exception_detail10clone_implINS0_10bad_alloc_EED0Ev, symObjAddr: 0x61C4, symBinAddr: 0xB4A5A0, symSize: 0x4C }
  - { offset: 0x37C7D7, size: 0x8, addend: 0x0, symName: __ZThn40_N5boost16exception_detail10clone_implINS0_10bad_alloc_EED0Ev, symObjAddr: 0x61C4, symBinAddr: 0xB4A5A0, symSize: 0x4C }
  - { offset: 0x37C7DF, size: 0x8, addend: 0x0, symName: __ZTv0_n24_NK5boost16exception_detail10clone_implINS0_10bad_alloc_EE5cloneEv, symObjAddr: 0x6210, symBinAddr: 0xB4A5EC, symSize: 0x10C }
  - { offset: 0x37C805, size: 0x8, addend: 0x0, symName: __ZTv0_n24_NK5boost16exception_detail10clone_implINS0_10bad_alloc_EE5cloneEv, symObjAddr: 0x6210, symBinAddr: 0xB4A5EC, symSize: 0x10C }
  - { offset: 0x37C92D, size: 0x8, addend: 0x0, symName: __ZTv0_n24_NK5boost16exception_detail10clone_implINS0_10bad_alloc_EE5cloneEv, symObjAddr: 0x6210, symBinAddr: 0xB4A5EC, symSize: 0x10C }
  - { offset: 0x37C935, size: 0x8, addend: 0x0, symName: __ZTv0_n32_NK5boost16exception_detail10clone_implINS0_10bad_alloc_EE7rethrowEv, symObjAddr: 0x631C, symBinAddr: 0xB4A6F8, symSize: 0x58 }
  - { offset: 0x37CB65, size: 0x8, addend: 0x0, symName: __ZTv0_n32_NK5boost16exception_detail10clone_implINS0_10bad_alloc_EE7rethrowEv, symObjAddr: 0x631C, symBinAddr: 0xB4A6F8, symSize: 0x58 }
  - { offset: 0x37CB6D, size: 0x8, addend: 0x0, symName: __ZTv0_n40_N5boost16exception_detail10clone_implINS0_10bad_alloc_EED1Ev, symObjAddr: 0x6374, symBinAddr: 0xB4A750, symSize: 0x5C }
  - { offset: 0x37CB93, size: 0x8, addend: 0x0, symName: __ZTv0_n40_N5boost16exception_detail10clone_implINS0_10bad_alloc_EED1Ev, symObjAddr: 0x6374, symBinAddr: 0xB4A750, symSize: 0x5C }
  - { offset: 0x37CBAF, size: 0x8, addend: 0x0, symName: __ZTv0_n40_N5boost16exception_detail10clone_implINS0_10bad_alloc_EED1Ev, symObjAddr: 0x6374, symBinAddr: 0xB4A750, symSize: 0x5C }
  - { offset: 0x37CBB7, size: 0x8, addend: 0x0, symName: __ZTv0_n40_N5boost16exception_detail10clone_implINS0_10bad_alloc_EED0Ev, symObjAddr: 0x63D0, symBinAddr: 0xB4A7AC, symSize: 0x58 }
  - { offset: 0x37CCB0, size: 0x8, addend: 0x0, symName: __ZTv0_n40_N5boost16exception_detail10clone_implINS0_10bad_alloc_EED0Ev, symObjAddr: 0x63D0, symBinAddr: 0xB4A7AC, symSize: 0x58 }
  - { offset: 0x37CCB8, size: 0x8, addend: 0x0, symName: __ZN5boost10shared_ptrIKNS_16exception_detail10clone_baseEEC2INS1_10clone_implINS1_10bad_alloc_EEEEEPT_, symObjAddr: 0x6428, symBinAddr: 0xB4A804, symSize: 0xB0 }
  - { offset: 0x37CCDE, size: 0x8, addend: 0x0, symName: __ZN5boost10shared_ptrIKNS_16exception_detail10clone_baseEEC2INS1_10clone_implINS1_10bad_alloc_EEEEEPT_, symObjAddr: 0x6428, symBinAddr: 0xB4A804, symSize: 0xB0 }
  - { offset: 0x37CF12, size: 0x8, addend: 0x0, symName: __ZN5boost10shared_ptrIKNS_16exception_detail10clone_baseEEC2INS1_10clone_implINS1_10bad_alloc_EEEEEPT_, symObjAddr: 0x6428, symBinAddr: 0xB4A804, symSize: 0xB0 }
  - { offset: 0x37CF1A, size: 0x8, addend: 0x0, symName: __ZN5boost6detail17sp_counted_impl_pINS_16exception_detail10clone_implINS2_10bad_alloc_EEEED1Ev, symObjAddr: 0x64D8, symBinAddr: 0xB4A8B4, symSize: 0x4 }
  - { offset: 0x37D110, size: 0x8, addend: 0x0, symName: __ZN5boost6detail17sp_counted_impl_pINS_16exception_detail10clone_implINS2_10bad_alloc_EEEED1Ev, symObjAddr: 0x64D8, symBinAddr: 0xB4A8B4, symSize: 0x4 }
  - { offset: 0x37D118, size: 0x8, addend: 0x0, symName: __ZN5boost6detail17sp_counted_impl_pINS_16exception_detail10clone_implINS2_10bad_alloc_EEEED0Ev, symObjAddr: 0x64DC, symBinAddr: 0xB4A8B8, symSize: 0x4 }
  - { offset: 0x37D149, size: 0x8, addend: 0x0, symName: __ZN5boost6detail17sp_counted_impl_pINS_16exception_detail10clone_implINS2_10bad_alloc_EEEED0Ev, symObjAddr: 0x64DC, symBinAddr: 0xB4A8B8, symSize: 0x4 }
  - { offset: 0x37D151, size: 0x8, addend: 0x0, symName: __ZN5boost6detail17sp_counted_impl_pINS_16exception_detail10clone_implINS2_10bad_alloc_EEEE7disposeEv, symObjAddr: 0x64E0, symBinAddr: 0xB4A8BC, symSize: 0x18 }
  - { offset: 0x37D182, size: 0x8, addend: 0x0, symName: __ZN5boost6detail17sp_counted_impl_pINS_16exception_detail10clone_implINS2_10bad_alloc_EEEE7disposeEv, symObjAddr: 0x64E0, symBinAddr: 0xB4A8BC, symSize: 0x18 }
  - { offset: 0x37D18A, size: 0x8, addend: 0x0, symName: __ZN5boost6detail15sp_counted_base7destroyEv, symObjAddr: 0x64F8, symBinAddr: 0xB4A8D4, symSize: 0x14 }
  - { offset: 0x37D1E1, size: 0x8, addend: 0x0, symName: __ZN5boost6detail15sp_counted_base7destroyEv, symObjAddr: 0x64F8, symBinAddr: 0xB4A8D4, symSize: 0x14 }
  - { offset: 0x37D1E9, size: 0x8, addend: 0x0, symName: __ZN5boost6detail17sp_counted_impl_pINS_16exception_detail10clone_implINS2_10bad_alloc_EEEE11get_deleterERKSt9type_info, symObjAddr: 0x650C, symBinAddr: 0xB4A8E8, symSize: 0x8 }
  - { offset: 0x37D214, size: 0x8, addend: 0x0, symName: __ZN5boost6detail17sp_counted_impl_pINS_16exception_detail10clone_implINS2_10bad_alloc_EEEE11get_deleterERKSt9type_info, symObjAddr: 0x650C, symBinAddr: 0xB4A8E8, symSize: 0x8 }
  - { offset: 0x37D21C, size: 0x8, addend: 0x0, symName: __ZN5boost6detail17sp_counted_impl_pINS_16exception_detail10clone_implINS2_10bad_alloc_EEEE17get_local_deleterERKSt9type_info, symObjAddr: 0x6514, symBinAddr: 0xB4A8F0, symSize: 0x8 }
  - { offset: 0x37D257, size: 0x8, addend: 0x0, symName: __ZN5boost6detail17sp_counted_impl_pINS_16exception_detail10clone_implINS2_10bad_alloc_EEEE17get_local_deleterERKSt9type_info, symObjAddr: 0x6514, symBinAddr: 0xB4A8F0, symSize: 0x8 }
  - { offset: 0x37D25F, size: 0x8, addend: 0x0, symName: __ZN5boost6detail17sp_counted_impl_pINS_16exception_detail10clone_implINS2_10bad_alloc_EEEE19get_untyped_deleterEv, symObjAddr: 0x651C, symBinAddr: 0xB4A8F8, symSize: 0x8 }
  - { offset: 0x37D29A, size: 0x8, addend: 0x0, symName: __ZN5boost6detail17sp_counted_impl_pINS_16exception_detail10clone_implINS2_10bad_alloc_EEEE19get_untyped_deleterEv, symObjAddr: 0x651C, symBinAddr: 0xB4A8F8, symSize: 0x8 }
  - { offset: 0x37D2A2, size: 0x8, addend: 0x0, symName: __ZN5boost16exception_detail10clone_implINS0_14bad_exception_EEC1ERKS3_, symObjAddr: 0x6524, symBinAddr: 0xB4A900, symSize: 0x80 }
  - { offset: 0x37D2CF, size: 0x8, addend: 0x0, symName: __ZN5boost16exception_detail10clone_implINS0_14bad_exception_EEC1ERKS3_, symObjAddr: 0x6524, symBinAddr: 0xB4A900, symSize: 0x80 }
  - { offset: 0x37D2D7, size: 0x8, addend: 0x0, symName: __ZN5boost16exception_detail10clone_implINS0_14bad_exception_EED1Ev, symObjAddr: 0x65A4, symBinAddr: 0xB4A980, symSize: 0x58 }
  - { offset: 0x37D3FE, size: 0x8, addend: 0x0, symName: __ZN5boost16exception_detail10clone_implINS0_14bad_exception_EED1Ev, symObjAddr: 0x65A4, symBinAddr: 0xB4A980, symSize: 0x58 }
  - { offset: 0x37D406, size: 0x8, addend: 0x0, symName: __ZN5boost16exception_detail14bad_exception_D1Ev, symObjAddr: 0x65FC, symBinAddr: 0xB4A9D8, symSize: 0x58 }
  - { offset: 0x37D4F0, size: 0x8, addend: 0x0, symName: __ZN5boost16exception_detail14bad_exception_D1Ev, symObjAddr: 0x65FC, symBinAddr: 0xB4A9D8, symSize: 0x58 }
  - { offset: 0x37D4F8, size: 0x8, addend: 0x0, symName: __ZN5boost16exception_detail14bad_exception_D0Ev, symObjAddr: 0x6654, symBinAddr: 0xB4AA30, symSize: 0x50 }
  - { offset: 0x37D5C0, size: 0x8, addend: 0x0, symName: __ZN5boost16exception_detail14bad_exception_D0Ev, symObjAddr: 0x6654, symBinAddr: 0xB4AA30, symSize: 0x50 }
  - { offset: 0x37D5C8, size: 0x8, addend: 0x0, symName: __ZThn40_N5boost16exception_detail14bad_exception_D1Ev, symObjAddr: 0x66A4, symBinAddr: 0xB4AA80, symSize: 0x50 }
  - { offset: 0x37D6B0, size: 0x8, addend: 0x0, symName: __ZThn40_N5boost16exception_detail14bad_exception_D1Ev, symObjAddr: 0x66A4, symBinAddr: 0xB4AA80, symSize: 0x50 }
  - { offset: 0x37D6B8, size: 0x8, addend: 0x0, symName: __ZThn40_N5boost16exception_detail14bad_exception_D0Ev, symObjAddr: 0x66F4, symBinAddr: 0xB4AAD0, symSize: 0x4C }
  - { offset: 0x37D7A5, size: 0x8, addend: 0x0, symName: __ZThn40_N5boost16exception_detail14bad_exception_D0Ev, symObjAddr: 0x66F4, symBinAddr: 0xB4AAD0, symSize: 0x4C }
  - { offset: 0x37D7AD, size: 0x8, addend: 0x0, symName: __ZN5boost16exception_detail14bad_exception_D2Ev, symObjAddr: 0x6740, symBinAddr: 0xB4AB1C, symSize: 0x58 }
  - { offset: 0x37D7D2, size: 0x8, addend: 0x0, symName: __ZN5boost16exception_detail14bad_exception_D2Ev, symObjAddr: 0x6740, symBinAddr: 0xB4AB1C, symSize: 0x58 }
  - { offset: 0x37D8AF, size: 0x8, addend: 0x0, symName: __ZN5boost16exception_detail14bad_exception_D2Ev, symObjAddr: 0x6740, symBinAddr: 0xB4AB1C, symSize: 0x58 }
  - { offset: 0x37D8B7, size: 0x8, addend: 0x0, symName: __ZN5boost16exception_detail10clone_implINS0_14bad_exception_EED0Ev, symObjAddr: 0x6798, symBinAddr: 0xB4AB74, symSize: 0x50 }
  - { offset: 0x37D95F, size: 0x8, addend: 0x0, symName: __ZN5boost16exception_detail10clone_implINS0_14bad_exception_EED0Ev, symObjAddr: 0x6798, symBinAddr: 0xB4AB74, symSize: 0x50 }
  - { offset: 0x37D967, size: 0x8, addend: 0x0, symName: __ZNK5boost16exception_detail10clone_implINS0_14bad_exception_EE5cloneEv, symObjAddr: 0x67E8, symBinAddr: 0xB4ABC4, symSize: 0xC8 }
  - { offset: 0x37DAB2, size: 0x8, addend: 0x0, symName: __ZNK5boost16exception_detail10clone_implINS0_14bad_exception_EE5cloneEv, symObjAddr: 0x67E8, symBinAddr: 0xB4ABC4, symSize: 0xC8 }
  - { offset: 0x37DABA, size: 0x8, addend: 0x0, symName: __ZNK5boost16exception_detail10clone_implINS0_14bad_exception_EE7rethrowEv, symObjAddr: 0x68B0, symBinAddr: 0xB4AC8C, symSize: 0x50 }
  - { offset: 0x37DC02, size: 0x8, addend: 0x0, symName: __ZNK5boost16exception_detail10clone_implINS0_14bad_exception_EE7rethrowEv, symObjAddr: 0x68B0, symBinAddr: 0xB4AC8C, symSize: 0x50 }
  - { offset: 0x37DC0A, size: 0x8, addend: 0x0, symName: __ZThn40_N5boost16exception_detail10clone_implINS0_14bad_exception_EED1Ev, symObjAddr: 0x6900, symBinAddr: 0xB4ACDC, symSize: 0x50 }
  - { offset: 0x37DC31, size: 0x8, addend: 0x0, symName: __ZThn40_N5boost16exception_detail10clone_implINS0_14bad_exception_EED1Ev, symObjAddr: 0x6900, symBinAddr: 0xB4ACDC, symSize: 0x50 }
  - { offset: 0x37DC39, size: 0x8, addend: 0x0, symName: __ZThn40_N5boost16exception_detail10clone_implINS0_14bad_exception_EED0Ev, symObjAddr: 0x6950, symBinAddr: 0xB4AD2C, symSize: 0x4C }
  - { offset: 0x37DD45, size: 0x8, addend: 0x0, symName: __ZThn40_N5boost16exception_detail10clone_implINS0_14bad_exception_EED0Ev, symObjAddr: 0x6950, symBinAddr: 0xB4AD2C, symSize: 0x4C }
  - { offset: 0x37DD4D, size: 0x8, addend: 0x0, symName: __ZTv0_n24_NK5boost16exception_detail10clone_implINS0_14bad_exception_EE5cloneEv, symObjAddr: 0x699C, symBinAddr: 0xB4AD78, symSize: 0x10C }
  - { offset: 0x37DD73, size: 0x8, addend: 0x0, symName: __ZTv0_n24_NK5boost16exception_detail10clone_implINS0_14bad_exception_EE5cloneEv, symObjAddr: 0x699C, symBinAddr: 0xB4AD78, symSize: 0x10C }
  - { offset: 0x37DE9B, size: 0x8, addend: 0x0, symName: __ZTv0_n24_NK5boost16exception_detail10clone_implINS0_14bad_exception_EE5cloneEv, symObjAddr: 0x699C, symBinAddr: 0xB4AD78, symSize: 0x10C }
  - { offset: 0x37DEA3, size: 0x8, addend: 0x0, symName: __ZTv0_n32_NK5boost16exception_detail10clone_implINS0_14bad_exception_EE7rethrowEv, symObjAddr: 0x6AA8, symBinAddr: 0xB4AE84, symSize: 0x58 }
  - { offset: 0x37E0D3, size: 0x8, addend: 0x0, symName: __ZTv0_n32_NK5boost16exception_detail10clone_implINS0_14bad_exception_EE7rethrowEv, symObjAddr: 0x6AA8, symBinAddr: 0xB4AE84, symSize: 0x58 }
  - { offset: 0x37E0DB, size: 0x8, addend: 0x0, symName: __ZTv0_n40_N5boost16exception_detail10clone_implINS0_14bad_exception_EED1Ev, symObjAddr: 0x6B00, symBinAddr: 0xB4AEDC, symSize: 0x5C }
  - { offset: 0x37E101, size: 0x8, addend: 0x0, symName: __ZTv0_n40_N5boost16exception_detail10clone_implINS0_14bad_exception_EED1Ev, symObjAddr: 0x6B00, symBinAddr: 0xB4AEDC, symSize: 0x5C }
  - { offset: 0x37E11D, size: 0x8, addend: 0x0, symName: __ZTv0_n40_N5boost16exception_detail10clone_implINS0_14bad_exception_EED1Ev, symObjAddr: 0x6B00, symBinAddr: 0xB4AEDC, symSize: 0x5C }
  - { offset: 0x37E125, size: 0x8, addend: 0x0, symName: __ZTv0_n40_N5boost16exception_detail10clone_implINS0_14bad_exception_EED0Ev, symObjAddr: 0x6B5C, symBinAddr: 0xB4AF38, symSize: 0x58 }
  - { offset: 0x37E21E, size: 0x8, addend: 0x0, symName: __ZTv0_n40_N5boost16exception_detail10clone_implINS0_14bad_exception_EED0Ev, symObjAddr: 0x6B5C, symBinAddr: 0xB4AF38, symSize: 0x58 }
  - { offset: 0x37E226, size: 0x8, addend: 0x0, symName: __ZN5boost10shared_ptrIKNS_16exception_detail10clone_baseEEC2INS1_10clone_implINS1_14bad_exception_EEEEEPT_, symObjAddr: 0x6BB4, symBinAddr: 0xB4AF90, symSize: 0xB0 }
  - { offset: 0x37E24C, size: 0x8, addend: 0x0, symName: __ZN5boost10shared_ptrIKNS_16exception_detail10clone_baseEEC2INS1_10clone_implINS1_14bad_exception_EEEEEPT_, symObjAddr: 0x6BB4, symBinAddr: 0xB4AF90, symSize: 0xB0 }
  - { offset: 0x37E45D, size: 0x8, addend: 0x0, symName: __ZN5boost10shared_ptrIKNS_16exception_detail10clone_baseEEC2INS1_10clone_implINS1_14bad_exception_EEEEEPT_, symObjAddr: 0x6BB4, symBinAddr: 0xB4AF90, symSize: 0xB0 }
  - { offset: 0x37E465, size: 0x8, addend: 0x0, symName: __ZN5boost6detail17sp_counted_impl_pINS_16exception_detail10clone_implINS2_14bad_exception_EEEED1Ev, symObjAddr: 0x6C64, symBinAddr: 0xB4B040, symSize: 0x4 }
  - { offset: 0x37E65B, size: 0x8, addend: 0x0, symName: __ZN5boost6detail17sp_counted_impl_pINS_16exception_detail10clone_implINS2_14bad_exception_EEEED1Ev, symObjAddr: 0x6C64, symBinAddr: 0xB4B040, symSize: 0x4 }
  - { offset: 0x37E663, size: 0x8, addend: 0x0, symName: __ZN5boost6detail17sp_counted_impl_pINS_16exception_detail10clone_implINS2_14bad_exception_EEEED0Ev, symObjAddr: 0x6C68, symBinAddr: 0xB4B044, symSize: 0x4 }
  - { offset: 0x37E694, size: 0x8, addend: 0x0, symName: __ZN5boost6detail17sp_counted_impl_pINS_16exception_detail10clone_implINS2_14bad_exception_EEEED0Ev, symObjAddr: 0x6C68, symBinAddr: 0xB4B044, symSize: 0x4 }
  - { offset: 0x37E69C, size: 0x8, addend: 0x0, symName: __ZN5boost6detail17sp_counted_impl_pINS_16exception_detail10clone_implINS2_14bad_exception_EEEE7disposeEv, symObjAddr: 0x6C6C, symBinAddr: 0xB4B048, symSize: 0x18 }
  - { offset: 0x37E6CD, size: 0x8, addend: 0x0, symName: __ZN5boost6detail17sp_counted_impl_pINS_16exception_detail10clone_implINS2_14bad_exception_EEEE7disposeEv, symObjAddr: 0x6C6C, symBinAddr: 0xB4B048, symSize: 0x18 }
  - { offset: 0x37E6D5, size: 0x8, addend: 0x0, symName: __ZN5boost6detail17sp_counted_impl_pINS_16exception_detail10clone_implINS2_14bad_exception_EEEE11get_deleterERKSt9type_info, symObjAddr: 0x6C84, symBinAddr: 0xB4B060, symSize: 0x8 }
  - { offset: 0x37E72C, size: 0x8, addend: 0x0, symName: __ZN5boost6detail17sp_counted_impl_pINS_16exception_detail10clone_implINS2_14bad_exception_EEEE11get_deleterERKSt9type_info, symObjAddr: 0x6C84, symBinAddr: 0xB4B060, symSize: 0x8 }
  - { offset: 0x37E734, size: 0x8, addend: 0x0, symName: __ZN5boost6detail17sp_counted_impl_pINS_16exception_detail10clone_implINS2_14bad_exception_EEEE17get_local_deleterERKSt9type_info, symObjAddr: 0x6C8C, symBinAddr: 0xB4B068, symSize: 0x8 }
  - { offset: 0x37E76F, size: 0x8, addend: 0x0, symName: __ZN5boost6detail17sp_counted_impl_pINS_16exception_detail10clone_implINS2_14bad_exception_EEEE17get_local_deleterERKSt9type_info, symObjAddr: 0x6C8C, symBinAddr: 0xB4B068, symSize: 0x8 }
  - { offset: 0x37E777, size: 0x8, addend: 0x0, symName: __ZN5boost6detail17sp_counted_impl_pINS_16exception_detail10clone_implINS2_14bad_exception_EEEE19get_untyped_deleterEv, symObjAddr: 0x6C94, symBinAddr: 0xB4B070, symSize: 0x8 }
  - { offset: 0x37E7B2, size: 0x8, addend: 0x0, symName: __ZN5boost6detail17sp_counted_impl_pINS_16exception_detail10clone_implINS2_14bad_exception_EEEE19get_untyped_deleterEv, symObjAddr: 0x6C94, symBinAddr: 0xB4B070, symSize: 0x8 }
  - { offset: 0x37E7BA, size: 0x8, addend: 0x0, symName: __ZN5boost6detail16thread_data_baseC2Ev, symObjAddr: 0x6C9C, symBinAddr: 0xB4B078, symSize: 0x18C }
  - { offset: 0x37EC08, size: 0x8, addend: 0x0, symName: __ZN5boost6detail16thread_data_baseC2Ev, symObjAddr: 0x6C9C, symBinAddr: 0xB4B078, symSize: 0x18C }
  - { offset: 0x37EC10, size: 0x8, addend: 0x0, symName: __ZN5boost6detail26externally_launched_threadD1Ev, symObjAddr: 0x6E28, symBinAddr: 0xB4B204, symSize: 0xB4 }
  - { offset: 0x37F16B, size: 0x8, addend: 0x0, symName: __ZN5boost6detail26externally_launched_threadD1Ev, symObjAddr: 0x6E28, symBinAddr: 0xB4B204, symSize: 0xB4 }
  - { offset: 0x37F173, size: 0x8, addend: 0x0, symName: __ZN5boost6detail26externally_launched_threadD0Ev, symObjAddr: 0x6EDC, symBinAddr: 0xB4B2B8, symSize: 0xB8 }
  - { offset: 0x37F1A9, size: 0x8, addend: 0x0, symName: __ZN5boost6detail26externally_launched_threadD0Ev, symObjAddr: 0x6EDC, symBinAddr: 0xB4B2B8, symSize: 0xB8 }
  - { offset: 0x37F47F, size: 0x8, addend: 0x0, symName: __ZN5boost6detail26externally_launched_threadD0Ev, symObjAddr: 0x6EDC, symBinAddr: 0xB4B2B8, symSize: 0xB8 }
  - { offset: 0x37F487, size: 0x8, addend: 0x0, symName: __ZN5boost6detail26externally_launched_thread3runEv, symObjAddr: 0x6F94, symBinAddr: 0xB4B370, symSize: 0x4 }
  - { offset: 0x37F78D, size: 0x8, addend: 0x0, symName: __ZN5boost6detail26externally_launched_thread3runEv, symObjAddr: 0x6F94, symBinAddr: 0xB4B370, symSize: 0x4 }
  - { offset: 0x37F795, size: 0x8, addend: 0x0, symName: __ZN5boost6detail26externally_launched_thread25notify_all_at_thread_exitEPNS_18condition_variableEPNS_5mutexE, symObjAddr: 0x6F98, symBinAddr: 0xB4B374, symSize: 0x4 }
  - { offset: 0x37F7C0, size: 0x8, addend: 0x0, symName: __ZN5boost6detail26externally_launched_thread25notify_all_at_thread_exitEPNS_18condition_variableEPNS_5mutexE, symObjAddr: 0x6F98, symBinAddr: 0xB4B374, symSize: 0x4 }
  - { offset: 0x37F7C8, size: 0x8, addend: 0x0, symName: __ZN5boost15throw_exceptionINS_21thread_resource_errorEEEvRKT_, symObjAddr: 0x6F9C, symBinAddr: 0xB4B378, symSize: 0x50 }
  - { offset: 0x37F80F, size: 0x8, addend: 0x0, symName: __ZN5boost21thread_resource_errorC1EiPKc, symObjAddr: 0x6FEC, symBinAddr: 0xB4B3C8, symSize: 0xB0 }
  - { offset: 0x37F817, size: 0x8, addend: 0x0, symName: __ZN5boost21thread_resource_errorD1Ev, symObjAddr: 0x709C, symBinAddr: 0xB4B478, symSize: 0x4 }
  - { offset: 0x37F92E, size: 0x8, addend: 0x0, symName: __ZN5boost21thread_resource_errorD1Ev, symObjAddr: 0x709C, symBinAddr: 0xB4B478, symSize: 0x4 }
  - { offset: 0x37F936, size: 0x8, addend: 0x0, symName: __ZN5boost10wrapexceptINS_21thread_resource_errorEEC1ERKS1_, symObjAddr: 0x70A0, symBinAddr: 0xB4B47C, symSize: 0x80 }
  - { offset: 0x37F963, size: 0x8, addend: 0x0, symName: __ZN5boost21thread_resource_errorD1Ev, symObjAddr: 0x709C, symBinAddr: 0xB4B478, symSize: 0x4 }
  - { offset: 0x37F96B, size: 0x8, addend: 0x0, symName: __ZN5boost10wrapexceptINS_21thread_resource_errorEEC1ERKS1_, symObjAddr: 0x70A0, symBinAddr: 0xB4B47C, symSize: 0x80 }
  - { offset: 0x37F98C, size: 0x8, addend: 0x0, symName: __ZN5boost21thread_resource_errorD1Ev, symObjAddr: 0x709C, symBinAddr: 0xB4B478, symSize: 0x4 }
  - { offset: 0x37F994, size: 0x8, addend: 0x0, symName: __ZN5boost10wrapexceptINS_21thread_resource_errorEEC1ERKS1_, symObjAddr: 0x70A0, symBinAddr: 0xB4B47C, symSize: 0x80 }
  - { offset: 0x37F9B5, size: 0x8, addend: 0x0, symName: __ZN5boost21thread_resource_errorD1Ev, symObjAddr: 0x709C, symBinAddr: 0xB4B478, symSize: 0x4 }
  - { offset: 0x37F9BD, size: 0x8, addend: 0x0, symName: __ZN5boost10wrapexceptINS_21thread_resource_errorEEC1ERKS1_, symObjAddr: 0x70A0, symBinAddr: 0xB4B47C, symSize: 0x80 }
  - { offset: 0x37FA43, size: 0x8, addend: 0x0, symName: __ZN5boost10wrapexceptINS_21thread_resource_errorEEC1ERKS1_, symObjAddr: 0x70A0, symBinAddr: 0xB4B47C, symSize: 0x80 }
  - { offset: 0x37FA4B, size: 0x8, addend: 0x0, symName: __ZN5boost10wrapexceptINS_21thread_resource_errorEED1Ev, symObjAddr: 0x7120, symBinAddr: 0xB4B4FC, symSize: 0x58 }
  - { offset: 0x37FBAE, size: 0x8, addend: 0x0, symName: __ZN5boost10wrapexceptINS_21thread_resource_errorEED1Ev, symObjAddr: 0x7120, symBinAddr: 0xB4B4FC, symSize: 0x58 }
  - { offset: 0x37FBB6, size: 0x8, addend: 0x0, symName: __ZNK5boost10wrapexceptINS_21thread_resource_errorEE5cloneEv, symObjAddr: 0x7178, symBinAddr: 0xB4B554, symSize: 0x110 }
  - { offset: 0x37FDB6, size: 0x8, addend: 0x0, symName: __ZNK5boost10wrapexceptINS_21thread_resource_errorEE5cloneEv, symObjAddr: 0x7178, symBinAddr: 0xB4B554, symSize: 0x110 }
  - { offset: 0x37FDBE, size: 0x8, addend: 0x0, symName: __ZNK5boost10wrapexceptINS_21thread_resource_errorEE7rethrowEv, symObjAddr: 0x7288, symBinAddr: 0xB4B664, symSize: 0x50 }
  - { offset: 0x38009B, size: 0x8, addend: 0x0, symName: __ZNK5boost10wrapexceptINS_21thread_resource_errorEE7rethrowEv, symObjAddr: 0x7288, symBinAddr: 0xB4B664, symSize: 0x50 }
  - { offset: 0x3800B8, size: 0x8, addend: 0x0, symName: __ZNK5boost10wrapexceptINS_21thread_resource_errorEE7rethrowEv, symObjAddr: 0x7288, symBinAddr: 0xB4B664, symSize: 0x50 }
  - { offset: 0x3800C7, size: 0x8, addend: 0x0, symName: __ZNK5boost10wrapexceptINS_21thread_resource_errorEE7rethrowEv, symObjAddr: 0x7288, symBinAddr: 0xB4B664, symSize: 0x50 }
  - { offset: 0x3800CF, size: 0x8, addend: 0x0, symName: __ZN5boost10wrapexceptINS_21thread_resource_errorEED0Ev, symObjAddr: 0x72D8, symBinAddr: 0xB4B6B4, symSize: 0x58 }
  - { offset: 0x380120, size: 0x8, addend: 0x0, symName: __ZN5boost10wrapexceptINS_21thread_resource_errorEED0Ev, symObjAddr: 0x72D8, symBinAddr: 0xB4B6B4, symSize: 0x58 }
  - { offset: 0x380128, size: 0x8, addend: 0x0, symName: __ZThn8_N5boost10wrapexceptINS_21thread_resource_errorEED1Ev, symObjAddr: 0x7330, symBinAddr: 0xB4B70C, symSize: 0x50 }
  - { offset: 0x38028A, size: 0x8, addend: 0x0, symName: __ZThn8_N5boost10wrapexceptINS_21thread_resource_errorEED1Ev, symObjAddr: 0x7330, symBinAddr: 0xB4B70C, symSize: 0x50 }
  - { offset: 0x380292, size: 0x8, addend: 0x0, symName: __ZThn8_N5boost10wrapexceptINS_21thread_resource_errorEED0Ev, symObjAddr: 0x7380, symBinAddr: 0xB4B75C, symSize: 0x5C }
  - { offset: 0x3802B7, size: 0x8, addend: 0x0, symName: __ZThn8_N5boost10wrapexceptINS_21thread_resource_errorEED0Ev, symObjAddr: 0x7380, symBinAddr: 0xB4B75C, symSize: 0x5C }
  - { offset: 0x3802DD, size: 0x8, addend: 0x0, symName: __ZThn8_N5boost10wrapexceptINS_21thread_resource_errorEED0Ev, symObjAddr: 0x7380, symBinAddr: 0xB4B75C, symSize: 0x5C }
  - { offset: 0x38041D, size: 0x8, addend: 0x0, symName: __ZThn8_N5boost10wrapexceptINS_21thread_resource_errorEED0Ev, symObjAddr: 0x7380, symBinAddr: 0xB4B75C, symSize: 0x5C }
  - { offset: 0x380425, size: 0x8, addend: 0x0, symName: __ZThn48_N5boost10wrapexceptINS_21thread_resource_errorEED1Ev, symObjAddr: 0x73DC, symBinAddr: 0xB4B7B8, symSize: 0x50 }
  - { offset: 0x380595, size: 0x8, addend: 0x0, symName: __ZThn48_N5boost10wrapexceptINS_21thread_resource_errorEED1Ev, symObjAddr: 0x73DC, symBinAddr: 0xB4B7B8, symSize: 0x50 }
  - { offset: 0x38059D, size: 0x8, addend: 0x0, symName: __ZThn48_N5boost10wrapexceptINS_21thread_resource_errorEED0Ev, symObjAddr: 0x742C, symBinAddr: 0xB4B808, symSize: 0x5C }
  - { offset: 0x3805C2, size: 0x8, addend: 0x0, symName: __ZThn48_N5boost10wrapexceptINS_21thread_resource_errorEED0Ev, symObjAddr: 0x742C, symBinAddr: 0xB4B808, symSize: 0x5C }
  - { offset: 0x3805E8, size: 0x8, addend: 0x0, symName: __ZThn48_N5boost10wrapexceptINS_21thread_resource_errorEED0Ev, symObjAddr: 0x742C, symBinAddr: 0xB4B808, symSize: 0x5C }
  - { offset: 0x380701, size: 0x8, addend: 0x0, symName: __ZThn48_N5boost10wrapexceptINS_21thread_resource_errorEED0Ev, symObjAddr: 0x742C, symBinAddr: 0xB4B808, symSize: 0x5C }
  - { offset: 0x380709, size: 0x8, addend: 0x0, symName: __ZN5boost21thread_resource_errorD0Ev, symObjAddr: 0x7488, symBinAddr: 0xB4B864, symSize: 0x14 }
  - { offset: 0x38087D, size: 0x8, addend: 0x0, symName: __ZN5boost21thread_resource_errorD0Ev, symObjAddr: 0x7488, symBinAddr: 0xB4B864, symSize: 0x14 }
  - { offset: 0x380885, size: 0x8, addend: 0x0, symName: __ZN5boost10wrapexceptINS_21thread_resource_errorEEC1ERKS2_, symObjAddr: 0x749C, symBinAddr: 0xB4B878, symSize: 0xE0 }
  - { offset: 0x38095B, size: 0x8, addend: 0x0, symName: __ZN5boost10wrapexceptINS_21thread_resource_errorEEC1ERKS2_, symObjAddr: 0x749C, symBinAddr: 0xB4B878, symSize: 0xE0 }
  - { offset: 0x380963, size: 0x8, addend: 0x0, symName: __ZN5boost18condition_variableC2Ev, symObjAddr: 0x757C, symBinAddr: 0xB4B958, symSize: 0xC0 }
  - { offset: 0x380B40, size: 0x8, addend: 0x0, symName: __ZN5boost18condition_variableC2Ev, symObjAddr: 0x757C, symBinAddr: 0xB4B958, symSize: 0xC0 }
  - { offset: 0x380B69, size: 0x8, addend: 0x0, symName: __ZN5boost18condition_variableC2Ev, symObjAddr: 0x757C, symBinAddr: 0xB4B958, symSize: 0xC0 }
  - { offset: 0x380B92, size: 0x8, addend: 0x0, symName: __ZN5boost18condition_variableC2Ev, symObjAddr: 0x757C, symBinAddr: 0xB4B958, symSize: 0xC0 }
  - { offset: 0x380BB0, size: 0x8, addend: 0x0, symName: __ZN5boost18condition_variableC2Ev, symObjAddr: 0x757C, symBinAddr: 0xB4B958, symSize: 0xC0 }
  - { offset: 0x380BB8, size: 0x8, addend: 0x0, symName: __ZN5boost6detail20sp_pointer_constructINS0_16thread_data_baseES2_EEvPNS_10shared_ptrIT_EEPT0_RNS0_12shared_countE, symObjAddr: 0x763C, symBinAddr: 0xB4BA18, symSize: 0x104 }
  - { offset: 0x380C9B, size: 0x8, addend: 0x0, symName: __ZN5boost6detail20sp_pointer_constructINS0_16thread_data_baseES2_EEvPNS_10shared_ptrIT_EEPT0_RNS0_12shared_countE, symObjAddr: 0x763C, symBinAddr: 0xB4BA18, symSize: 0x104 }
  - { offset: 0x380CB7, size: 0x8, addend: 0x0, symName: __ZN5boost6detail20sp_pointer_constructINS0_16thread_data_baseES2_EEvPNS_10shared_ptrIT_EEPT0_RNS0_12shared_countE, symObjAddr: 0x763C, symBinAddr: 0xB4BA18, symSize: 0x104 }
  - { offset: 0x380CD4, size: 0x8, addend: 0x0, symName: __ZN5boost6detail20sp_pointer_constructINS0_16thread_data_baseES2_EEvPNS_10shared_ptrIT_EEPT0_RNS0_12shared_countE, symObjAddr: 0x763C, symBinAddr: 0xB4BA18, symSize: 0x104 }
  - { offset: 0x380CF1, size: 0x8, addend: 0x0, symName: __ZN5boost6detail20sp_pointer_constructINS0_16thread_data_baseES2_EEvPNS_10shared_ptrIT_EEPT0_RNS0_12shared_countE, symObjAddr: 0x763C, symBinAddr: 0xB4BA18, symSize: 0x104 }
  - { offset: 0x380E2F, size: 0x8, addend: 0x0, symName: __ZN5boost6detail17sp_counted_impl_pINS0_16thread_data_baseEED1Ev, symObjAddr: 0x7740, symBinAddr: 0xB4BB1C, symSize: 0x4 }
  - { offset: 0x380E37, size: 0x8, addend: 0x0, symName: __ZN5boost6detail17sp_counted_impl_pINS0_16thread_data_baseEED0Ev, symObjAddr: 0x7744, symBinAddr: 0xB4BB20, symSize: 0x4 }
  - { offset: 0x380E68, size: 0x8, addend: 0x0, symName: __ZN5boost6detail17sp_counted_impl_pINS0_16thread_data_baseEED0Ev, symObjAddr: 0x7744, symBinAddr: 0xB4BB20, symSize: 0x4 }
  - { offset: 0x380E70, size: 0x8, addend: 0x0, symName: __ZN5boost6detail17sp_counted_impl_pINS0_16thread_data_baseEE7disposeEv, symObjAddr: 0x7748, symBinAddr: 0xB4BB24, symSize: 0x18 }
  - { offset: 0x380EA1, size: 0x8, addend: 0x0, symName: __ZN5boost6detail17sp_counted_impl_pINS0_16thread_data_baseEE7disposeEv, symObjAddr: 0x7748, symBinAddr: 0xB4BB24, symSize: 0x18 }
  - { offset: 0x380EA9, size: 0x8, addend: 0x0, symName: __ZN5boost6detail17sp_counted_impl_pINS0_16thread_data_baseEE11get_deleterERKSt9type_info, symObjAddr: 0x7760, symBinAddr: 0xB4BB3C, symSize: 0x8 }
  - { offset: 0x380F00, size: 0x8, addend: 0x0, symName: __ZN5boost6detail17sp_counted_impl_pINS0_16thread_data_baseEE11get_deleterERKSt9type_info, symObjAddr: 0x7760, symBinAddr: 0xB4BB3C, symSize: 0x8 }
  - { offset: 0x380F08, size: 0x8, addend: 0x0, symName: __ZN5boost6detail17sp_counted_impl_pINS0_16thread_data_baseEE17get_local_deleterERKSt9type_info, symObjAddr: 0x7768, symBinAddr: 0xB4BB44, symSize: 0x8 }
  - { offset: 0x380F43, size: 0x8, addend: 0x0, symName: __ZN5boost6detail17sp_counted_impl_pINS0_16thread_data_baseEE17get_local_deleterERKSt9type_info, symObjAddr: 0x7768, symBinAddr: 0xB4BB44, symSize: 0x8 }
  - { offset: 0x380F4B, size: 0x8, addend: 0x0, symName: __ZN5boost6detail17sp_counted_impl_pINS0_16thread_data_baseEE19get_untyped_deleterEv, symObjAddr: 0x7770, symBinAddr: 0xB4BB4C, symSize: 0x8 }
  - { offset: 0x380F86, size: 0x8, addend: 0x0, symName: __ZN5boost6detail17sp_counted_impl_pINS0_16thread_data_baseEE19get_untyped_deleterEv, symObjAddr: 0x7770, symBinAddr: 0xB4BB4C, symSize: 0x8 }
  - { offset: 0x380F8E, size: 0x8, addend: 0x0, symName: __ZNK5boost23enable_shared_from_thisINS_6detail16thread_data_baseEE22_internal_accept_ownerIS2_S2_EEvPKNS_10shared_ptrIT_EEPT0_, symObjAddr: 0x7778, symBinAddr: 0xB4BB54, symSize: 0x110 }
  - { offset: 0x38117E, size: 0x8, addend: 0x0, symName: __ZNK5boost23enable_shared_from_thisINS_6detail16thread_data_baseEE22_internal_accept_ownerIS2_S2_EEvPKNS_10shared_ptrIT_EEPT0_, symObjAddr: 0x7778, symBinAddr: 0xB4BB54, symSize: 0x110 }
  - { offset: 0x384C05, size: 0x8, addend: 0x0, symName: __MergedGlobals, symObjAddr: 0x238, symBinAddr: 0xEA0EA8, symSize: 0x0 }
  - { offset: 0x384C25, size: 0x8, addend: 0x0, symName: __MergedGlobals, symObjAddr: 0x238, symBinAddr: 0xEA0EA8, symSize: 0x0 }
  - { offset: 0x384C42, size: 0x8, addend: 0x0, symName: __ZN5boost13thread_detail17enter_once_regionERNS_9once_flagE, symObjAddr: 0x0, symBinAddr: 0xB4BD1C, symSize: 0x108 }
  - { offset: 0x384EAB, size: 0x8, addend: 0x0, symName: __ZN5boost13thread_detail18commit_once_regionERNS_9once_flagE, symObjAddr: 0x118, symBinAddr: 0xB4BE24, symSize: 0x6C }
  - { offset: 0x384EB3, size: 0x8, addend: 0x0, symName: __ZN5boost13thread_detail20rollback_once_regionERNS_9once_flagE, symObjAddr: 0x184, symBinAddr: 0xB4BE90, symSize: 0x68 }
  - { offset: 0x38506E, size: 0x8, addend: 0x0, symName: __ZN5boost13thread_detail20rollback_once_regionERNS_9once_flagE, symObjAddr: 0x184, symBinAddr: 0xB4BE90, symSize: 0x68 }
...
