---
triple:          'x86_64-apple-darwin'
binary-path:     '/Users/administratorregula/builds/2/CrossPlatform_LivenessSources/build_ios/iphonesimulator/Liveness/Release-iphonesimulator/Liveness.framework/Liveness'
relocations:
  - { offset: 0x446A, size: 0x8, addend: 0x0, symName: __ZNSt3__124__put_character_sequenceB8ne180100IcNS_11char_traitsIcEEEERNS_13basic_ostreamIT_T0_EES7_PKS4_m, symObjAddr: 0xC90, symBinAddr: 0x2000, symSize: 0x150 }
  - { offset: 0x5CB0, size: 0x8, addend: 0x0, symName: __ZNSt3__120__throw_length_errorB8ne180100EPKc, symObjAddr: 0xC10, symBinAddr: 0x1F80, symSize: 0x50 }
  - { offset: 0x61AA, size: 0x8, addend: 0x0, symName: __ZNSt3__116__pad_and_outputB8ne180100IcNS_11char_traitsIcEEEENS_19ostreambuf_iteratorIT_T0_EES6_PKS4_S8_S8_RNS_8ios_baseES4_, symObjAddr: 0xDE0, symBinAddr: 0x2150, symSize: 0x160 }
  - { offset: 0x7FA0, size: 0x8, addend: 0x0, symName: __ZNSt3__112basic_stringIcNS_11char_traitsIcEENS_9allocatorIcEEE25__init_copy_ctor_externalEPKcm, symObjAddr: 0xB70, symBinAddr: 0x1EE0, symSize: 0x90 }
  - { offset: 0x839A, size: 0x8, addend: 0x0, symName: __ZN6common5Timer5resetEv, symObjAddr: 0x50, symBinAddr: 0x1620, symSize: 0x30 }
  - { offset: 0x841B, size: 0x8, addend: 0x0, symName: __ZN6common5TimerC1ERKNSt3__112basic_stringIcNS1_11char_traitsIcEENS1_9allocatorIcEEEE, symObjAddr: 0x80, symBinAddr: 0x1650, symSize: 0x50 }
  - { offset: 0x8589, size: 0x8, addend: 0x0, symName: __ZN6common5Timer5clearEv, symObjAddr: 0xD0, symBinAddr: 0x16A0, symSize: 0x20 }
  - { offset: 0x85A9, size: 0x8, addend: 0x0, symName: __ZN6common5Timer5startEv, symObjAddr: 0xF0, symBinAddr: 0x16C0, symSize: 0x20 }
  - { offset: 0x869C, size: 0x8, addend: 0x0, symName: __ZNK6common5Timer14getTimeDeltaMsEv, symObjAddr: 0x110, symBinAddr: 0x16E0, symSize: 0x50 }
  - { offset: 0x8A24, size: 0x8, addend: 0x0, symName: __ZNKSt3__115basic_stringbufIcNS_11char_traitsIcEENS_9allocatorIcEEE3strEv, symObjAddr: 0xF40, symBinAddr: 0x22B0, symSize: 0x2C0 }
  - { offset: 0x9155, size: 0x8, addend: 0x0, symName: __ZNSt3__118basic_stringstreamIcNS_11char_traitsIcEENS_9allocatorIcEEED1Ev, symObjAddr: 0x3C0, symBinAddr: 0x1730, symSize: 0x90 }
  - { offset: 0x92E1, size: 0x8, addend: 0x0, symName: __ZN6common5Timer4stopEv, symObjAddr: 0x450, symBinAddr: 0x17C0, symSize: 0x50 }
  - { offset: 0x941E, size: 0x8, addend: 0x0, symName: __ZThn16_NSt3__118basic_stringstreamIcNS_11char_traitsIcEENS_9allocatorIcEEED1Ev, symObjAddr: 0x4B0, symBinAddr: 0x1820, symSize: 0x80 }
  - { offset: 0x95AF, size: 0x8, addend: 0x0, symName: __ZTv0_n24_NSt3__118basic_stringstreamIcNS_11char_traitsIcEENS_9allocatorIcEEED1Ev, symObjAddr: 0x530, symBinAddr: 0x18A0, symSize: 0xA0 }
  - { offset: 0x974E, size: 0x8, addend: 0x0, symName: __ZNSt3__118basic_stringstreamIcNS_11char_traitsIcEENS_9allocatorIcEEED0Ev, symObjAddr: 0x5D0, symBinAddr: 0x1940, symSize: 0x90 }
  - { offset: 0x9912, size: 0x8, addend: 0x0, symName: __ZThn16_NSt3__118basic_stringstreamIcNS_11char_traitsIcEENS_9allocatorIcEEED0Ev, symObjAddr: 0x660, symBinAddr: 0x19D0, symSize: 0x90 }
  - { offset: 0x9ABF, size: 0x8, addend: 0x0, symName: __ZTv0_n24_NSt3__118basic_stringstreamIcNS_11char_traitsIcEENS_9allocatorIcEEED0Ev, symObjAddr: 0x6F0, symBinAddr: 0x1A60, symSize: 0xB0 }
  - { offset: 0x9C7A, size: 0x8, addend: 0x0, symName: __ZNSt3__115basic_stringbufIcNS_11char_traitsIcEENS_9allocatorIcEEED1Ev, symObjAddr: 0x7A0, symBinAddr: 0x1B10, symSize: 0x40 }
  - { offset: 0x9DD0, size: 0x8, addend: 0x0, symName: __ZNSt3__115basic_stringbufIcNS_11char_traitsIcEENS_9allocatorIcEEED0Ev, symObjAddr: 0x7E0, symBinAddr: 0x1B50, symSize: 0x40 }
  - { offset: 0xA065, size: 0x8, addend: 0x0, symName: __ZNSt3__115basic_stringbufIcNS_11char_traitsIcEENS_9allocatorIcEEE7seekoffExNS_8ios_base7seekdirEj, symObjAddr: 0x820, symBinAddr: 0x1B90, symSize: 0x120 }
  - { offset: 0xA232, size: 0x8, addend: 0x0, symName: __ZNSt3__115basic_stringbufIcNS_11char_traitsIcEENS_9allocatorIcEEE7seekposENS_4fposI11__mbstate_tEEj, symObjAddr: 0x940, symBinAddr: 0x1CB0, symSize: 0x30 }
  - { offset: 0xA2D3, size: 0x8, addend: 0x0, symName: __ZNSt3__115basic_stringbufIcNS_11char_traitsIcEENS_9allocatorIcEEE9underflowEv, symObjAddr: 0x970, symBinAddr: 0x1CE0, symSize: 0x50 }
  - { offset: 0xA3B3, size: 0x8, addend: 0x0, symName: __ZNSt3__115basic_stringbufIcNS_11char_traitsIcEENS_9allocatorIcEEE9pbackfailEi, symObjAddr: 0x9C0, symBinAddr: 0x1D30, symSize: 0x60 }
  - { offset: 0xA618, size: 0x8, addend: 0x0, symName: __ZNSt3__115basic_stringbufIcNS_11char_traitsIcEENS_9allocatorIcEEE8overflowEi, symObjAddr: 0xA20, symBinAddr: 0x1D90, symSize: 0x150 }
  - { offset: 0xAC0B, size: 0x8, addend: 0x0, symName: __ZNKSt3__112basic_stringIcNS_11char_traitsIcEENS_9allocatorIcEEE20__throw_length_errorB8ne180100Ev, symObjAddr: 0xC00, symBinAddr: 0x1F70, symSize: 0x10 }
  - { offset: 0xAC35, size: 0x8, addend: 0x0, symName: __ZNSt3__120__throw_length_errorB8ne180100EPKc, symObjAddr: 0xC10, symBinAddr: 0x1F80, symSize: 0x50 }
  - { offset: 0xAC40, size: 0x8, addend: 0x0, symName: __ZNSt12length_errorC1B8ne180100EPKc, symObjAddr: 0xC60, symBinAddr: 0x1FD0, symSize: 0x30 }
  - { offset: 0x169B6, size: 0x8, addend: 0x0, symName: __ZNSt3__16vectorIhNS_9allocatorIhEEE18__insert_with_sizeB8ne180100INS_11__wrap_iterIPKcEES8_EENS5_IPhEENS5_IPKhEET_T0_l, symObjAddr: 0x1560, symBinAddr: 0x2890, symSize: 0x460 }
  - { offset: 0x1763D, size: 0x8, addend: 0x0, symName: __ZNSt3__16vectorIhNS_9allocatorIhEEE18__insert_with_sizeB8ne180100INS_11__wrap_iterIPKhEES8_EENS5_IPhEES8_T_T0_l, symObjAddr: 0x19C0, symBinAddr: 0x2CF0, symSize: 0x3A0 }
  - { offset: 0x1837C, size: 0x8, addend: 0x0, symName: __ZN6common6base647EncoderC1ERKNSt3__16vectorIhNS2_9allocatorIhEEEENS_13Base64Rfc46486OptionE, symObjAddr: 0x3B0, symBinAddr: 0x2570, symSize: 0xA0 }
  - { offset: 0x18A95, size: 0x8, addend: 0x0, symName: __ZN6common6base647Encoder8toStringEv, symObjAddr: 0x740, symBinAddr: 0x2610, symSize: 0xF0 }
  - { offset: 0x1901D, size: 0x8, addend: 0x0, symName: __ZN6common6base647Encoder21internalEncodeProcessEv, symObjAddr: 0x830, symBinAddr: 0x2700, symSize: 0x180 }
  - { offset: 0x192AB, size: 0x8, addend: 0x0, symName: __ZNSt3__16vectorIcNS_9allocatorIcEEE8__appendEmRKc, symObjAddr: 0x2100, symBinAddr: 0x3090, symSize: 0x440 }
  - { offset: 0x199C0, size: 0x8, addend: 0x0, symName: __ZNKSt3__16vectorIhNS_9allocatorIhEEE20__throw_length_errorB8ne180100Ev, symObjAddr: 0xF10, symBinAddr: 0x2880, symSize: 0x10 }
  - { offset: 0x1A550, size: 0x8, addend: 0x0, symName: __ZNKSt3__16vectorIcNS_9allocatorIcEEE20__throw_length_errorB8ne180100Ev, symObjAddr: 0x2540, symBinAddr: 0x34D0, symSize: 0x10 }
  - { offset: 0x1D315, size: 0x8, addend: 0x0, symName: __ZN6common13Base64Rfc4648C2ENS0_6OptionE, symObjAddr: 0x100, symBinAddr: 0x34E0, symSize: 0x90 }
  - { offset: 0x201C7, size: 0x8, addend: 0x0, symName: __ZN6common3zip5entryrsERNS0_12input_readerERNS1_12extraField_tE, symObjAddr: 0xA20, symBinAddr: 0x35A0, symSize: 0x120 }
  - { offset: 0x2D13D, size: 0x8, addend: 0x0, symName: __ZSt28__throw_bad_array_new_lengthB8ne180100v, symObjAddr: 0x3C40, symBinAddr: 0x5880, symSize: 0x40 }
  - { offset: 0x2DDAA, size: 0x8, addend: 0x0, symName: __ZNSt11range_errorC1B8ne180100EPKc, symObjAddr: 0x200, symBinAddr: 0x3570, symSize: 0x30 }
  - { offset: 0x2E6DC, size: 0x8, addend: 0x0, symName: __ZN6common3zip5entry10local_file6header7extractERNS0_12input_readerE, symObjAddr: 0xB40, symBinAddr: 0x36C0, symSize: 0x610 }
  - { offset: 0x30D7A, size: 0x8, addend: 0x0, symName: __ZNKSt3__16vectorIN6common3zip5entry12extraField_tENS_9allocatorIS4_EEE20__throw_length_errorB8ne180100Ev, symObjAddr: 0x3C80, symBinAddr: 0x58C0, symSize: 0x10 }
  - { offset: 0x30DA4, size: 0x8, addend: 0x0, symName: __ZNSt3__16vectorINS_12basic_stringIcNS_11char_traitsIcEENS_9allocatorIcEEEENS4_IS6_EEE24__emplace_back_slow_pathIJRKNS_17basic_string_viewIcS3_EEEEEPS6_DpOT_, symObjAddr: 0x3C90, symBinAddr: 0x58D0, symSize: 0x210 }
  - { offset: 0x30DAF, size: 0x8, addend: 0x0, symName: __ZN6common3zip5entry17central_directory11file_header7extractERNS0_12input_readerE, symObjAddr: 0x1340, symBinAddr: 0x3CD0, symSize: 0x890 }
  - { offset: 0x346FE, size: 0x8, addend: 0x0, symName: __ZN6common3zip5entry17central_directory7extractERNS0_12input_readerE, symObjAddr: 0x1BD0, symBinAddr: 0x4560, symSize: 0x390 }
  - { offset: 0x35EE4, size: 0x8, addend: 0x0, symName: __ZN6common3zip11mapped_file12parseProcessEv, symObjAddr: 0x1FA0, symBinAddr: 0x48F0, symSize: 0x660 }
  - { offset: 0x37F4F, size: 0x8, addend: 0x0, symName: __ZNSt3__16vectorIN6common3zip5entry17central_directory11file_headerENS_9allocatorIS5_EEE24__emplace_back_slow_pathIJS5_EEEPS5_DpOT_, symObjAddr: 0x3F20, symBinAddr: 0x5B50, symSize: 0x240 }
  - { offset: 0x386A3, size: 0x8, addend: 0x0, symName: __ZNSt3__16vectorIN6common3zip11mapped_file10entry_fileENS_9allocatorIS4_EEE5clearB8ne180100Ev, symObjAddr: 0x2C00, symBinAddr: 0x5010, symSize: 0x50 }
  - { offset: 0x388ED, size: 0x8, addend: 0x0, symName: __ZNSt3__16vectorIN6common3zip11mapped_file10entry_fileENS_9allocatorIS4_EEE7reserveEm, symObjAddr: 0x2C50, symBinAddr: 0x5060, symSize: 0x160 }
  - { offset: 0x38EB3, size: 0x8, addend: 0x0, symName: __ZNSt3__16vectorIN6common3zip11mapped_file10entry_fileENS_9allocatorIS4_EEE24__emplace_back_slow_pathIJRKNS2_5entry17central_directory11file_headerEEEEPS4_DpOT_, symObjAddr: 0x4180, symBinAddr: 0x5DB0, symSize: 0x240 }
  - { offset: 0x39668, size: 0x8, addend: 0x0, symName: __ZNSt3__16vectorIN6common3zip5entry17central_directory11file_headerENS_9allocatorIS5_EEED1B8ne180100Ev, symObjAddr: 0x2DC0, symBinAddr: 0x51C0, symSize: 0x80 }
  - { offset: 0x39E6B, size: 0x8, addend: 0x0, symName: __ZNSt3__16vectorINS_12basic_stringIcNS_11char_traitsIcEENS_9allocatorIcEEEENS4_IS6_EEE24__emplace_back_slow_pathIJRKNS_17basic_string_viewIcS3_EEEEEPS6_DpOT_, symObjAddr: 0x3C90, symBinAddr: 0x58D0, symSize: 0x210 }
  - { offset: 0x3A8D1, size: 0x8, addend: 0x0, symName: __ZNSt3__114__split_bufferINS_12basic_stringIcNS_11char_traitsIcEENS_9allocatorIcEEEERNS4_IS6_EEED1Ev, symObjAddr: 0x3EB0, symBinAddr: 0x5AE0, symSize: 0x60 }
  - { offset: 0x3A8DC, size: 0x8, addend: 0x0, symName: __ZNSt3__16vectorINS_12basic_stringIcNS_11char_traitsIcEENS_9allocatorIcEEEENS4_IS6_EEED1B8ne180100Ev, symObjAddr: 0x2860, symBinAddr: 0x4F50, symSize: 0x70 }
  - { offset: 0x3ADB3, size: 0x8, addend: 0x0, symName: __ZNK6common3zip11mapped_file10entry_file10decompressEv, symObjAddr: 0x2FA0, symBinAddr: 0x5240, symSize: 0x150 }
  - { offset: 0x3B178, size: 0x8, addend: 0x0, symName: __ZNK6common3zip11mapped_file10entry_file16decompressedDataEv, symObjAddr: 0x2970, symBinAddr: 0x4FC0, symSize: 0x30 }
  - { offset: 0x3B2BB, size: 0x8, addend: 0x0, symName: __ZNK6common3zip11mapped_file5beginEv, symObjAddr: 0x2AA0, symBinAddr: 0x4FF0, symSize: 0x10 }
  - { offset: 0x3B2FA, size: 0x8, addend: 0x0, symName: __ZNK6common3zip11mapped_file3endEv, symObjAddr: 0x2AC0, symBinAddr: 0x5000, symSize: 0x10 }
  - { offset: 0x3B662, size: 0x8, addend: 0x0, symName: __ZNKSt3__16vectorIN6common3zip11mapped_file10entry_fileENS_9allocatorIS4_EEE20__throw_length_errorB8ne180100Ev, symObjAddr: 0x4170, symBinAddr: 0x5DA0, symSize: 0x10 }
  - { offset: 0x3B68C, size: 0x8, addend: 0x0, symName: __ZNSt3__16vectorIN6common3zip11mapped_file10entry_fileENS_9allocatorIS4_EEE24__emplace_back_slow_pathIJRKNS2_5entry17central_directory11file_headerEEEEPS4_DpOT_, symObjAddr: 0x4180, symBinAddr: 0x5DB0, symSize: 0x240 }
  - { offset: 0x3B8B3, size: 0x8, addend: 0x0, symName: __ZNSt3__16vectorIhNS_9allocatorIhEEE6assignEmRKh, symObjAddr: 0x3110, symBinAddr: 0x5390, symSize: 0x320 }
  - { offset: 0x3C14B, size: 0x8, addend: 0x0, symName: __ZN6common3zip4fileaSENS_4type4spanIKhLm18446744073709551615EEE, symObjAddr: 0x35B0, symBinAddr: 0x56B0, symSize: 0x140 }
  - { offset: 0x3CCCF, size: 0x8, addend: 0x0, symName: __ZN6common3zip4fileC1EONSt3__16vectorIhNS2_9allocatorIhEEEE, symObjAddr: 0x3800, symBinAddr: 0x57F0, symSize: 0x90 }
  - { offset: 0x3CFC0, size: 0x8, addend: 0x0, symName: __ZN6common3zip4fileC1EONSt3__16vectorIhNS2_9allocatorIhEEEE.cold.1, symObjAddr: 0x4550, symBinAddr: 0xE44730, symSize: 0x5F }
  - { offset: 0x3D2DD, size: 0x8, addend: 0x0, symName: __ZNSt3__16vectorIhNS_9allocatorIhEEE18__assign_with_sizeB8ne180100IPhS5_EEvT_T0_l, symObjAddr: 0x43C0, symBinAddr: 0x5FF0, symSize: 0x130 }
  - { offset: 0x3E115, size: 0x8, addend: 0x0, symName: __ZNKSt3__16vectorINS_12basic_stringIcNS_11char_traitsIcEENS_9allocatorIcEEEENS4_IS6_EEE20__throw_length_errorB8ne180100Ev, symObjAddr: 0x3F10, symBinAddr: 0x5B40, symSize: 0x10 }
  - { offset: 0x3E13F, size: 0x8, addend: 0x0, symName: __ZNSt3__16vectorIN6common3zip5entry17central_directory11file_headerENS_9allocatorIS5_EEE24__emplace_back_slow_pathIJS5_EEEPS5_DpOT_, symObjAddr: 0x3F20, symBinAddr: 0x5B50, symSize: 0x240 }
  - { offset: 0x3E14A, size: 0x8, addend: 0x0, symName: __ZNSt3__114__split_bufferINS_12basic_stringIcNS_11char_traitsIcEENS_9allocatorIcEEEERNS4_IS6_EEED1Ev, symObjAddr: 0x3EB0, symBinAddr: 0x5AE0, symSize: 0x60 }
  - { offset: 0x3E5CA, size: 0x8, addend: 0x0, symName: __ZNKSt3__16vectorIN6common3zip5entry17central_directory11file_headerENS_9allocatorIS5_EEE20__throw_length_errorB8ne180100Ev, symObjAddr: 0x4160, symBinAddr: 0x5D90, symSize: 0x10 }
  - { offset: 0x3E5F4, size: 0x8, addend: 0x0, symName: __ZNKSt3__16vectorIN6common3zip11mapped_file10entry_fileENS_9allocatorIS4_EEE20__throw_length_errorB8ne180100Ev, symObjAddr: 0x4170, symBinAddr: 0x5DA0, symSize: 0x10 }
  - { offset: 0x4054F, size: 0x8, addend: 0x0, symName: __ZN7facesdk14LSessionParams14posConstNormalE, symObjAddr: 0x19648, symBinAddr: 0x108CE28, symSize: 0x0 }
  - { offset: 0x40A20, size: 0x8, addend: 0x0, symName: __ZN7facesdk14LSessionParams12posConstNearE, symObjAddr: 0x19668, symBinAddr: 0x108CE48, symSize: 0x0 }
  - { offset: 0x6A8E9, size: 0x8, addend: 0x0, symName: __ZNSt3__119__allocator_destroyB8ne180100INS_9allocatorIN7facesdk6LStageEEENS_16reverse_iteratorIPS3_EES7_EEvRT_T0_T1_, symObjAddr: 0xE700, symBinAddr: 0x14540, symSize: 0x190 }
  - { offset: 0x71107, size: 0x8, addend: 0x0, symName: __ZNSt3__120__throw_out_of_rangeB8ne180100EPKc, symObjAddr: 0xEC60, symBinAddr: 0x14AA0, symSize: 0x50 }
  - { offset: 0x71519, size: 0x8, addend: 0x0, symName: __ZNSt3__119__allocator_destroyB8ne180100INS_9allocatorIN7facesdk6LStageEEENS_16reverse_iteratorINS5_IPS3_EEEES8_EEvRT_T0_T1_, symObjAddr: 0xF430, symBinAddr: 0x15270, symSize: 0x170 }
  - { offset: 0x71FF8, size: 0x8, addend: 0x0, symName: __ZNSt3__127__tree_balance_after_insertB8ne180100IPNS_16__tree_node_baseIPvEEEEvT_S5_, symObjAddr: 0xFC20, symBinAddr: 0x15A60, symSize: 0x160 }
  - { offset: 0x7B944, size: 0x8, addend: 0x0, symName: __ZN8nlohmann16json_abi_v3_11_26detail6concatINSt3__112basic_stringIcNS3_11char_traitsIcEENS3_9allocatorIcEEEEJRA29_KcPSA_EEET_DpOT0_, symObjAddr: 0xBD70, symBinAddr: 0x11C50, symSize: 0x80 }
  - { offset: 0x7BBCE, size: 0x8, addend: 0x0, symName: __ZN8nlohmann16json_abi_v3_11_26detail9from_jsonINS0_10basic_jsonINSt3__13mapENS4_6vectorENS4_12basic_stringIcNS4_11char_traitsIcEENS4_9allocatorIcEEEEbxydSA_NS0_14adl_serializerENS6_IhNSA_IhEEEEEEmLi0EEEvRKT_RT0_, symObjAddr: 0xBAD0, symBinAddr: 0x119B0, symSize: 0x120 }
  - { offset: 0x7BDA8, size: 0x8, addend: 0x0, symName: __ZN8nlohmann16json_abi_v3_11_26detail6concatINSt3__112basic_stringIcNS3_11char_traitsIcEENS3_9allocatorIcEEEEJRA22_KcPSA_EEET_DpOT0_, symObjAddr: 0x12420, symBinAddr: 0x17E70, symSize: 0x80 }
  - { offset: 0x7C054, size: 0x8, addend: 0x0, symName: __ZN8nlohmann16json_abi_v3_11_26detail6concatINSt3__112basic_stringIcNS3_11char_traitsIcEENS3_9allocatorIcEEEEJRA6_KcS9_RA12_SA_EEET_DpOT0_, symObjAddr: 0x124A0, symBinAddr: 0x17EF0, symSize: 0xD0 }
  - { offset: 0x7C503, size: 0x8, addend: 0x0, symName: __ZN8nlohmann16json_abi_v3_11_26detail6concatINSt3__112basic_stringIcNS3_11char_traitsIcEENS3_9allocatorIcEEEEJRA32_KcPSA_EEET_DpOT0_, symObjAddr: 0x12570, symBinAddr: 0x17FC0, symSize: 0x80 }
  - { offset: 0x7C7AF, size: 0x8, addend: 0x0, symName: __ZN8nlohmann16json_abi_v3_11_26detail9from_jsonINS0_10basic_jsonINSt3__13mapENS4_6vectorENS4_12basic_stringIcNS4_11char_traitsIcEENS4_9allocatorIcEEEEbxydSA_NS0_14adl_serializerENS6_IhNSA_IhEEEEEEEEvRKT_RNSH_8string_tE, symObjAddr: 0x13440, symBinAddr: 0x18E90, symSize: 0xD0 }
  - { offset: 0x7C9B5, size: 0x8, addend: 0x0, symName: __ZN8nlohmann16json_abi_v3_11_26detail9from_jsonINS0_10basic_jsonINSt3__13mapENS4_6vectorENS4_12basic_stringIcNS4_11char_traitsIcEENS4_9allocatorIcEEEEbxydSA_NS0_14adl_serializerENS6_IhNSA_IhEEEEEEiLi0EEEvRKT_RT0_, symObjAddr: 0x17AA0, symBinAddr: 0x1D4E0, symSize: 0x100 }
  - { offset: 0x7CB8F, size: 0x8, addend: 0x0, symName: __ZN8nlohmann16json_abi_v3_11_26detail9from_jsonINS0_10basic_jsonINSt3__13mapENS4_6vectorENS4_12basic_stringIcNS4_11char_traitsIcEENS4_9allocatorIcEEEEbxydSA_NS0_14adl_serializerENS6_IhNSA_IhEEEEEENS6_IjNSA_IjEEEELi0EEEDTcmcmcl20from_json_array_implfp_fp0_tlNS1_12priority_tagILj3EEEEEcldtfp_3getINT0_10value_typeEEEcvv_EERKT_RSL_, symObjAddr: 0xC150, symBinAddr: 0x12030, symSize: 0xC0 }
  - { offset: 0x7CDBE, size: 0x8, addend: 0x0, symName: __ZN8nlohmann16json_abi_v3_11_26detail20get_arithmetic_valueINS0_10basic_jsonINSt3__13mapENS4_6vectorENS4_12basic_stringIcNS4_11char_traitsIcEENS4_9allocatorIcEEEEbxydSA_NS0_14adl_serializerENS6_IhNSA_IhEEEEEEiLi0EEEvRKT_RT0_, symObjAddr: 0x13360, symBinAddr: 0x18DB0, symSize: 0xE0 }
  - { offset: 0x7CF94, size: 0x8, addend: 0x0, symName: __ZN8nlohmann16json_abi_v3_11_26detail6concatINSt3__112basic_stringIcNS3_11char_traitsIcEENS3_9allocatorIcEEEEJRA25_KcPSA_EEET_DpOT0_, symObjAddr: 0x132E0, symBinAddr: 0x18D30, symSize: 0x80 }
  - { offset: 0x7D441, size: 0x8, addend: 0x0, symName: __ZN8nlohmann16json_abi_v3_11_26detail9from_jsonINS0_10basic_jsonINSt3__13mapENS4_6vectorENS4_12basic_stringIcNS4_11char_traitsIcEENS4_9allocatorIcEEEEbxydSA_NS0_14adl_serializerENS6_IhNSA_IhEEEEEEfLi0EEEvRKT_RT0_, symObjAddr: 0x17BA0, symBinAddr: 0x1D5E0, symSize: 0x140 }
  - { offset: 0x7D61B, size: 0x8, addend: 0x0, symName: __ZN8nlohmann16json_abi_v3_11_26detail9from_jsonINS0_10basic_jsonINSt3__13mapENS4_6vectorENS4_12basic_stringIcNS4_11char_traitsIcEENS4_9allocatorIcEEEEbxydSA_NS0_14adl_serializerENS6_IhNSA_IhEEEEEEEEvRKT_RNSH_9boolean_tE, symObjAddr: 0x17CE0, symBinAddr: 0x1D720, symSize: 0xC0 }
  - { offset: 0x7D7E2, size: 0x8, addend: 0x0, symName: __ZN8nlohmann16json_abi_v3_11_26detail6concatINSt3__112basic_stringIcNS3_11char_traitsIcEENS3_9allocatorIcEEEEJRA17_KcRKS9_cS9_RA3_SA_EEET_DpOT0_, symObjAddr: 0xBF60, symBinAddr: 0x11E40, symSize: 0x130 }
  - { offset: 0x7DD9E, size: 0x8, addend: 0x0, symName: __ZN8nlohmann16json_abi_v3_11_26detail6concatINSt3__112basic_stringIcNS3_11char_traitsIcEENS3_9allocatorIcEEEEJS9_S9_RKS9_EEET_DpOT0_, symObjAddr: 0xBE50, symBinAddr: 0x11D30, symSize: 0x110 }
  - { offset: 0x7E74F, size: 0x8, addend: 0x0, symName: __ZN8nlohmann16json_abi_v3_11_26detail20from_json_array_implINS0_10basic_jsonINSt3__13mapENS4_6vectorENS4_12basic_stringIcNS4_11char_traitsIcEENS4_9allocatorIcEEEEbxydSA_NS0_14adl_serializerENS6_IhNSA_IhEEEEEENS6_IjNSA_IjEEEELi0EEEDTcmcmcldtfp0_7reserveclsr3stdE7declvalINT0_9size_typeEEEEcldtfp_3getINSJ_10value_typeEEEcvv_EERKT_RSJ_NS1_12priority_tagILj1EEE, symObjAddr: 0xC290, symBinAddr: 0x12170, symSize: 0x2A0 }
  - { offset: 0x7F26A, size: 0x8, addend: 0x0, symName: __ZN8nlohmann16json_abi_v3_11_26detail6concatINSt3__112basic_stringIcNS3_11char_traitsIcEENS3_9allocatorIcEEEEJRA28_KcPSA_EEET_DpOT0_, symObjAddr: 0xC210, symBinAddr: 0x120F0, symSize: 0x80 }
  - { offset: 0x7F568, size: 0x8, addend: 0x0, symName: __ZN8nlohmann16json_abi_v3_11_26detail9from_jsonINS0_10basic_jsonINSt3__13mapENS4_6vectorENS4_12basic_stringIcNS4_11char_traitsIcEENS4_9allocatorIcEEEEbxydSA_NS0_14adl_serializerENS6_IhNSA_IhEEEEEEjLi0EEEvRKT_RT0_, symObjAddr: 0xC920, symBinAddr: 0x12800, symSize: 0x100 }
  - { offset: 0x7F7D8, size: 0x8, addend: 0x0, symName: __ZN8nlohmann16json_abi_v3_11_26detail6concatINSt3__112basic_stringIcNS3_11char_traitsIcEENS3_9allocatorIcEEEEJRA51_KcPSA_EEET_DpOT0_, symObjAddr: 0xF9B0, symBinAddr: 0x157F0, symSize: 0x80 }
  - { offset: 0x7FA4E, size: 0x8, addend: 0x0, symName: __ZN8nlohmann16json_abi_v3_11_26detail6concatINSt3__112basic_stringIcNS3_11char_traitsIcEENS3_9allocatorIcEEEEJRA61_KcPSA_EEET_DpOT0_, symObjAddr: 0x10C40, symBinAddr: 0x16A30, symSize: 0x80 }
  - { offset: 0x7FD4C, size: 0x8, addend: 0x0, symName: __ZN8nlohmann16json_abi_v3_11_26detail6concatINSt3__112basic_stringIcNS3_11char_traitsIcEENS3_9allocatorIcEEEEJRA52_KcS9_RA2_SA_EEET_DpOT0_, symObjAddr: 0x11480, symBinAddr: 0x17270, symSize: 0xD0 }
  - { offset: 0x802A0, size: 0x8, addend: 0x0, symName: __ZN8nlohmann16json_abi_v3_11_26detail6concatINSt3__112basic_stringIcNS3_11char_traitsIcEENS3_9allocatorIcEEEEJRA16_KcS9_RA56_SA_EEET_DpOT0_, symObjAddr: 0x11CC0, symBinAddr: 0x17AB0, symSize: 0xD0 }
  - { offset: 0x80A0A, size: 0x8, addend: 0x0, symName: __ZN8nlohmann16json_abi_v3_11_26detail6concatINSt3__112basic_stringIcNS3_11char_traitsIcEENS3_9allocatorIcEEEEJRA52_KcPSA_EEET_DpOT0_, symObjAddr: 0x12DD0, symBinAddr: 0x18820, symSize: 0x80 }
  - { offset: 0x80DF5, size: 0x8, addend: 0x0, symName: __ZN8nlohmann16json_abi_v3_11_26detail6concatINSt3__112basic_stringIcNS3_11char_traitsIcEENS3_9allocatorIcEEEEJRA26_KcS9_cEEET_DpOT0_, symObjAddr: 0x17430, symBinAddr: 0x1CE70, symSize: 0xB0 }
  - { offset: 0x811AD, size: 0x8, addend: 0x0, symName: __ZN8nlohmann16json_abi_v3_11_26detail6concatINSt3__112basic_stringIcNS3_11char_traitsIcEENS3_9allocatorIcEEEEJS9_RA12_KcS9_RA3_SA_S9_RKS9_EEET_DpOT0_, symObjAddr: 0x17610, symBinAddr: 0x1D050, symSize: 0x1A0 }
  - { offset: 0x81B3F, size: 0x8, addend: 0x0, symName: __ZN8nlohmann16json_abi_v3_11_26detail6concatINSt3__112basic_stringIcNS3_11char_traitsIcEENS3_9allocatorIcEEEEJPKcRA15_SA_S9_cEEET_DpOT0_, symObjAddr: 0x179C0, symBinAddr: 0x1D400, symSize: 0xE0 }
  - { offset: 0x82414, size: 0x8, addend: 0x0, symName: __ZN8nlohmann16json_abi_v3_11_26detail6concatINSt3__112basic_stringIcNS3_11char_traitsIcEENS3_9allocatorIcEEEEJRA10_KcS9_SC_S9_EEET_DpOT0_, symObjAddr: 0x17870, symBinAddr: 0x1D2B0, symSize: 0x110 }
  - { offset: 0x82C8E, size: 0x8, addend: 0x0, symName: __ZN8nlohmann16json_abi_v3_11_26detail6concatINSt3__112basic_stringIcNS3_11char_traitsIcEENS3_9allocatorIcEEEEJRA30_KcPSA_EEET_DpOT0_, symObjAddr: 0x17DA0, symBinAddr: 0x1D7E0, symSize: 0x80 }
  - { offset: 0x87407, size: 0x8, addend: 0x0, symName: __ZN7facesdk15LivenessSessionC2ERKNS_14LSessionParamsERKN8nlohmann16json_abi_v3_11_210basic_jsonINSt3__13mapENS7_6vectorENS7_12basic_stringIcNS7_11char_traitsIcEENS7_9allocatorIcEEEEbxydSD_NS5_14adl_serializerENS9_IhNSD_IhEEEEEE, symObjAddr: 0x0, symBinAddr: 0x6120, symSize: 0x7F0 }
  - { offset: 0x897A3, size: 0x8, addend: 0x0, symName: __ZN7facesdk14LSessionParamsC2ERKS0_, symObjAddr: 0xB390, symBinAddr: 0x11340, symSize: 0x3A0 }
  - { offset: 0x8A459, size: 0x8, addend: 0x0, symName: __ZN7facesdk6LStageC2ERKS0_, symObjAddr: 0xDBC0, symBinAddr: 0x13A00, symSize: 0x210 }
  - { offset: 0x8A8DB, size: 0x8, addend: 0x0, symName: __ZN8nlohmann16json_abi_v3_11_210basic_jsonINSt3__13mapENS2_6vectorENS2_12basic_stringIcNS2_11char_traitsIcEENS2_9allocatorIcEEEEbxydS8_NS0_14adl_serializerENS4_IhNS8_IhEEEEE10json_value7destroyENS0_6detail7value_tE, symObjAddr: 0xCED0, symBinAddr: 0x12D10, symSize: 0x730 }
  - { offset: 0x8C576, size: 0x8, addend: 0x0, symName: __ZNSt3__16vectorIfNS_9allocatorIfEEE8__appendEm, symObjAddr: 0xD990, symBinAddr: 0x137D0, symSize: 0x210 }
  - { offset: 0x8CAE7, size: 0x8, addend: 0x0, symName: __ZN7facesdk15LivenessSession11initPackageERKN8nlohmann16json_abi_v3_11_210basic_jsonINSt3__13mapENS4_6vectorENS4_12basic_stringIcNS4_11char_traitsIcEENS4_9allocatorIcEEEEbxydSA_NS2_14adl_serializerENS6_IhNSA_IhEEEEEE, symObjAddr: 0x920, symBinAddr: 0x6A40, symSize: 0x160 }
  - { offset: 0x8D263, size: 0x8, addend: 0x0, symName: __ZNSt3__16vectorIN7facesdk6LStageENS_9allocatorIS2_EEE22__base_destruct_at_endB8ne180100EPS2_, symObjAddr: 0xE890, symBinAddr: 0x146D0, symSize: 0x170 }
  - { offset: 0x8DC5F, size: 0x8, addend: 0x0, symName: __ZN7facesdk6LStageD1Ev, symObjAddr: 0x890, symBinAddr: 0x69B0, symSize: 0x90 }
  - { offset: 0x8DF5C, size: 0x8, addend: 0x0, symName: __ZN8nlohmann16json_abi_v3_11_210basic_jsonINSt3__13mapENS2_6vectorENS2_12basic_stringIcNS2_11char_traitsIcEENS2_9allocatorIcEEEEbxydS8_NS0_14adl_serializerENS4_IhNS8_IhEEEEED1Ev, symObjAddr: 0xA80, symBinAddr: 0x6BA0, symSize: 0x20 }
  - { offset: 0x8DFA3, size: 0x8, addend: 0x0, symName: __ZNSt3__16vectorIN7facesdk6LStageENS_9allocatorIS2_EEED1B8ne180100Ev, symObjAddr: 0xAA0, symBinAddr: 0x6BC0, symSize: 0x30 }
  - { offset: 0x8E0C4, size: 0x8, addend: 0x0, symName: __ZNSt3__15dequeIN7facesdk11eFL_MessageENS_9allocatorIS2_EEED2B8ne180100Ev, symObjAddr: 0xBA00, symBinAddr: 0x118E0, symSize: 0xD0 }
  - { offset: 0x8E4BD, size: 0x8, addend: 0x0, symName: __ZN7facesdk14LSessionParamsD1Ev, symObjAddr: 0xAD0, symBinAddr: 0x6BF0, symSize: 0xD0 }
  - { offset: 0x8ECA5, size: 0x8, addend: 0x0, symName: __ZNSt3__112basic_stringIcNS_11char_traitsIcEENS_9allocatorIcEEEC1B8ne180100ILi0EEEPKc, symObjAddr: 0x7F0, symBinAddr: 0x6910, symSize: 0xA0 }
  - { offset: 0x8F108, size: 0x8, addend: 0x0, symName: __ZN7facesdk12LFrameResultD2Ev, symObjAddr: 0xB890, symBinAddr: 0x11770, symSize: 0xD0 }
  - { offset: 0x8F856, size: 0x8, addend: 0x0, symName: __ZN8nlohmann16json_abi_v3_11_210basic_jsonINSt3__13mapENS2_6vectorENS2_12basic_stringIcNS2_11char_traitsIcEENS2_9allocatorIcEEEEbxydS8_NS0_14adl_serializerENS4_IhNS8_IhEEEEEixIKcEERSE_PT_, symObjAddr: 0x4390, symBinAddr: 0xA340, symSize: 0xF0 }
  - { offset: 0x8FF36, size: 0x8, addend: 0x0, symName: __ZNK8nlohmann16json_abi_v3_11_210basic_jsonINSt3__13mapENS2_6vectorENS2_12basic_stringIcNS2_11char_traitsIcEENS2_9allocatorIcEEEEbxydS8_NS0_14adl_serializerENS4_IhNS8_IhEEEEE2atIRA7_KcLi0EEERKSE_OT_, symObjAddr: 0x54E0, symBinAddr: 0xB490, symSize: 0x1D0 }
  - { offset: 0x9060C, size: 0x8, addend: 0x0, symName: __ZN8nlohmann16json_abi_v3_11_210basic_jsonINSt3__13mapENS2_6vectorENS2_12basic_stringIcNS2_11char_traitsIcEENS2_9allocatorIcEEEEbxydS8_NS0_14adl_serializerENS4_IhNS8_IhEEEEEC2ERKSE_, symObjAddr: 0xFD80, symBinAddr: 0x15BC0, symSize: 0x250 }
  - { offset: 0x9159F, size: 0x8, addend: 0x0, symName: __ZN7facesdk15LivenessSessionC1ERKNS_14LSessionParamsERKN8nlohmann16json_abi_v3_11_210basic_jsonINSt3__13mapENS7_6vectorENS7_12basic_stringIcNS7_11char_traitsIcEENS7_9allocatorIcEEEEbxydSD_NS5_14adl_serializerENS9_IhNSD_IhEEEEEE, symObjAddr: 0xBA0, symBinAddr: 0x6CC0, symSize: 0x10 }
  - { offset: 0x9165F, size: 0x8, addend: 0x0, symName: __ZNK7facesdk15LivenessSession9frameSizeEv, symObjAddr: 0xBB0, symBinAddr: 0x6CD0, symSize: 0x10 }
  - { offset: 0x916CD, size: 0x8, addend: 0x0, symName: __ZNK7facesdk15LivenessSession11numChannelsEv, symObjAddr: 0xBC0, symBinAddr: 0x6CE0, symSize: 0x10 }
  - { offset: 0x916F4, size: 0x8, addend: 0x0, symName: __ZNK7facesdk15LivenessSession13rotationAngleEv, symObjAddr: 0xBD0, symBinAddr: 0x6CF0, symSize: 0x10 }
  - { offset: 0x91780, size: 0x8, addend: 0x0, symName: __ZN7facesdk15LivenessSession6statusEv, symObjAddr: 0xBE0, symBinAddr: 0x6D00, symSize: 0x80 }
  - { offset: 0x91800, size: 0x8, addend: 0x0, symName: __ZN7facesdk15LivenessSession7messageEv, symObjAddr: 0xCD0, symBinAddr: 0x6D80, symSize: 0xE0 }
  - { offset: 0x91874, size: 0x8, addend: 0x0, symName: __ZNK7facesdk15LivenessSession15processingStageEv, symObjAddr: 0xDB0, symBinAddr: 0x6E60, symSize: 0x20 }
  - { offset: 0x918B3, size: 0x8, addend: 0x0, symName: __ZNK7facesdk15LivenessSession14processingTimeEv, symObjAddr: 0xDD0, symBinAddr: 0x6E80, symSize: 0x20 }
  - { offset: 0x918D5, size: 0x8, addend: 0x0, symName: __ZNK7facesdk15LivenessSession6paramsEv, symObjAddr: 0xDF0, symBinAddr: 0x6EA0, symSize: 0x10 }
  - { offset: 0x91A7B, size: 0x8, addend: 0x0, symName: __ZN7facesdk15LivenessSession13startNewFrameEv, symObjAddr: 0xE00, symBinAddr: 0x6EB0, symSize: 0xB0 }
  - { offset: 0x91C0F, size: 0x8, addend: 0x0, symName: __ZNSt3__16vectorIN7facesdk12LFrameResultENS_9allocatorIS2_EEE24__emplace_back_slow_pathIJEEEPS2_DpOT_, symObjAddr: 0xEA00, symBinAddr: 0x14840, symSize: 0x200 }
  - { offset: 0x922C1, size: 0x8, addend: 0x0, symName: __ZN7facesdk15LivenessSession5abortEv, symObjAddr: 0xEB0, symBinAddr: 0x6F60, symSize: 0x70 }
  - { offset: 0x923DA, size: 0x8, addend: 0x0, symName: __ZN7facesdk15LivenessSession15faceDetectionOkERKNSt3__16vectorIN2cv5Rect_IiEENS1_9allocatorIS5_EEEERKNS2_INS2_INS3_6Point_IiEENS6_ISC_EEEENS6_ISE_EEEERKNS2_INS2_IfNS6_IfEEEENS6_ISK_EEEE, symObjAddr: 0xF20, symBinAddr: 0x6FD0, symSize: 0xB0 }
  - { offset: 0x92634, size: 0x8, addend: 0x0, symName: __ZN7facesdk15LivenessSession20facePositionNormalOkERNS_12LFrameResultE, symObjAddr: 0x1010, symBinAddr: 0x7080, symSize: 0x1C0 }
  - { offset: 0x9292E, size: 0x8, addend: 0x0, symName: __ZN7facesdk15LivenessSession18facePositionNearOkERNS_12LFrameResultE, symObjAddr: 0x11D0, symBinAddr: 0x7240, symSize: 0xE0 }
  - { offset: 0x92A3D, size: 0x8, addend: 0x0, symName: __ZN7facesdk15LivenessSession17faceOrientationOkERNS_12LFrameResultERbRKN2cv6Point_IiEE, symObjAddr: 0x12B0, symBinAddr: 0x7320, symSize: 0x90 }
  - { offset: 0x92BEF, size: 0x8, addend: 0x0, symName: __ZN7facesdk15LivenessSession21faceOrientationNearOkERNS_12LFrameResultERKN2cv6Point_IiEE, symObjAddr: 0x1490, symBinAddr: 0x7500, symSize: 0x1A0 }
  - { offset: 0x92D59, size: 0x8, addend: 0x0, symName: __ZN7facesdk15LivenessSession23faceOrientationNormalOkERNS_12LFrameResultERb, symObjAddr: 0x1340, symBinAddr: 0x73B0, symSize: 0x150 }
  - { offset: 0x92F25, size: 0x8, addend: 0x0, symName: __ZN7facesdk15LivenessSession12brightnessOkEf, symObjAddr: 0x16B0, symBinAddr: 0x76A0, symSize: 0x60 }
  - { offset: 0x92F99, size: 0x8, addend: 0x0, symName: __ZN7facesdk15LivenessSession12flawDetectedENS_11eFL_MessageERKNSt3__16vectorIfNS2_9allocatorIfEEEE, symObjAddr: 0x1710, symBinAddr: 0x7700, symSize: 0x70 }
  - { offset: 0x93069, size: 0x8, addend: 0x0, symName: __ZNKSt3__16vectorIfNS_9allocatorIfEEE20__throw_out_of_rangeB8ne180100Ev, symObjAddr: 0xEC50, symBinAddr: 0x14A90, symSize: 0x10 }
  - { offset: 0x93093, size: 0x8, addend: 0x0, symName: __ZNSt3__120__throw_out_of_rangeB8ne180100EPKc, symObjAddr: 0xEC60, symBinAddr: 0x14AA0, symSize: 0x50 }
  - { offset: 0x932C8, size: 0x8, addend: 0x0, symName: __ZN7facesdk15LivenessSession22needInjectionCheckDataERNS_12LFrameResultERKN2cv3MatE, symObjAddr: 0x1780, symBinAddr: 0x7770, symSize: 0x250 }
  - { offset: 0x937FD, size: 0x8, addend: 0x0, symName: __ZN7facesdk15LivenessSession13blinkDetectedEN6common4type4spanIKN2cv6Point_IiEELm18446744073709551615EEES8_, symObjAddr: 0x19D0, symBinAddr: 0x79C0, symSize: 0x280 }
  - { offset: 0x93B47, size: 0x8, addend: 0x0, symName: __ZN7facesdk15LivenessSession20blinkDetectionNeededEv, symObjAddr: 0x1C50, symBinAddr: 0x7C40, symSize: 0x30 }
  - { offset: 0x93BAB, size: 0x8, addend: 0x0, symName: __ZN7facesdk15LivenessSession23holdStillTimeoutReachedEv, symObjAddr: 0x1C80, symBinAddr: 0x7C70, symSize: 0xB0 }
  - { offset: 0x93F67, size: 0x8, addend: 0x0, symName: __ZN7facesdk15LivenessSession16saveStageResultsERKN2cv3MatERKNS_5LFaceE, symObjAddr: 0x1D30, symBinAddr: 0x7D20, symSize: 0x1C0 }
  - { offset: 0x943AC, size: 0x8, addend: 0x0, symName: __ZNSt3__16vectorIN2cv6Point_IiEENS_9allocatorIS3_EEE18__assign_with_sizeB8ne180100IPS3_S8_EEvT_T0_l, symObjAddr: 0xECE0, symBinAddr: 0x14B20, symSize: 0x440 }
  - { offset: 0x94C13, size: 0x8, addend: 0x0, symName: __ZNK7facesdk15LivenessSession17stageResultsSavedEv, symObjAddr: 0x1EF0, symBinAddr: 0x7EE0, symSize: 0x40 }
  - { offset: 0x94DE5, size: 0x8, addend: 0x0, symName: __ZN7facesdk15LivenessSession23finalizeProcessingStageEv, symObjAddr: 0x1F30, symBinAddr: 0x7F20, symSize: 0x230 }
  - { offset: 0x950F1, size: 0x8, addend: 0x0, symName: __ZNSt3__16vectorIN7facesdk6LStageENS_9allocatorIS2_EEE24__emplace_back_slow_pathIJEEEPS2_DpOT_, symObjAddr: 0xF120, symBinAddr: 0x14F60, symSize: 0x2E0 }
  - { offset: 0x9583C, size: 0x8, addend: 0x0, symName: __ZNK7facesdk15LivenessSession13currentTargetEv, symObjAddr: 0x2160, symBinAddr: 0x8150, symSize: 0x20 }
  - { offset: 0x958FE, size: 0x8, addend: 0x0, symName: __ZNK7facesdk15LivenessSession12targetSectorEv, symObjAddr: 0x2180, symBinAddr: 0x8170, symSize: 0x30 }
  - { offset: 0x9594D, size: 0x8, addend: 0x0, symName: __ZNK7facesdk15LivenessSession14targetExposureEv, symObjAddr: 0x21B0, symBinAddr: 0x81A0, symSize: 0x20 }
  - { offset: 0x959B4, size: 0x8, addend: 0x0, symName: __ZNK7facesdk15LivenessSession7resultsEv, symObjAddr: 0x21D0, symBinAddr: 0x81C0, symSize: 0x10 }
  - { offset: 0x97ABA, size: 0x8, addend: 0x0, symName: __ZN7facesdk15LivenessSession15finalizePackageEv, symObjAddr: 0x2220, symBinAddr: 0x81D0, symSize: 0x1E00 }
  - { offset: 0x9F30B, size: 0x8, addend: 0x0, symName: __ZN7facesdk15LivenessSession16finalizeMetadataEv, symObjAddr: 0x4020, symBinAddr: 0x9FD0, symSize: 0x370 }
  - { offset: 0xA03B8, size: 0x8, addend: 0x0, symName: __ZN8nlohmann16json_abi_v3_11_210basic_jsonINSt3__13mapENS2_6vectorENS2_12basic_stringIcNS2_11char_traitsIcEENS2_9allocatorIcEEEEbxydS8_NS0_14adl_serializerENS4_IhNS8_IhEEEEE9push_backERKSE_, symObjAddr: 0x45B0, symBinAddr: 0xA560, symSize: 0x130 }
  - { offset: 0xA0829, size: 0x8, addend: 0x0, symName: __ZN8nlohmann16json_abi_v3_11_210basic_jsonINSt3__13mapENS2_6vectorENS2_12basic_stringIcNS2_11char_traitsIcEENS2_9allocatorIcEEEEbxydS8_NS0_14adl_serializerENS4_IhNS8_IhEEEEE9push_backEOSE_, symObjAddr: 0x4480, symBinAddr: 0xA430, symSize: 0x130 }
  - { offset: 0xA0C30, size: 0x8, addend: 0x0, symName: __ZN8nlohmann16json_abi_v3_11_210basic_jsonINSt3__13mapENS2_6vectorENS2_12basic_stringIcNS2_11char_traitsIcEENS2_9allocatorIcEEEEbxydS8_NS0_14adl_serializerENS4_IhNS8_IhEEEEE7to_bsonERKSE_, symObjAddr: 0x46E0, symBinAddr: 0xA690, symSize: 0xC0 }
  - { offset: 0xA1181, size: 0x8, addend: 0x0, symName: __ZN8nlohmann16json_abi_v3_11_26detail10type_error6createIPNS0_10basic_jsonINSt3__13mapENS5_6vectorENS5_12basic_stringIcNS5_11char_traitsIcEENS5_9allocatorIcEEEEbxydSB_NS0_14adl_serializerENS7_IhNSB_IhEEEEEELi0EEES2_iRKSD_T_, symObjAddr: 0xF830, symBinAddr: 0x15670, symSize: 0x180 }
  - { offset: 0xA1E95, size: 0x8, addend: 0x0, symName: __ZNKSt3__16vectorIN8nlohmann16json_abi_v3_11_210basic_jsonINS_3mapES0_NS_12basic_stringIcNS_11char_traitsIcEENS_9allocatorIcEEEEbxydS8_NS2_14adl_serializerENS0_IhNS8_IhEEEEEENS8_ISE_EEE20__throw_length_errorB8ne180100Ev, symObjAddr: 0xD700, symBinAddr: 0x13540, symSize: 0x10 }
  - { offset: 0xA1EBF, size: 0x8, addend: 0x0, symName: __ZNSt3__114__split_bufferIN8nlohmann16json_abi_v3_11_210basic_jsonINS_3mapENS_6vectorENS_12basic_stringIcNS_11char_traitsIcEENS_9allocatorIcEEEEbxydS9_NS2_14adl_serializerENS5_IhNS9_IhEEEEEERNS9_ISF_EEED1Ev, symObjAddr: 0xD710, symBinAddr: 0x13550, symSize: 0x50 }
  - { offset: 0xA24E8, size: 0x8, addend: 0x0, symName: __ZN8nlohmann16json_abi_v3_11_210basic_jsonINSt3__13mapENS2_6vectorENS2_12basic_stringIcNS2_11char_traitsIcEENS2_9allocatorIcEEEEbxydS8_NS0_14adl_serializerENS4_IhNS8_IhEEEEE2atIRKPKcLi0EEERSE_OT_, symObjAddr: 0x57F0, symBinAddr: 0xB7A0, symSize: 0x1D0 }
  - { offset: 0xA2BBC, size: 0x8, addend: 0x0, symName: __ZN8nlohmann16json_abi_v3_11_210basic_jsonINSt3__13mapENS2_6vectorENS2_12basic_stringIcNS2_11char_traitsIcEENS2_9allocatorIcEEEEbxydS8_NS0_14adl_serializerENS4_IhNS8_IhEEEEEC2ESt16initializer_listINS0_6detail8json_refISE_EEEbNSG_7value_tE, symObjAddr: 0x12910, symBinAddr: 0x18360, symSize: 0x270 }
  - { offset: 0xA3501, size: 0x8, addend: 0x0, symName: __ZN8nlohmann16json_abi_v3_11_210basic_jsonINSt3__13mapENS2_6vectorENS2_12basic_stringIcNS2_11char_traitsIcEENS2_9allocatorIcEEEEbxydS8_NS0_14adl_serializerENS4_IhNS8_IhEEEEE6createISA_JRA4_KcEEEPT_DpOT0_, symObjAddr: 0x13140, symBinAddr: 0x18B90, symSize: 0xD0 }
  - { offset: 0xA3B92, size: 0x8, addend: 0x0, symName: __ZN8nlohmann16json_abi_v3_11_210basic_jsonINSt3__13mapENS2_6vectorENS2_12basic_stringIcNS2_11char_traitsIcEENS2_9allocatorIcEEEEbxydS8_NS0_14adl_serializerENS4_IhNS8_IhEEEEEixESA_, symObjAddr: 0xF720, symBinAddr: 0x15560, symSize: 0x110 }
  - { offset: 0xA3F70, size: 0x8, addend: 0x0, symName: __ZNSt3__16vectorIN8nlohmann16json_abi_v3_11_210basic_jsonINS_3mapES0_NS_12basic_stringIcNS_11char_traitsIcEENS_9allocatorIcEEEEbxydS8_NS2_14adl_serializerENS0_IhNS8_IhEEEEEENS8_ISE_EEE21__push_back_slow_pathISE_EEPSE_OT_, symObjAddr: 0xD760, symBinAddr: 0x135A0, symSize: 0x160 }
  - { offset: 0xA446D, size: 0x8, addend: 0x0, symName: __ZNK8nlohmann16json_abi_v3_11_210basic_jsonINSt3__13mapENS2_6vectorENS2_12basic_stringIcNS2_11char_traitsIcEENS2_9allocatorIcEEEEbxydS8_NS0_14adl_serializerENS4_IhNS8_IhEEEEE9type_nameEv, symObjAddr: 0xBDF0, symBinAddr: 0x11CD0, symSize: 0x30 }
  - { offset: 0xA45B1, size: 0x8, addend: 0x0, symName: __ZNSt3__16vectorIN8nlohmann16json_abi_v3_11_210basic_jsonINS_3mapES0_NS_12basic_stringIcNS_11char_traitsIcEENS_9allocatorIcEEEEbxydS8_NS2_14adl_serializerENS0_IhNS8_IhEEEEEENS8_ISE_EEE21__push_back_slow_pathIRKSE_EEPSE_OT_, symObjAddr: 0x10700, symBinAddr: 0x16530, symSize: 0x1A0 }
  - { offset: 0xA502F, size: 0x8, addend: 0x0, symName: __ZN8nlohmann16json_abi_v3_11_210basic_jsonINSt3__13mapENS2_6vectorENS2_12basic_stringIcNS2_11char_traitsIcEENS2_9allocatorIcEEEEbxydS8_NS0_14adl_serializerENS4_IhNS8_IhEEEEE7to_bsonERKSE_NS0_6detail14output_adapterIhNS5_IhNS6_IhEESC_EEEE, symObjAddr: 0x108A0, symBinAddr: 0x166D0, symSize: 0xC0 }
  - { offset: 0xA535C, size: 0x8, addend: 0x0, symName: __ZN8nlohmann16json_abi_v3_11_26detail14output_adapterIhNSt3__112basic_stringIhNS3_11char_traitsIhEENS3_9allocatorIhEEEEED1Ev, symObjAddr: 0x10960, symBinAddr: 0x16790, symSize: 0x40 }
  - { offset: 0xA5608, size: 0x8, addend: 0x0, symName: __ZN7facesdk15LivenessSession16addDataToPackageEPKhRKN8nlohmann16json_abi_v3_11_210basic_jsonINSt3__13mapENS6_6vectorENS6_12basic_stringIcNS6_11char_traitsIcEENS6_9allocatorIcEEEEbxydSC_NS4_14adl_serializerENS8_IhNSC_IhEEEEEE, symObjAddr: 0x47A0, symBinAddr: 0xA750, symSize: 0xE0 }
  - { offset: 0xA58FB, size: 0x8, addend: 0x0, symName: __ZN7facesdk15LivenessSession12saveDepthMapEPKhRKN8nlohmann16json_abi_v3_11_210basic_jsonINSt3__13mapENS6_6vectorENS6_12basic_stringIcNS6_11char_traitsIcEENS6_9allocatorIcEEEEbxydSC_NS4_14adl_serializerENS8_IhNSC_IhEEEEEE, symObjAddr: 0x4880, symBinAddr: 0xA830, symSize: 0x4F0 }
  - { offset: 0xA6B39, size: 0x8, addend: 0x0, symName: __ZN7facesdk15LivenessSession14saveCustomDataEPKhRKN8nlohmann16json_abi_v3_11_210basic_jsonINSt3__13mapENS6_6vectorENS6_12basic_stringIcNS6_11char_traitsIcEENS6_9allocatorIcEEEEbxydSC_NS4_14adl_serializerENS8_IhNSC_IhEEEEEE, symObjAddr: 0x4D70, symBinAddr: 0xAD20, symSize: 0x200 }
  - { offset: 0xA7C17, size: 0x8, addend: 0x0, symName: __ZNK8nlohmann16json_abi_v3_11_210basic_jsonINSt3__13mapENS2_6vectorENS2_12basic_stringIcNS2_11char_traitsIcEENS2_9allocatorIcEEEEbxydS8_NS0_14adl_serializerENS4_IhNS8_IhEEEEE2atIRA9_KcLi0EEERKSE_OT_, symObjAddr: 0x4F70, symBinAddr: 0xAF20, symSize: 0x1D0 }
  - { offset: 0xA8306, size: 0x8, addend: 0x0, symName: __ZNK8nlohmann16json_abi_v3_11_210basic_jsonINSt3__13mapENS2_6vectorENS2_12basic_stringIcNS2_11char_traitsIcEENS2_9allocatorIcEEEEbxydS8_NS0_14adl_serializerENS4_IhNS8_IhEEEEE2atIRA10_KcLi0EEERKSE_OT_, symObjAddr: 0x5140, symBinAddr: 0xB0F0, symSize: 0x1D0 }
  - { offset: 0xA89F5, size: 0x8, addend: 0x0, symName: __ZNK8nlohmann16json_abi_v3_11_210basic_jsonINSt3__13mapENS2_6vectorENS2_12basic_stringIcNS2_11char_traitsIcEENS2_9allocatorIcEEEEbxydS8_NS0_14adl_serializerENS4_IhNS8_IhEEEEE2atIRA6_KcLi0EEERKSE_OT_, symObjAddr: 0x5310, symBinAddr: 0xB2C0, symSize: 0x1D0 }
  - { offset: 0xA90D6, size: 0x8, addend: 0x0, symName: __ZNKSt3__16vectorIN2cv6Point_IiEENS_9allocatorIS3_EEE20__throw_length_errorB8ne180100Ev, symObjAddr: 0xE6F0, symBinAddr: 0x14530, symSize: 0x10 }
  - { offset: 0xA9100, size: 0x8, addend: 0x0, symName: __ZNSt3__119__allocator_destroyB8ne180100INS_9allocatorIN7facesdk6LStageEEENS_16reverse_iteratorIPS3_EES7_EEvRT_T0_T1_, symObjAddr: 0xE700, symBinAddr: 0x14540, symSize: 0x190 }
  - { offset: 0xA9385, size: 0x8, addend: 0x0, symName: __ZN8nlohmann16json_abi_v3_11_210basic_jsonINSt3__13mapENS2_6vectorENS2_12basic_stringIcNS2_11char_traitsIcEENS2_9allocatorIcEEEEbxydS8_NS0_14adl_serializerENS4_IhNS8_IhEEEEE12emplace_backIJRKSE_EEERSE_DpOT_, symObjAddr: 0x56B0, symBinAddr: 0xB660, symSize: 0x140 }
  - { offset: 0xA9838, size: 0x8, addend: 0x0, symName: __ZNSt3__16vectorIN8nlohmann16json_abi_v3_11_210basic_jsonINS_3mapES0_NS_12basic_stringIcNS_11char_traitsIcEENS_9allocatorIcEEEEbxydS8_NS2_14adl_serializerENS0_IhNS8_IhEEEEEENS8_ISE_EEE21__push_back_slow_pathIRKSE_EEPSE_OT_, symObjAddr: 0x10700, symBinAddr: 0x16530, symSize: 0x1A0 }
  - { offset: 0xA9843, size: 0x8, addend: 0x0, symName: __ZN8nlohmann16json_abi_v3_11_26detail10type_error6createIPKNS0_10basic_jsonINSt3__13mapENS5_6vectorENS5_12basic_stringIcNS5_11char_traitsIcEENS5_9allocatorIcEEEEbxydSB_NS0_14adl_serializerENS7_IhNSB_IhEEEEEELi0EEES2_iRKSD_T_, symObjAddr: 0xBBF0, symBinAddr: 0x11AD0, symSize: 0x180 }
  - { offset: 0xAA55C, size: 0x8, addend: 0x0, symName: __ZN8nlohmann16json_abi_v3_11_26detail12out_of_range6createIPKNS0_10basic_jsonINSt3__13mapENS5_6vectorENS5_12basic_stringIcNS5_11char_traitsIcEENS5_9allocatorIcEEEEbxydSB_NS0_14adl_serializerENS7_IhNSB_IhEEEEEELi0EEES2_iRKSD_T_, symObjAddr: 0x11300, symBinAddr: 0x170F0, symSize: 0x180 }
  - { offset: 0xAB798, size: 0x8, addend: 0x0, symName: __ZNSt3__16vectorIN8nlohmann16json_abi_v3_11_210basic_jsonINS_3mapES0_NS_12basic_stringIcNS_11char_traitsIcEENS_9allocatorIcEEEEbxydS8_NS2_14adl_serializerENS0_IhNS8_IhEEEEEENS8_ISE_EEE24__emplace_back_slow_pathIJRKSE_EEEPSE_DpOT_, symObjAddr: 0x125F0, symBinAddr: 0x18040, symSize: 0x1A0 }
  - { offset: 0xABD8C, size: 0x8, addend: 0x0, symName: __ZN8nlohmann16json_abi_v3_11_26detail12out_of_range6createIPNS0_10basic_jsonINSt3__13mapENS5_6vectorENS5_12basic_stringIcNS5_11char_traitsIcEENS5_9allocatorIcEEEEbxydSB_NS0_14adl_serializerENS7_IhNSB_IhEEEEEELi0EEES2_iRKSD_T_, symObjAddr: 0x12790, symBinAddr: 0x181E0, symSize: 0x180 }
  - { offset: 0xAD0FF, size: 0x8, addend: 0x0, symName: __ZN7facesdk14LSessionParamsC2ERKN8nlohmann16json_abi_v3_11_210basic_jsonINSt3__13mapENS4_6vectorENS4_12basic_stringIcNS4_11char_traitsIcEENS4_9allocatorIcEEEEbxydSA_NS2_14adl_serializerENS6_IhNSA_IhEEEEEE, symObjAddr: 0x59C0, symBinAddr: 0xB970, symSize: 0xF50 }
  - { offset: 0xAF853, size: 0x8, addend: 0x0, symName: __ZNK8nlohmann16json_abi_v3_11_210basic_jsonINSt3__13mapENS2_6vectorENS2_12basic_stringIcNS2_11char_traitsIcEENS2_9allocatorIcEEEEbxydS8_NS0_14adl_serializerENS4_IhNS8_IhEEEEE5valueIN7facesdk12eFL_ScenarioERA9_KcSH_Li0EEET1_OT0_OT_, symObjAddr: 0x6910, symBinAddr: 0xC8C0, symSize: 0x1D0 }
  - { offset: 0xB0042, size: 0x8, addend: 0x0, symName: __ZNK8nlohmann16json_abi_v3_11_210basic_jsonINSt3__13mapENS2_6vectorENS2_12basic_stringIcNS2_11char_traitsIcEENS2_9allocatorIcEEEEbxydS8_NS0_14adl_serializerENS4_IhNS8_IhEEEEE2atIRA14_KcLi0EEERKSE_OT_, symObjAddr: 0x6AE0, symBinAddr: 0xCA90, symSize: 0x1D0 }
  - { offset: 0xB073C, size: 0x8, addend: 0x0, symName: __ZNK8nlohmann16json_abi_v3_11_210basic_jsonINSt3__13mapENS2_6vectorENS2_12basic_stringIcNS2_11char_traitsIcEENS2_9allocatorIcEEEEbxydS8_NS0_14adl_serializerENS4_IhNS8_IhEEEEE5valueIRA41_KcRA16_SG_SA_Li0EEET1_OT0_OT_, symObjAddr: 0x6CB0, symBinAddr: 0xCC60, symSize: 0x270 }
  - { offset: 0xB14E7, size: 0x8, addend: 0x0, symName: __ZNK8nlohmann16json_abi_v3_11_210basic_jsonINSt3__13mapENS2_6vectorENS2_12basic_stringIcNS2_11char_traitsIcEENS2_9allocatorIcEEEEbxydS8_NS0_14adl_serializerENS4_IhNS8_IhEEEEE5valueIRA7_KcRA19_SG_SA_Li0EEET1_OT0_OT_, symObjAddr: 0x6F20, symBinAddr: 0xCED0, symSize: 0x270 }
  - { offset: 0xB2279, size: 0x8, addend: 0x0, symName: __ZN8nlohmann16json_abi_v3_11_210basic_jsonINSt3__13mapENS2_6vectorENS2_12basic_stringIcNS2_11char_traitsIcEENS2_9allocatorIcEEEEbxydS8_NS0_14adl_serializerENS4_IhNS8_IhEEEEE6acceptIRSA_EEbOT_b, symObjAddr: 0x7190, symBinAddr: 0xD140, symSize: 0x1E0 }
  - { offset: 0xB2ABD, size: 0x8, addend: 0x0, symName: __ZNK8nlohmann16json_abi_v3_11_210basic_jsonINSt3__13mapENS2_6vectorENS2_12basic_stringIcNS2_11char_traitsIcEENS2_9allocatorIcEEEEbxydS8_NS0_14adl_serializerENS4_IhNS8_IhEEEEE2atIRA11_KcLi0EEERKSE_OT_, symObjAddr: 0x7370, symBinAddr: 0xD320, symSize: 0x1D0 }
  - { offset: 0xB31AC, size: 0x8, addend: 0x0, symName: __ZNK8nlohmann16json_abi_v3_11_210basic_jsonINSt3__13mapENS2_6vectorENS2_12basic_stringIcNS2_11char_traitsIcEENS2_9allocatorIcEEEEbxydS8_NS0_14adl_serializerENS4_IhNS8_IhEEEEE2atIRA12_KcLi0EEERKSE_OT_, symObjAddr: 0x7540, symBinAddr: 0xD4F0, symSize: 0x1D0 }
  - { offset: 0xB3882, size: 0x8, addend: 0x0, symName: __ZNK8nlohmann16json_abi_v3_11_210basic_jsonINSt3__13mapENS2_6vectorENS2_12basic_stringIcNS2_11char_traitsIcEENS2_9allocatorIcEEEEbxydS8_NS0_14adl_serializerENS4_IhNS8_IhEEEEE5valueIiRA14_KciLi0EEET1_OT0_OT_, symObjAddr: 0x7710, symBinAddr: 0xD6C0, symSize: 0x1D0 }
  - { offset: 0xB4062, size: 0x8, addend: 0x0, symName: __ZNK8nlohmann16json_abi_v3_11_210basic_jsonINSt3__13mapENS2_6vectorENS2_12basic_stringIcNS2_11char_traitsIcEENS2_9allocatorIcEEEEbxydS8_NS0_14adl_serializerENS4_IhNS8_IhEEEEE5valueIfRA4_KcfLi0EEET1_OT0_OT_, symObjAddr: 0x78E0, symBinAddr: 0xD890, symSize: 0x1D0 }
  - { offset: 0xB4821, size: 0x8, addend: 0x0, symName: __ZNK8nlohmann16json_abi_v3_11_210basic_jsonINSt3__13mapENS2_6vectorENS2_12basic_stringIcNS2_11char_traitsIcEENS2_9allocatorIcEEEEbxydS8_NS0_14adl_serializerENS4_IhNS8_IhEEEEE5valueIfRA12_KcfLi0EEET1_OT0_OT_, symObjAddr: 0x7AB0, symBinAddr: 0xDA60, symSize: 0x1D0 }
  - { offset: 0xB5004, size: 0x8, addend: 0x0, symName: __ZNK8nlohmann16json_abi_v3_11_210basic_jsonINSt3__13mapENS2_6vectorENS2_12basic_stringIcNS2_11char_traitsIcEENS2_9allocatorIcEEEEbxydS8_NS0_14adl_serializerENS4_IhNS8_IhEEEEE5valueIiRA18_KciLi0EEET1_OT0_OT_, symObjAddr: 0x7C80, symBinAddr: 0xDC30, symSize: 0x1D0 }
  - { offset: 0xB57C3, size: 0x8, addend: 0x0, symName: __ZNK8nlohmann16json_abi_v3_11_210basic_jsonINSt3__13mapENS2_6vectorENS2_12basic_stringIcNS2_11char_traitsIcEENS2_9allocatorIcEEEEbxydS8_NS0_14adl_serializerENS4_IhNS8_IhEEEEE5valueIiRA19_KciLi0EEET1_OT0_OT_, symObjAddr: 0x7E50, symBinAddr: 0xDE00, symSize: 0x1D0 }
  - { offset: 0xB5F82, size: 0x8, addend: 0x0, symName: __ZNK8nlohmann16json_abi_v3_11_210basic_jsonINSt3__13mapENS2_6vectorENS2_12basic_stringIcNS2_11char_traitsIcEENS2_9allocatorIcEEEEbxydS8_NS0_14adl_serializerENS4_IhNS8_IhEEEEE5valueIiRA16_KciLi0EEET1_OT0_OT_, symObjAddr: 0x8020, symBinAddr: 0xDFD0, symSize: 0x1D0 }
  - { offset: 0xB675A, size: 0x8, addend: 0x0, symName: __ZNK8nlohmann16json_abi_v3_11_210basic_jsonINSt3__13mapENS2_6vectorENS2_12basic_stringIcNS2_11char_traitsIcEENS2_9allocatorIcEEEEbxydS8_NS0_14adl_serializerENS4_IhNS8_IhEEEEE5valueIiRA25_KciLi0EEET1_OT0_OT_, symObjAddr: 0x81F0, symBinAddr: 0xE1A0, symSize: 0x1D0 }
  - { offset: 0xB6F32, size: 0x8, addend: 0x0, symName: __ZNK8nlohmann16json_abi_v3_11_210basic_jsonINSt3__13mapENS2_6vectorENS2_12basic_stringIcNS2_11char_traitsIcEENS2_9allocatorIcEEEEbxydS8_NS0_14adl_serializerENS4_IhNS8_IhEEEEE5valueIiRA23_KciLi0EEET1_OT0_OT_, symObjAddr: 0x83C0, symBinAddr: 0xE370, symSize: 0x1D0 }
  - { offset: 0xB770A, size: 0x8, addend: 0x0, symName: __ZNK8nlohmann16json_abi_v3_11_210basic_jsonINSt3__13mapENS2_6vectorENS2_12basic_stringIcNS2_11char_traitsIcEENS2_9allocatorIcEEEEbxydS8_NS0_14adl_serializerENS4_IhNS8_IhEEEEE5valueIiRA27_KciLi0EEET1_OT0_OT_, symObjAddr: 0x8590, symBinAddr: 0xE540, symSize: 0x1D0 }
  - { offset: 0xB7EE2, size: 0x8, addend: 0x0, symName: __ZNK8nlohmann16json_abi_v3_11_210basic_jsonINSt3__13mapENS2_6vectorENS2_12basic_stringIcNS2_11char_traitsIcEENS2_9allocatorIcEEEEbxydS8_NS0_14adl_serializerENS4_IhNS8_IhEEEEE5valueIiRA22_KciLi0EEET1_OT0_OT_, symObjAddr: 0x8760, symBinAddr: 0xE710, symSize: 0x1D0 }
  - { offset: 0xB86A1, size: 0x8, addend: 0x0, symName: __ZNK8nlohmann16json_abi_v3_11_210basic_jsonINSt3__13mapENS2_6vectorENS2_12basic_stringIcNS2_11char_traitsIcEENS2_9allocatorIcEEEEbxydS8_NS0_14adl_serializerENS4_IhNS8_IhEEEEE5valueIfRA16_KcfLi0EEET1_OT0_OT_, symObjAddr: 0x8930, symBinAddr: 0xE8E0, symSize: 0x1D0 }
  - { offset: 0xB8E60, size: 0x8, addend: 0x0, symName: __ZNK8nlohmann16json_abi_v3_11_210basic_jsonINSt3__13mapENS2_6vectorENS2_12basic_stringIcNS2_11char_traitsIcEENS2_9allocatorIcEEEEbxydS8_NS0_14adl_serializerENS4_IhNS8_IhEEEEE5valueIfRA19_KcfLi0EEET1_OT0_OT_, symObjAddr: 0x8B00, symBinAddr: 0xEAB0, symSize: 0x1D0 }
  - { offset: 0xB9638, size: 0x8, addend: 0x0, symName: __ZNK8nlohmann16json_abi_v3_11_210basic_jsonINSt3__13mapENS2_6vectorENS2_12basic_stringIcNS2_11char_traitsIcEENS2_9allocatorIcEEEEbxydS8_NS0_14adl_serializerENS4_IhNS8_IhEEEEE5valueIfRA17_KcfLi0EEET1_OT0_OT_, symObjAddr: 0x8CD0, symBinAddr: 0xEC80, symSize: 0x1D0 }
  - { offset: 0xB9E10, size: 0x8, addend: 0x0, symName: __ZNK8nlohmann16json_abi_v3_11_210basic_jsonINSt3__13mapENS2_6vectorENS2_12basic_stringIcNS2_11char_traitsIcEENS2_9allocatorIcEEEEbxydS8_NS0_14adl_serializerENS4_IhNS8_IhEEEEE5valueIfRA20_KcfLi0EEET1_OT0_OT_, symObjAddr: 0x8EA0, symBinAddr: 0xEE50, symSize: 0x1D0 }
  - { offset: 0xBA5CF, size: 0x8, addend: 0x0, symName: __ZNK8nlohmann16json_abi_v3_11_210basic_jsonINSt3__13mapENS2_6vectorENS2_12basic_stringIcNS2_11char_traitsIcEENS2_9allocatorIcEEEEbxydS8_NS0_14adl_serializerENS4_IhNS8_IhEEEEE5valueIfRA11_KcfLi0EEET1_OT0_OT_, symObjAddr: 0x9070, symBinAddr: 0xF020, symSize: 0x1D0 }
  - { offset: 0xBADA7, size: 0x8, addend: 0x0, symName: __ZNK8nlohmann16json_abi_v3_11_210basic_jsonINSt3__13mapENS2_6vectorENS2_12basic_stringIcNS2_11char_traitsIcEENS2_9allocatorIcEEEEbxydS8_NS0_14adl_serializerENS4_IhNS8_IhEEEEE5valueIfRA13_KcfLi0EEET1_OT0_OT_, symObjAddr: 0x9240, symBinAddr: 0xF1F0, symSize: 0x1D0 }
  - { offset: 0xBB57F, size: 0x8, addend: 0x0, symName: __ZNK8nlohmann16json_abi_v3_11_210basic_jsonINSt3__13mapENS2_6vectorENS2_12basic_stringIcNS2_11char_traitsIcEENS2_9allocatorIcEEEEbxydS8_NS0_14adl_serializerENS4_IhNS8_IhEEEEE5valueIfRA21_KcfLi0EEET1_OT0_OT_, symObjAddr: 0x9410, symBinAddr: 0xF3C0, symSize: 0x1D0 }
  - { offset: 0xBBD57, size: 0x8, addend: 0x0, symName: __ZNK8nlohmann16json_abi_v3_11_210basic_jsonINSt3__13mapENS2_6vectorENS2_12basic_stringIcNS2_11char_traitsIcEENS2_9allocatorIcEEEEbxydS8_NS0_14adl_serializerENS4_IhNS8_IhEEEEE5valueIfRA15_KcfLi0EEET1_OT0_OT_, symObjAddr: 0x95E0, symBinAddr: 0xF590, symSize: 0x1D0 }
  - { offset: 0xBC516, size: 0x8, addend: 0x0, symName: __ZNK8nlohmann16json_abi_v3_11_210basic_jsonINSt3__13mapENS2_6vectorENS2_12basic_stringIcNS2_11char_traitsIcEENS2_9allocatorIcEEEEbxydS8_NS0_14adl_serializerENS4_IhNS8_IhEEEEE5valueIfRA23_KcfLi0EEET1_OT0_OT_, symObjAddr: 0x97B0, symBinAddr: 0xF760, symSize: 0x1D0 }
  - { offset: 0xBCCD5, size: 0x8, addend: 0x0, symName: __ZNK8nlohmann16json_abi_v3_11_210basic_jsonINSt3__13mapENS2_6vectorENS2_12basic_stringIcNS2_11char_traitsIcEENS2_9allocatorIcEEEEbxydS8_NS0_14adl_serializerENS4_IhNS8_IhEEEEE5valueIfRA22_KcfLi0EEET1_OT0_OT_, symObjAddr: 0x9980, symBinAddr: 0xF930, symSize: 0x1D0 }
  - { offset: 0xBD494, size: 0x8, addend: 0x0, symName: __ZNK8nlohmann16json_abi_v3_11_210basic_jsonINSt3__13mapENS2_6vectorENS2_12basic_stringIcNS2_11char_traitsIcEENS2_9allocatorIcEEEEbxydS8_NS0_14adl_serializerENS4_IhNS8_IhEEEEE5valueIfRA14_KcfLi0EEET1_OT0_OT_, symObjAddr: 0x9B50, symBinAddr: 0xFB00, symSize: 0x1D0 }
  - { offset: 0xBDC59, size: 0x8, addend: 0x0, symName: __ZNK8nlohmann16json_abi_v3_11_210basic_jsonINSt3__13mapENS2_6vectorENS2_12basic_stringIcNS2_11char_traitsIcEENS2_9allocatorIcEEEEbxydS8_NS0_14adl_serializerENS4_IhNS8_IhEEEEE5valueIbRA14_KcbLi0EEET1_OT0_OT_, symObjAddr: 0x9D20, symBinAddr: 0xFCD0, symSize: 0x1D0 }
  - { offset: 0xBE418, size: 0x8, addend: 0x0, symName: __ZNK8nlohmann16json_abi_v3_11_210basic_jsonINSt3__13mapENS2_6vectorENS2_12basic_stringIcNS2_11char_traitsIcEENS2_9allocatorIcEEEEbxydS8_NS0_14adl_serializerENS4_IhNS8_IhEEEEE5valueIbRA12_KcbLi0EEET1_OT0_OT_, symObjAddr: 0x9EF0, symBinAddr: 0xFEA0, symSize: 0x1D0 }
  - { offset: 0xBEBD7, size: 0x8, addend: 0x0, symName: __ZNK8nlohmann16json_abi_v3_11_210basic_jsonINSt3__13mapENS2_6vectorENS2_12basic_stringIcNS2_11char_traitsIcEENS2_9allocatorIcEEEEbxydS8_NS0_14adl_serializerENS4_IhNS8_IhEEEEE5valueIbRA16_KcbLi0EEET1_OT0_OT_, symObjAddr: 0xA0C0, symBinAddr: 0x10070, symSize: 0x1D0 }
  - { offset: 0xBF396, size: 0x8, addend: 0x0, symName: __ZNK8nlohmann16json_abi_v3_11_210basic_jsonINSt3__13mapENS2_6vectorENS2_12basic_stringIcNS2_11char_traitsIcEENS2_9allocatorIcEEEEbxydS8_NS0_14adl_serializerENS4_IhNS8_IhEEEEE5valueIbRA17_KcbLi0EEET1_OT0_OT_, symObjAddr: 0xA290, symBinAddr: 0x10240, symSize: 0x1D0 }
  - { offset: 0xBFB55, size: 0x8, addend: 0x0, symName: __ZNK8nlohmann16json_abi_v3_11_210basic_jsonINSt3__13mapENS2_6vectorENS2_12basic_stringIcNS2_11char_traitsIcEENS2_9allocatorIcEEEEbxydS8_NS0_14adl_serializerENS4_IhNS8_IhEEEEE5valueIbRA25_KcbLi0EEET1_OT0_OT_, symObjAddr: 0xA460, symBinAddr: 0x10410, symSize: 0x1D0 }
  - { offset: 0xC032D, size: 0x8, addend: 0x0, symName: __ZNK8nlohmann16json_abi_v3_11_210basic_jsonINSt3__13mapENS2_6vectorENS2_12basic_stringIcNS2_11char_traitsIcEENS2_9allocatorIcEEEEbxydS8_NS0_14adl_serializerENS4_IhNS8_IhEEEEE5valueIbRA26_KcbLi0EEET1_OT0_OT_, symObjAddr: 0xA630, symBinAddr: 0x105E0, symSize: 0x1D0 }
  - { offset: 0xC0AEC, size: 0x8, addend: 0x0, symName: __ZNK8nlohmann16json_abi_v3_11_210basic_jsonINSt3__13mapENS2_6vectorENS2_12basic_stringIcNS2_11char_traitsIcEENS2_9allocatorIcEEEEbxydS8_NS0_14adl_serializerENS4_IhNS8_IhEEEEE5valueIiRA13_KciLi0EEET1_OT0_OT_, symObjAddr: 0xA800, symBinAddr: 0x107B0, symSize: 0x1D0 }
  - { offset: 0xC12AB, size: 0x8, addend: 0x0, symName: __ZNK8nlohmann16json_abi_v3_11_210basic_jsonINSt3__13mapENS2_6vectorENS2_12basic_stringIcNS2_11char_traitsIcEENS2_9allocatorIcEEEEbxydS8_NS0_14adl_serializerENS4_IhNS8_IhEEEEE5valueIiRA17_KciLi0EEET1_OT0_OT_, symObjAddr: 0xA9D0, symBinAddr: 0x10980, symSize: 0x1D0 }
  - { offset: 0xC1A6A, size: 0x8, addend: 0x0, symName: __ZNK8nlohmann16json_abi_v3_11_210basic_jsonINSt3__13mapENS2_6vectorENS2_12basic_stringIcNS2_11char_traitsIcEENS2_9allocatorIcEEEEbxydS8_NS0_14adl_serializerENS4_IhNS8_IhEEEEE5valueIiRA11_KciLi0EEET1_OT0_OT_, symObjAddr: 0xABA0, symBinAddr: 0x10B50, symSize: 0x1D0 }
  - { offset: 0xC2242, size: 0x8, addend: 0x0, symName: __ZNK8nlohmann16json_abi_v3_11_210basic_jsonINSt3__13mapENS2_6vectorENS2_12basic_stringIcNS2_11char_traitsIcEENS2_9allocatorIcEEEEbxydS8_NS0_14adl_serializerENS4_IhNS8_IhEEEEE5valueIRA5_KcRA15_SG_SA_Li0EEET1_OT0_OT_, symObjAddr: 0xAD70, symBinAddr: 0x10D20, symSize: 0x270 }
  - { offset: 0xC2FD4, size: 0x8, addend: 0x0, symName: __ZNK8nlohmann16json_abi_v3_11_210basic_jsonINSt3__13mapENS2_6vectorENS2_12basic_stringIcNS2_11char_traitsIcEENS2_9allocatorIcEEEEbxydS8_NS0_14adl_serializerENS4_IhNS8_IhEEEEE5valueIiRA15_KciLi0EEET1_OT0_OT_, symObjAddr: 0xAFE0, symBinAddr: 0x10F90, symSize: 0x1D0 }
  - { offset: 0xC3793, size: 0x8, addend: 0x0, symName: __ZNK8nlohmann16json_abi_v3_11_210basic_jsonINSt3__13mapENS2_6vectorENS2_12basic_stringIcNS2_11char_traitsIcEENS2_9allocatorIcEEEEbxydS8_NS0_14adl_serializerENS4_IhNS8_IhEEEEE2atIRA4_KcLi0EEERKSE_OT_, symObjAddr: 0xB1B0, symBinAddr: 0x11160, symSize: 0x1D0 }
  - { offset: 0xC40F6, size: 0x8, addend: 0x0, symName: __ZNK8nlohmann16json_abi_v3_11_26detail9iter_implIKNS0_10basic_jsonINSt3__13mapENS4_6vectorENS4_12basic_stringIcNS4_11char_traitsIcEENS4_9allocatorIcEEEEbxydSA_NS0_14adl_serializerENS6_IhNSA_IhEEEEEEEeqISI_LDn0EEEbRKT_, symObjAddr: 0xC650, symBinAddr: 0x12530, symSize: 0xE0 }
  - { offset: 0xC4339, size: 0x8, addend: 0x0, symName: __ZNK8nlohmann16json_abi_v3_11_26detail9iter_implIKNS0_10basic_jsonINSt3__13mapENS4_6vectorENS4_12basic_stringIcNS4_11char_traitsIcEENS4_9allocatorIcEEEEbxydSA_NS0_14adl_serializerENS6_IhNSA_IhEEEEEEEptEv, symObjAddr: 0x13210, symBinAddr: 0x18C60, symSize: 0xD0 }
  - { offset: 0xC4E2D, size: 0x8, addend: 0x0, symName: __ZN8nlohmann16json_abi_v3_11_26detail6parserINS0_10basic_jsonINSt3__13mapENS4_6vectorENS4_12basic_stringIcNS4_11char_traitsIcEENS4_9allocatorIcEEEEbxydSA_NS0_14adl_serializerENS6_IhNSA_IhEEEEEENS1_22iterator_input_adapterINS4_11__wrap_iterIPKcEEEEEC2EOSM_NS4_8functionIFbiNS1_13parse_event_tERSG_EEEbb, symObjAddr: 0x13570, symBinAddr: 0x18FC0, symSize: 0x130 }
  - { offset: 0xC507A, size: 0x8, addend: 0x0, symName: __ZN8nlohmann16json_abi_v3_11_26detail6parserINS0_10basic_jsonINSt3__13mapENS4_6vectorENS4_12basic_stringIcNS4_11char_traitsIcEENS4_9allocatorIcEEEEbxydSA_NS0_14adl_serializerENS6_IhNSA_IhEEEEEENS1_22iterator_input_adapterINS4_11__wrap_iterIPKcEEEEE9sax_parseINS1_17json_sax_acceptorISG_EEEEbPT_b, symObjAddr: 0x15F50, symBinAddr: 0x1B990, symSize: 0x240 }
  - { offset: 0xC5A83, size: 0x8, addend: 0x0, symName: __ZN8nlohmann16json_abi_v3_11_26detail6parserINS0_10basic_jsonINSt3__13mapENS4_6vectorENS4_12basic_stringIcNS4_11char_traitsIcEENS4_9allocatorIcEEEEbxydSA_NS0_14adl_serializerENS6_IhNSA_IhEEEEEENS1_22iterator_input_adapterINS4_11__wrap_iterIPKcEEEEED1Ev, symObjAddr: 0x13510, symBinAddr: 0x18F60, symSize: 0x60 }
  - { offset: 0xC796D, size: 0x8, addend: 0x0, symName: __ZN7facesdk14LSessionParamsC1ERKN8nlohmann16json_abi_v3_11_210basic_jsonINSt3__13mapENS4_6vectorENS4_12basic_stringIcNS4_11char_traitsIcEENS4_9allocatorIcEEEEbxydSA_NS2_14adl_serializerENS6_IhNSA_IhEEEEEE, symObjAddr: 0xB380, symBinAddr: 0x11330, symSize: 0x10 }
  - { offset: 0xC7DE5, size: 0x8, addend: 0x0, symName: __ZNKSt3__16vectorIjNS_9allocatorIjEEE20__throw_length_errorB8ne180100Ev, symObjAddr: 0xB730, symBinAddr: 0x116E0, symSize: 0x10 }
  - { offset: 0xC7E1A, size: 0x8, addend: 0x0, symName: __ZNKSt3__16vectorIN7facesdk14TargetExposureENS_9allocatorIS2_EEE20__throw_length_errorB8ne180100Ev, symObjAddr: 0xB810, symBinAddr: 0x116F0, symSize: 0x10 }
  - { offset: 0xC7E44, size: 0x8, addend: 0x0, symName: __ZNSt3__16vectorIN7facesdk12LFrameResultENS_9allocatorIS2_EEED1B8ne180100Ev, symObjAddr: 0xB820, symBinAddr: 0x11700, symSize: 0x70 }
  - { offset: 0xC7EB3, size: 0x8, addend: 0x0, symName: __ZNSt3__16vectorIN7facesdk12LFrameResultENS_9allocatorIS2_EEED1B8ne180100Ev, symObjAddr: 0xB820, symBinAddr: 0x11700, symSize: 0x70 }
  - { offset: 0xC805C, size: 0x8, addend: 0x0, symName: __ZNSt3__16vectorIN7facesdk5LFaceENS_9allocatorIS2_EEED1B8ne180100Ev, symObjAddr: 0xB960, symBinAddr: 0x11840, symSize: 0xA0 }
  - { offset: 0xC8955, size: 0x8, addend: 0x0, symName: __ZN8nlohmann16json_abi_v3_11_26detail10type_errorD1Ev, symObjAddr: 0xBE20, symBinAddr: 0x11D00, symSize: 0x30 }
  - { offset: 0xC8A32, size: 0x8, addend: 0x0, symName: __ZN8nlohmann16json_abi_v3_11_26detail10type_errorD0Ev, symObjAddr: 0xC090, symBinAddr: 0x11F70, symSize: 0x40 }
  - { offset: 0xC8AB3, size: 0x8, addend: 0x0, symName: __ZNK8nlohmann16json_abi_v3_11_26detail9exception4whatEv, symObjAddr: 0xC0D0, symBinAddr: 0x11FB0, symSize: 0x10 }
  - { offset: 0xC8ADA, size: 0x8, addend: 0x0, symName: __ZN8nlohmann16json_abi_v3_11_26detail9exceptionD1Ev, symObjAddr: 0xC0E0, symBinAddr: 0x11FC0, symSize: 0x30 }
  - { offset: 0xC8B36, size: 0x8, addend: 0x0, symName: __ZN8nlohmann16json_abi_v3_11_26detail9exceptionD0Ev, symObjAddr: 0xC110, symBinAddr: 0x11FF0, symSize: 0x40 }
  - { offset: 0xC8F47, size: 0x8, addend: 0x0, symName: __ZNK8nlohmann16json_abi_v3_11_26detail9iter_implIKNS0_10basic_jsonINSt3__13mapENS4_6vectorENS4_12basic_stringIcNS4_11char_traitsIcEENS4_9allocatorIcEEEEbxydSA_NS0_14adl_serializerENS6_IhNSA_IhEEEEEEEdeEv, symObjAddr: 0xC530, symBinAddr: 0x12410, symSize: 0x120 }
  - { offset: 0xC9124, size: 0x8, addend: 0x0, symName: __ZNSt3__16vectorIjNS_9allocatorIjEEE6insertENS_11__wrap_iterIPKjEEOj, symObjAddr: 0xCA20, symBinAddr: 0x12900, symSize: 0x410 }
  - { offset: 0xC9DA2, size: 0x8, addend: 0x0, symName: __ZN8nlohmann16json_abi_v3_11_26detail16invalid_iterator6createIPKNS0_10basic_jsonINSt3__13mapENS5_6vectorENS5_12basic_stringIcNS5_11char_traitsIcEENS5_9allocatorIcEEEEbxydSB_NS0_14adl_serializerENS7_IhNSB_IhEEEEEELi0EEES2_iRKSD_T_, symObjAddr: 0xC730, symBinAddr: 0x12610, symSize: 0x180 }
  - { offset: 0xCAB53, size: 0x8, addend: 0x0, symName: __ZN8nlohmann16json_abi_v3_11_26detail16invalid_iteratorD1Ev, symObjAddr: 0xC8B0, symBinAddr: 0x12790, symSize: 0x30 }
  - { offset: 0xCABCD, size: 0x8, addend: 0x0, symName: __ZN8nlohmann16json_abi_v3_11_26detail16invalid_iteratorD0Ev, symObjAddr: 0xC8E0, symBinAddr: 0x127C0, symSize: 0x40 }
  - { offset: 0xCB43B, size: 0x8, addend: 0x0, symName: __ZNSt3__16vectorIN8nlohmann16json_abi_v3_11_210basic_jsonINS_3mapES0_NS_12basic_stringIcNS_11char_traitsIcEENS_9allocatorIcEEEEbxydS8_NS2_14adl_serializerENS0_IhNS8_IhEEEEEENS8_ISE_EEE7reserveEm, symObjAddr: 0xD600, symBinAddr: 0x13440, symSize: 0x100 }
  - { offset: 0xCB859, size: 0x8, addend: 0x0, symName: __ZNSt3__16__treeINS_12__value_typeINS_12basic_stringIcNS_11char_traitsIcEENS_9allocatorIcEEEEN8nlohmann16json_abi_v3_11_210basic_jsonINS_3mapENS_6vectorES7_bxydS5_NS9_14adl_serializerENSC_IhNS5_IhEEEEEEEENS_19__map_value_compareIS7_SH_NS_4lessIvEELb1EEENS5_ISH_EEE7destroyEPNS_11__tree_nodeISH_PvEE, symObjAddr: 0xD8C0, symBinAddr: 0x13700, symSize: 0x60 }
  - { offset: 0xCBB4A, size: 0x8, addend: 0x0, symName: __ZNSt3__16vectorIN8nlohmann16json_abi_v3_11_210basic_jsonINS_3mapES0_NS_12basic_stringIcNS_11char_traitsIcEENS_9allocatorIcEEEEbxydS8_NS2_14adl_serializerENS0_IhNS8_IhEEEEEENS8_ISE_EEED2B8ne180100Ev, symObjAddr: 0xD920, symBinAddr: 0x13760, symSize: 0x70 }
  - { offset: 0xCBCBA, size: 0x8, addend: 0x0, symName: __ZNSt3__114__split_bufferIN8nlohmann16json_abi_v3_11_210basic_jsonINS_3mapENS_6vectorENS_12basic_stringIcNS_11char_traitsIcEENS_9allocatorIcEEEEbxydS9_NS2_14adl_serializerENS5_IhNS9_IhEEEEEERNS9_ISF_EEED1Ev, symObjAddr: 0xD710, symBinAddr: 0x13550, symSize: 0x50 }
  - { offset: 0xCC294, size: 0x8, addend: 0x0, symName: __ZNKSt3__16vectorIfNS_9allocatorIfEEE20__throw_length_errorB8ne180100Ev, symObjAddr: 0xDBA0, symBinAddr: 0x139E0, symSize: 0x10 }
  - { offset: 0xCC2BE, size: 0x8, addend: 0x0, symName: __ZNKSt3__16vectorIN7facesdk6LStageENS_9allocatorIS2_EEE20__throw_length_errorB8ne180100Ev, symObjAddr: 0xDBB0, symBinAddr: 0x139F0, symSize: 0x10 }
  - { offset: 0xCC2C9, size: 0x8, addend: 0x0, symName: __ZNKSt3__16vectorIN7facesdk6LStageENS_9allocatorIS2_EEE20__throw_length_errorB8ne180100Ev, symObjAddr: 0xDBB0, symBinAddr: 0x139F0, symSize: 0x10 }
  - { offset: 0xCC2F3, size: 0x8, addend: 0x0, symName: __ZN7facesdk6LStageC2ERKS0_, symObjAddr: 0xDBC0, symBinAddr: 0x13A00, symSize: 0x210 }
  - { offset: 0xCC5A4, size: 0x8, addend: 0x0, symName: __ZNSt3__16vectorIN7facesdk12LFrameResultENS_9allocatorIS2_EEE16__init_with_sizeB8ne180100IPS2_S7_EEvT_T0_m, symObjAddr: 0xDDD0, symBinAddr: 0x13C10, symSize: 0x100 }
  - { offset: 0xCCCBC, size: 0x8, addend: 0x0, symName: __ZN7facesdk12LFrameResultC2ERKS0_, symObjAddr: 0xDF50, symBinAddr: 0x13D90, symSize: 0x170 }
  - { offset: 0xCD13C, size: 0x8, addend: 0x0, symName: __ZNKSt3__16vectorIN7facesdk12LFrameResultENS_9allocatorIS2_EEE20__throw_length_errorB8ne180100Ev, symObjAddr: 0xDF40, symBinAddr: 0x13D80, symSize: 0x10 }
  - { offset: 0xCD166, size: 0x8, addend: 0x0, symName: __ZN7facesdk12LFrameResultC2ERKS0_, symObjAddr: 0xDF50, symBinAddr: 0x13D90, symSize: 0x170 }
  - { offset: 0xCD171, size: 0x8, addend: 0x0, symName: __ZNSt3__128__exception_guard_exceptionsINS_6vectorIN7facesdk12LFrameResultENS_9allocatorIS3_EEE16__destroy_vectorEED1B8ne180100Ev, symObjAddr: 0xDED0, symBinAddr: 0x13D10, symSize: 0x70 }
  - { offset: 0xCD4FA, size: 0x8, addend: 0x0, symName: __ZNSt3__16vectorIN7facesdk5LFaceENS_9allocatorIS2_EEE16__init_with_sizeB8ne180100IPS2_S7_EEvT_T0_m, symObjAddr: 0xE0C0, symBinAddr: 0x13F00, symSize: 0xF0 }
  - { offset: 0xCD978, size: 0x8, addend: 0x0, symName: __ZNKSt3__16vectorIiNS_9allocatorIiEEE20__throw_length_errorB8ne180100Ev, symObjAddr: 0xE6E0, symBinAddr: 0x14520, symSize: 0x10 }
  - { offset: 0xCD9A2, size: 0x8, addend: 0x0, symName: __ZNKSt3__16vectorIN2cv6Point_IiEENS_9allocatorIS3_EEE20__throw_length_errorB8ne180100Ev, symObjAddr: 0xE6F0, symBinAddr: 0x14530, symSize: 0x10 }
  - { offset: 0xCDC30, size: 0x8, addend: 0x0, symName: __ZN7facesdk5LFaceC2ERKS0_, symObjAddr: 0xE260, symBinAddr: 0x140A0, symSize: 0x480 }
  - { offset: 0xCE5F6, size: 0x8, addend: 0x0, symName: __ZNKSt3__16vectorIN7facesdk5LFaceENS_9allocatorIS2_EEE20__throw_length_errorB8ne180100Ev, symObjAddr: 0xE250, symBinAddr: 0x14090, symSize: 0x10 }
  - { offset: 0xCE620, size: 0x8, addend: 0x0, symName: __ZN7facesdk5LFaceC2ERKS0_, symObjAddr: 0xE260, symBinAddr: 0x140A0, symSize: 0x480 }
  - { offset: 0xCE62B, size: 0x8, addend: 0x0, symName: __ZNSt3__128__exception_guard_exceptionsINS_6vectorIN7facesdk5LFaceENS_9allocatorIS3_EEE16__destroy_vectorEED1B8ne180100Ev, symObjAddr: 0xE1B0, symBinAddr: 0x13FF0, symSize: 0xA0 }
  - { offset: 0xCEBA5, size: 0x8, addend: 0x0, symName: __ZNSt3__16vectorIN7facesdk5LFaceENS_9allocatorIS2_EEE16__init_with_sizeB8ne180100IPS2_S7_EEvT_T0_m.cold.1, symObjAddr: 0x17E20, symBinAddr: 0xE44790, symSize: 0x51 }
  - { offset: 0xCF1A5, size: 0x8, addend: 0x0, symName: __ZNSt3__114__split_bufferIN7facesdk12LFrameResultERNS_9allocatorIS2_EEED1Ev, symObjAddr: 0xEC00, symBinAddr: 0x14A40, symSize: 0x50 }
  - { offset: 0xCF343, size: 0x8, addend: 0x0, symName: __ZNSt12out_of_rangeC1B8ne180100EPKc, symObjAddr: 0xECB0, symBinAddr: 0x14AF0, symSize: 0x30 }
  - { offset: 0xCF780, size: 0x8, addend: 0x0, symName: __ZNSt3__114__split_bufferIN7facesdk6LStageERNS_9allocatorIS2_EEE17__destruct_at_endB8ne180100EPS2_NS_17integral_constantIbLb0EEE, symObjAddr: 0xF5A0, symBinAddr: 0x153E0, symSize: 0x180 }
  - { offset: 0xD016C, size: 0x8, addend: 0x0, symName: __ZNSt3__114__split_bufferIN7facesdk6LStageERNS_9allocatorIS2_EEED1Ev, symObjAddr: 0xF400, symBinAddr: 0x15240, symSize: 0x30 }
  - { offset: 0xD02C3, size: 0x8, addend: 0x0, symName: __ZNSt3__16__treeINS_12__value_typeINS_12basic_stringIcNS_11char_traitsIcEENS_9allocatorIcEEEEN8nlohmann16json_abi_v3_11_210basic_jsonINS_3mapENS_6vectorES7_bxydS5_NS9_14adl_serializerENSC_IhNS5_IhEEEEEEEENS_19__map_value_compareIS7_SH_NS_4lessIvEELb1EEENS5_ISH_EEE25__emplace_unique_key_argsIS7_JS7_DnEEENS_4pairINS_15__tree_iteratorISH_PNS_11__tree_nodeISH_PvEElEEbEERKT_DpOT0_, symObjAddr: 0xFA30, symBinAddr: 0x15870, symSize: 0x190 }
  - { offset: 0xD08F8, size: 0x8, addend: 0x0, symName: __ZNSt3__110unique_ptrINS_11__tree_nodeINS_12__value_typeINS_12basic_stringIcNS_11char_traitsIcEENS_9allocatorIcEEEEN8nlohmann16json_abi_v3_11_210basic_jsonINS_3mapENS_6vectorES8_bxydS6_NSA_14adl_serializerENSD_IhNS6_IhEEEEEEEEPvEENS_22__tree_node_destructorINS6_ISK_EEEEED1B8ne180100Ev, symObjAddr: 0xFBC0, symBinAddr: 0x15A00, symSize: 0x60 }
  - { offset: 0xD15B5, size: 0x8, addend: 0x0, symName: __ZNSt3__16__treeINS_12__value_typeINS_12basic_stringIcNS_11char_traitsIcEENS_9allocatorIcEEEEN8nlohmann16json_abi_v3_11_210basic_jsonINS_3mapENS_6vectorES7_bxydS5_NS9_14adl_serializerENSC_IhNS5_IhEEEEEEEENS_19__map_value_compareIS7_SH_NS_4lessIvEELb1EEENS5_ISH_EEE30__emplace_hint_unique_key_argsIS7_JRKNS_4pairIKS7_SG_EEEEENSP_INS_15__tree_iteratorISH_PNS_11__tree_nodeISH_PvEElEEbEENS_21__tree_const_iteratorISH_SY_lEERKT_DpOT0_, symObjAddr: 0xFFD0, symBinAddr: 0x15E10, symSize: 0x120 }
  - { offset: 0xD1B02, size: 0x8, addend: 0x0, symName: __ZNSt3__16vectorIN8nlohmann16json_abi_v3_11_210basic_jsonINS_3mapES0_NS_12basic_stringIcNS_11char_traitsIcEENS_9allocatorIcEEEEbxydS8_NS2_14adl_serializerENS0_IhNS8_IhEEEEEENS8_ISE_EEE16__init_with_sizeB8ne180100IPSE_SI_EEvT_T0_m, symObjAddr: 0x10520, symBinAddr: 0x16360, symSize: 0x110 }
  - { offset: 0xD217E, size: 0x8, addend: 0x0, symName: __ZNSt3__16__treeINS_12__value_typeINS_12basic_stringIcNS_11char_traitsIcEENS_9allocatorIcEEEEN8nlohmann16json_abi_v3_11_210basic_jsonINS_3mapENS_6vectorES7_bxydS5_NS9_14adl_serializerENSC_IhNS5_IhEEEEEEEENS_19__map_value_compareIS7_SH_NS_4lessIvEELb1EEENS5_ISH_EEE12__find_equalIS7_EERPNS_16__tree_node_baseIPvEENS_21__tree_const_iteratorISH_PNS_11__tree_nodeISH_SQ_EElEERPNS_15__tree_end_nodeISS_EEST_RKT_, symObjAddr: 0x100F0, symBinAddr: 0x15F30, symSize: 0x430 }
  - { offset: 0xD2F79, size: 0x8, addend: 0x0, symName: __ZNSt3__128__exception_guard_exceptionsINS_6vectorIN8nlohmann16json_abi_v3_11_210basic_jsonINS_3mapES1_NS_12basic_stringIcNS_11char_traitsIcEENS_9allocatorIcEEEEbxydS9_NS3_14adl_serializerENS1_IhNS9_IhEEEEEENS9_ISF_EEE16__destroy_vectorEED1B8ne180100Ev, symObjAddr: 0x10630, symBinAddr: 0x16470, symSize: 0x70 }
  - { offset: 0xD3119, size: 0x8, addend: 0x0, symName: __ZNSt3__128__exception_guard_exceptionsINS_29_AllocatorDestroyRangeReverseINS_9allocatorIN8nlohmann16json_abi_v3_11_210basic_jsonINS_3mapENS_6vectorENS_12basic_stringIcNS_11char_traitsIcEENS2_IcEEEEbxydS2_NS4_14adl_serializerENS7_IhNS2_IhEEEEEEEEPSG_EEED1B8ne180100Ev, symObjAddr: 0x106A0, symBinAddr: 0x164E0, symSize: 0x50 }
  - { offset: 0xD349A, size: 0x8, addend: 0x0, symName: __ZN8nlohmann16json_abi_v3_11_26detail13binary_writerINS0_10basic_jsonINSt3__13mapENS4_6vectorENS4_12basic_stringIcNS4_11char_traitsIcEENS4_9allocatorIcEEEEbxydSA_NS0_14adl_serializerENS6_IhNSA_IhEEEEEEhE10write_bsonERKSG_, symObjAddr: 0x109A0, symBinAddr: 0x167D0, symSize: 0xC0 }
  - { offset: 0xD3647, size: 0x8, addend: 0x0, symName: __ZN8nlohmann16json_abi_v3_11_26detail13binary_writerINS0_10basic_jsonINSt3__13mapENS4_6vectorENS4_12basic_stringIcNS4_11char_traitsIcEENS4_9allocatorIcEEEEbxydSA_NS0_14adl_serializerENS6_IhNSA_IhEEEEEEhED1Ev, symObjAddr: 0x10A60, symBinAddr: 0x16890, symSize: 0x40 }
  - { offset: 0xD3770, size: 0x8, addend: 0x0, symName: __ZN8nlohmann16json_abi_v3_11_26detail13binary_writerINS0_10basic_jsonINSt3__13mapENS4_6vectorENS4_12basic_stringIcNS4_11char_traitsIcEENS4_9allocatorIcEEEEbxydSA_NS0_14adl_serializerENS6_IhNSA_IhEEEEEEhE17write_bson_objectERKNS5_ISC_SG_NS4_4lessIvEENSA_INS4_4pairIKSC_SG_EEEEEE, symObjAddr: 0x10AE0, symBinAddr: 0x168D0, symSize: 0x160 }
  - { offset: 0xD3DA4, size: 0x8, addend: 0x0, symName: __ZN8nlohmann16json_abi_v3_11_26detail13binary_writerINS0_10basic_jsonINSt3__13mapENS4_6vectorENS4_12basic_stringIcNS4_11char_traitsIcEENS4_9allocatorIcEEEEbxydSA_NS0_14adl_serializerENS6_IhNSA_IhEEEEEEhE22calc_bson_element_sizeERKSC_RKSG_, symObjAddr: 0x10FF0, symBinAddr: 0x16DE0, symSize: 0x1F0 }
  - { offset: 0xD4472, size: 0x8, addend: 0x0, symName: __ZN8nlohmann16json_abi_v3_11_26detail13binary_writerINS0_10basic_jsonINSt3__13mapENS4_6vectorENS4_12basic_stringIcNS4_11char_traitsIcEENS4_9allocatorIcEEEEbxydSA_NS0_14adl_serializerENS6_IhNSA_IhEEEEEEhE18write_bson_elementERKSC_RKSG_, symObjAddr: 0x10CC0, symBinAddr: 0x16AB0, symSize: 0x330 }
  - { offset: 0xD4C68, size: 0x8, addend: 0x0, symName: __ZN8nlohmann16json_abi_v3_11_26detail13binary_writerINS0_10basic_jsonINSt3__13mapENS4_6vectorENS4_12basic_stringIcNS4_11char_traitsIcEENS4_9allocatorIcEEEEbxydSA_NS0_14adl_serializerENS6_IhNSA_IhEEEEEEhE16write_bson_arrayERKSC_RKNS6_ISG_NSA_ISG_EEEE, symObjAddr: 0x115C0, symBinAddr: 0x173B0, symSize: 0x1B0 }
  - { offset: 0xD53C7, size: 0x8, addend: 0x0, symName: __ZN8nlohmann16json_abi_v3_11_26detail13binary_writerINS0_10basic_jsonINSt3__13mapENS4_6vectorENS4_12basic_stringIcNS4_11char_traitsIcEENS4_9allocatorIcEEEEbxydSA_NS0_14adl_serializerENS6_IhNSA_IhEEEEEEhE17write_bson_stringERKSC_SJ_, symObjAddr: 0x11BD0, symBinAddr: 0x179C0, symSize: 0xF0 }
  - { offset: 0xD572E, size: 0x8, addend: 0x0, symName: __ZN8nlohmann16json_abi_v3_11_26detail13binary_writerINS0_10basic_jsonINSt3__13mapENS4_6vectorENS4_12basic_stringIcNS4_11char_traitsIcEENS4_9allocatorIcEEEEbxydSA_NS0_14adl_serializerENS6_IhNSA_IhEEEEEEhE18write_bson_integerERKSC_x, symObjAddr: 0x11840, symBinAddr: 0x17630, symSize: 0x150 }
  - { offset: 0xD5C00, size: 0x8, addend: 0x0, symName: __ZN8nlohmann16json_abi_v3_11_26detail13binary_writerINS0_10basic_jsonINSt3__13mapENS4_6vectorENS4_12basic_stringIcNS4_11char_traitsIcEENS4_9allocatorIcEEEEbxydSA_NS0_14adl_serializerENS6_IhNSA_IhEEEEEEhE19write_bson_unsignedERKSC_RKSG_, symObjAddr: 0x11990, symBinAddr: 0x17780, symSize: 0x240 }
  - { offset: 0xD6323, size: 0x8, addend: 0x0, symName: __ZN8nlohmann16json_abi_v3_11_26detail13binary_writerINS0_10basic_jsonINSt3__13mapENS4_6vectorENS4_12basic_stringIcNS4_11char_traitsIcEENS4_9allocatorIcEEEEbxydSA_NS0_14adl_serializerENS6_IhNSA_IhEEEEEEhE17write_bson_binaryERKSC_RKNS0_27byte_container_with_subtypeISF_EE, symObjAddr: 0x11770, symBinAddr: 0x17560, symSize: 0xD0 }
  - { offset: 0xD6818, size: 0x8, addend: 0x0, symName: __ZN8nlohmann16json_abi_v3_11_26detail13binary_writerINS0_10basic_jsonINSt3__13mapENS4_6vectorENS4_12basic_stringIcNS4_11char_traitsIcEENS4_9allocatorIcEEEEbxydSA_NS0_14adl_serializerENS6_IhNSA_IhEEEEEEhE27calc_bson_entry_header_sizeERKSC_RKSG_, symObjAddr: 0x111E0, symBinAddr: 0x16FD0, symSize: 0x120 }
  - { offset: 0xD6BA9, size: 0x8, addend: 0x0, symName: __ZN8nlohmann16json_abi_v3_11_26detail12out_of_rangeD1Ev, symObjAddr: 0x11550, symBinAddr: 0x17340, symSize: 0x30 }
  - { offset: 0xD6C23, size: 0x8, addend: 0x0, symName: __ZN8nlohmann16json_abi_v3_11_26detail12out_of_rangeD0Ev, symObjAddr: 0x11580, symBinAddr: 0x17370, symSize: 0x40 }
  - { offset: 0xD6D8B, size: 0x8, addend: 0x0, symName: __ZNSt3__120__shared_ptr_emplaceIN8nlohmann16json_abi_v3_11_26detail21output_vector_adapterIhNS_9allocatorIhEEEENS5_IS7_EEED1Ev, symObjAddr: 0x11D90, symBinAddr: 0x17B80, symSize: 0x20 }
  - { offset: 0xD6DE3, size: 0x8, addend: 0x0, symName: __ZNSt3__120__shared_ptr_emplaceIN8nlohmann16json_abi_v3_11_26detail21output_vector_adapterIhNS_9allocatorIhEEEENS5_IS7_EEED0Ev, symObjAddr: 0x11DB0, symBinAddr: 0x17BA0, symSize: 0x30 }
  - { offset: 0xD6ED1, size: 0x8, addend: 0x0, symName: __ZNSt3__120__shared_ptr_emplaceIN8nlohmann16json_abi_v3_11_26detail21output_vector_adapterIhNS_9allocatorIhEEEENS5_IS7_EEE16__on_zero_sharedEv, symObjAddr: 0x11DE0, symBinAddr: 0x17BD0, symSize: 0x10 }
  - { offset: 0xD6FC6, size: 0x8, addend: 0x0, symName: __ZNSt3__120__shared_ptr_emplaceIN8nlohmann16json_abi_v3_11_26detail21output_vector_adapterIhNS_9allocatorIhEEEENS5_IS7_EEE21__on_zero_shared_weakEv, symObjAddr: 0x11DF0, symBinAddr: 0x17BE0, symSize: 0x10 }
  - { offset: 0xD73D1, size: 0x8, addend: 0x0, symName: __ZN8nlohmann16json_abi_v3_11_26detail21output_vector_adapterIhNSt3__19allocatorIhEEE15write_characterEh, symObjAddr: 0x11E00, symBinAddr: 0x17BF0, symSize: 0x240 }
  - { offset: 0xD7968, size: 0x8, addend: 0x0, symName: __ZN8nlohmann16json_abi_v3_11_26detail21output_vector_adapterIhNSt3__19allocatorIhEEE16write_charactersEPKhm, symObjAddr: 0x12040, symBinAddr: 0x17E30, symSize: 0x20 }
  - { offset: 0xD8232, size: 0x8, addend: 0x0, symName: __ZN8nlohmann16json_abi_v3_11_26detail21output_vector_adapterIhNSt3__19allocatorIhEEED1Ev, symObjAddr: 0x12060, symBinAddr: 0x17E50, symSize: 0x10 }
  - { offset: 0xD825D, size: 0x8, addend: 0x0, symName: __ZN8nlohmann16json_abi_v3_11_26detail21output_vector_adapterIhNSt3__19allocatorIhEEED0Ev, symObjAddr: 0x12070, symBinAddr: 0x17E60, symSize: 0x10 }
  - { offset: 0xD891A, size: 0x8, addend: 0x0, symName: __ZNK8nlohmann16json_abi_v3_11_210basic_jsonINSt3__13mapENS2_6vectorENS2_12basic_stringIcNS2_11char_traitsIcEENS2_9allocatorIcEEEEbxydS8_NS0_14adl_serializerENS4_IhNS8_IhEEEEEixEm, symObjAddr: 0x12D00, symBinAddr: 0x18750, symSize: 0xD0 }
  - { offset: 0xD8AFD, size: 0x8, addend: 0x0, symName: __ZNSt3__16__treeINS_12__value_typeINS_12basic_stringIcNS_11char_traitsIcEENS_9allocatorIcEEEEN8nlohmann16json_abi_v3_11_210basic_jsonINS_3mapENS_6vectorES7_bxydS5_NS9_14adl_serializerENSC_IhNS5_IhEEEEEEEENS_19__map_value_compareIS7_SH_NS_4lessIvEELb1EEENS5_ISH_EEE25__emplace_unique_key_argsIS7_JS7_SG_EEENS_4pairINS_15__tree_iteratorISH_PNS_11__tree_nodeISH_PvEElEEbEERKT_DpOT0_, symObjAddr: 0x12E50, symBinAddr: 0x188A0, symSize: 0x1B0 }
  - { offset: 0xD90E5, size: 0x8, addend: 0x0, symName: __ZNSt3__16vectorIN8nlohmann16json_abi_v3_11_210basic_jsonINS_3mapES0_NS_12basic_stringIcNS_11char_traitsIcEENS_9allocatorIcEEEEbxydS8_NS2_14adl_serializerENS0_IhNS8_IhEEEEEENS8_ISE_EEE16__init_with_sizeB8ne180100IPKNS2_6detail8json_refISE_EESM_EEvT_T0_m, symObjAddr: 0x13000, symBinAddr: 0x18A50, symSize: 0x140 }
  - { offset: 0xD9668, size: 0x8, addend: 0x0, symName: __ZN8nlohmann16json_abi_v3_11_26detail10type_error6createIDnLi0EEES2_iRKNSt3__112basic_stringIcNS4_11char_traitsIcEENS4_9allocatorIcEEEET_, symObjAddr: 0x12B80, symBinAddr: 0x185D0, symSize: 0x180 }
  - { offset: 0xDA989, size: 0x8, addend: 0x0, symName: __ZN8nlohmann16json_abi_v3_11_26detail5lexerINS0_10basic_jsonINSt3__13mapENS4_6vectorENS4_12basic_stringIcNS4_11char_traitsIcEENS4_9allocatorIcEEEEbxydSA_NS0_14adl_serializerENS6_IhNSA_IhEEEEEENS1_22iterator_input_adapterINS4_11__wrap_iterIPKcEEEEE4scanEv, symObjAddr: 0x136E0, symBinAddr: 0x19130, symSize: 0x3F0 }
  - { offset: 0xDAC98, size: 0x8, addend: 0x0, symName: __ZN8nlohmann16json_abi_v3_11_26detail5lexerINS0_10basic_jsonINSt3__13mapENS4_6vectorENS4_12basic_stringIcNS4_11char_traitsIcEENS4_9allocatorIcEEEEbxydSA_NS0_14adl_serializerENS6_IhNSA_IhEEEEEENS1_22iterator_input_adapterINS4_11__wrap_iterIPKcEEEEED1Ev, symObjAddr: 0x136A0, symBinAddr: 0x190F0, symSize: 0x40 }
  - { offset: 0xDAFC4, size: 0x8, addend: 0x0, symName: __ZN8nlohmann16json_abi_v3_11_26detail5lexerINS0_10basic_jsonINSt3__13mapENS4_6vectorENS4_12basic_stringIcNS4_11char_traitsIcEENS4_9allocatorIcEEEEbxydSA_NS0_14adl_serializerENS6_IhNSA_IhEEEEEENS1_22iterator_input_adapterINS4_11__wrap_iterIPKcEEEEE3getEv, symObjAddr: 0x15B70, symBinAddr: 0x1B5C0, symSize: 0x2C0 }
  - { offset: 0xDB5C0, size: 0x8, addend: 0x0, symName: __ZN8nlohmann16json_abi_v3_11_26detail5lexerINS0_10basic_jsonINSt3__13mapENS4_6vectorENS4_12basic_stringIcNS4_11char_traitsIcEENS4_9allocatorIcEEEEbxydSA_NS0_14adl_serializerENS6_IhNSA_IhEEEEEENS1_22iterator_input_adapterINS4_11__wrap_iterIPKcEEEEE15skip_whitespaceEv, symObjAddr: 0x13AD0, symBinAddr: 0x19520, symSize: 0x370 }
  - { offset: 0xDBBEC, size: 0x8, addend: 0x0, symName: __ZN8nlohmann16json_abi_v3_11_26detail5lexerINS0_10basic_jsonINSt3__13mapENS4_6vectorENS4_12basic_stringIcNS4_11char_traitsIcEENS4_9allocatorIcEEEEbxydSA_NS0_14adl_serializerENS6_IhNSA_IhEEEEEENS1_22iterator_input_adapterINS4_11__wrap_iterIPKcEEEEE12scan_commentEv, symObjAddr: 0x13E40, symBinAddr: 0x19890, symSize: 0xE0 }
  - { offset: 0xDBCDE, size: 0x8, addend: 0x0, symName: __ZN8nlohmann16json_abi_v3_11_26detail5lexerINS0_10basic_jsonINSt3__13mapENS4_6vectorENS4_12basic_stringIcNS4_11char_traitsIcEENS4_9allocatorIcEEEEbxydSA_NS0_14adl_serializerENS6_IhNSA_IhEEEEEENS1_22iterator_input_adapterINS4_11__wrap_iterIPKcEEEEE11scan_numberEv, symObjAddr: 0x154E0, symBinAddr: 0x1AF30, symSize: 0x690 }
  - { offset: 0xDCB98, size: 0x8, addend: 0x0, symName: __ZN8nlohmann16json_abi_v3_11_26detail5lexerINS0_10basic_jsonINSt3__13mapENS4_6vectorENS4_12basic_stringIcNS4_11char_traitsIcEENS4_9allocatorIcEEEEbxydSA_NS0_14adl_serializerENS6_IhNSA_IhEEEEEENS1_22iterator_input_adapterINS4_11__wrap_iterIPKcEEEEE11scan_stringEv, symObjAddr: 0x13F20, symBinAddr: 0x19970, symSize: 0x15C0 }
  - { offset: 0xDE943, size: 0x8, addend: 0x0, symName: __ZN8nlohmann16json_abi_v3_11_26detail5lexerINS0_10basic_jsonINSt3__13mapENS4_6vectorENS4_12basic_stringIcNS4_11char_traitsIcEENS4_9allocatorIcEEEEbxydSA_NS0_14adl_serializerENS6_IhNSA_IhEEEEEENS1_22iterator_input_adapterINS4_11__wrap_iterIPKcEEEEE13get_codepointEv, symObjAddr: 0x15E40, symBinAddr: 0x1B880, symSize: 0x110 }
  - { offset: 0xDE9FA, size: 0x8, addend: 0x0, symName: __ZN8nlohmann16json_abi_v3_11_26detail5lexerINS0_10basic_jsonINSt3__13mapENS4_6vectorENS4_12basic_stringIcNS4_11char_traitsIcEENS4_9allocatorIcEEEEbxydSA_NS0_14adl_serializerENS6_IhNSA_IhEEEEEENS1_22iterator_input_adapterINS4_11__wrap_iterIPKcEEEEE13get_codepointEv, symObjAddr: 0x15E40, symBinAddr: 0x1B880, symSize: 0x110 }
  - { offset: 0xDECEB, size: 0x8, addend: 0x0, symName: __ZN8nlohmann16json_abi_v3_11_26detail6parserINS0_10basic_jsonINSt3__13mapENS4_6vectorENS4_12basic_stringIcNS4_11char_traitsIcEENS4_9allocatorIcEEEEbxydSA_NS0_14adl_serializerENS6_IhNSA_IhEEEEEENS1_22iterator_input_adapterINS4_11__wrap_iterIPKcEEEEE18sax_parse_internalINS1_17json_sax_acceptorISG_EEEEbPT_, symObjAddr: 0x16190, symBinAddr: 0x1BBD0, symSize: 0xA10 }
  - { offset: 0xE048F, size: 0x8, addend: 0x0, symName: __ZN8nlohmann16json_abi_v3_11_26detail6parserINS0_10basic_jsonINSt3__13mapENS4_6vectorENS4_12basic_stringIcNS4_11char_traitsIcEENS4_9allocatorIcEEEEbxydSA_NS0_14adl_serializerENS6_IhNSA_IhEEEEEENS1_22iterator_input_adapterINS4_11__wrap_iterIPKcEEEEE17exception_messageENS1_10lexer_baseISG_E10token_typeERKSC_, symObjAddr: 0x16E90, symBinAddr: 0x1C8D0, symSize: 0x3F0 }
  - { offset: 0xE1810, size: 0x8, addend: 0x0, symName: __ZN8nlohmann16json_abi_v3_11_26detail11parse_error6createIDnLi0EEES2_iRKNS1_10position_tERKNSt3__112basic_stringIcNS7_11char_traitsIcEENS7_9allocatorIcEEEET_, symObjAddr: 0x16C80, symBinAddr: 0x1C6C0, symSize: 0x210 }
  - { offset: 0xE2989, size: 0x8, addend: 0x0, symName: __ZNSt3__16vectorIbNS_9allocatorIbEEE7reserveEm, symObjAddr: 0x174E0, symBinAddr: 0x1CF20, symSize: 0x120 }
  - { offset: 0xE2D99, size: 0x8, addend: 0x0, symName: __ZNK8nlohmann16json_abi_v3_11_26detail5lexerINS0_10basic_jsonINSt3__13mapENS4_6vectorENS4_12basic_stringIcNS4_11char_traitsIcEENS4_9allocatorIcEEEEbxydSA_NS0_14adl_serializerENS6_IhNSA_IhEEEEEENS1_22iterator_input_adapterINS4_11__wrap_iterIPKcEEEEE16get_token_stringEv, symObjAddr: 0x16BA0, symBinAddr: 0x1C5E0, symSize: 0xE0 }
  - { offset: 0xE305C, size: 0x8, addend: 0x0, symName: __ZN8nlohmann16json_abi_v3_11_26detail12out_of_range6createIDnLi0EEES2_iRKNSt3__112basic_stringIcNS4_11char_traitsIcEENS4_9allocatorIcEEEET_, symObjAddr: 0x172B0, symBinAddr: 0x1CCF0, symSize: 0x180 }
  - { offset: 0xE3D76, size: 0x8, addend: 0x0, symName: __ZNKSt3__16vectorIbNS_9allocatorIbEEE20__throw_length_errorB8ne180100Ev, symObjAddr: 0x17600, symBinAddr: 0x1D040, symSize: 0x10 }
  - { offset: 0xE3DA0, size: 0x8, addend: 0x0, symName: __ZN8nlohmann16json_abi_v3_11_26detail6concatINSt3__112basic_stringIcNS3_11char_traitsIcEENS3_9allocatorIcEEEEJS9_RA12_KcS9_RA3_SA_S9_RKS9_EEET_DpOT0_, symObjAddr: 0x17610, symBinAddr: 0x1D050, symSize: 0x1A0 }
  - { offset: 0xE3E21, size: 0x8, addend: 0x0, symName: __ZN8nlohmann16json_abi_v3_11_26detail11parse_error15position_stringERKNS1_10position_tE, symObjAddr: 0x177B0, symBinAddr: 0x1D1F0, symSize: 0xC0 }
  - { offset: 0xE4348, size: 0x8, addend: 0x0, symName: __ZN8nlohmann16json_abi_v3_11_26detail11parse_errorD1Ev, symObjAddr: 0x17280, symBinAddr: 0x1CCC0, symSize: 0x30 }
  - { offset: 0xE45A0, size: 0x8, addend: 0x0, symName: __ZN8nlohmann16json_abi_v3_11_26detail11parse_errorD0Ev, symObjAddr: 0x17980, symBinAddr: 0x1D3C0, symSize: 0x40 }
  - { offset: 0xE64E1, size: 0x8, addend: 0x0, symName: __ZN7facesdk6Logger9setStatusEb, symObjAddr: 0x0, symBinAddr: 0x1D860, symSize: 0x9 }
  - { offset: 0xEEBA9, size: 0x8, addend: 0x0, symName: __ZN7facesdk6Logger9setStatusEb, symObjAddr: 0x0, symBinAddr: 0x1D860, symSize: 0x9 }
  - { offset: 0xF6D5C, size: 0x8, addend: 0x0, symName: __ZNSt3__125__throw_bad_function_callB8ne180100Ev, symObjAddr: 0x13E0, symBinAddr: 0x1E7B0, symSize: 0x40 }
  - { offset: 0xF9515, size: 0x8, addend: 0x0, symName: __ZN7facesdk12MessageQueueC1Em, symObjAddr: 0x90, symBinAddr: 0x1D870, symSize: 0x90 }
  - { offset: 0xF9866, size: 0x8, addend: 0x0, symName: __ZN7facesdk12MessageQueue4pushENS_11eFL_MessageE, symObjAddr: 0x120, symBinAddr: 0x1D900, symSize: 0xD0 }
  - { offset: 0xF9B8E, size: 0x8, addend: 0x0, symName: __ZNSt3__15dequeIN7facesdk11eFL_MessageENS_9allocatorIS2_EEE19__add_back_capacityEv, symObjAddr: 0x8D0, symBinAddr: 0x1DCE0, symSize: 0x720 }
  - { offset: 0xFAF0F, size: 0x8, addend: 0x0, symName: __ZN7facesdk12MessageQueue5clearEv, symObjAddr: 0x200, symBinAddr: 0x1D9D0, symSize: 0x80 }
  - { offset: 0xFB467, size: 0x8, addend: 0x0, symName: __ZNK7facesdk12MessageQueue17prevailingMessageEv, symObjAddr: 0x480, symBinAddr: 0x1DA50, symSize: 0x170 }
  - { offset: 0xFBEA2, size: 0x8, addend: 0x0, symName: __ZNSt3__112__hash_tableINS_17__hash_value_typeIN7facesdk11eFL_MessageEmEENS_22__unordered_map_hasherIS3_S4_NS_4hashIS3_EENS_8equal_toIS3_EELb1EEENS_21__unordered_map_equalIS3_S4_S9_S7_Lb1EEENS_9allocatorIS4_EEE25__emplace_unique_key_argsIS3_JRKNS_21piecewise_construct_tENS_5tupleIJRKS3_EEENSK_IJEEEEEENS_4pairINS_15__hash_iteratorIPNS_11__hash_nodeIS4_PvEEEEbEERKT_DpOT0_, symObjAddr: 0x1450, symBinAddr: 0x1E820, symSize: 0x4A0 }
  - { offset: 0xFC606, size: 0x8, addend: 0x0, symName: __ZNSt3__113unordered_mapIN7facesdk11eFL_MessageEmNS_4hashIS2_EENS_8equal_toIS2_EENS_9allocatorINS_4pairIKS2_mEEEEED1B8ne180100Ev, symObjAddr: 0x6E0, symBinAddr: 0x1DBC0, symSize: 0x50 }
  - { offset: 0xFC8CC, size: 0x8, addend: 0x0, symName: __ZNK7facesdk12MessageQueue15messageFractionENS_11eFL_MessageE, symObjAddr: 0x730, symBinAddr: 0x1DC10, symSize: 0xD0 }
  - { offset: 0xFD177, size: 0x8, addend: 0x0, symName: __ZNSt3__114__split_bufferIPN7facesdk11eFL_MessageENS_9allocatorIS3_EEE9push_backEOS3_, symObjAddr: 0xFF0, symBinAddr: 0x1E400, symSize: 0x1E0 }
  - { offset: 0xFD618, size: 0x8, addend: 0x0, symName: __ZNSt3__114__split_bufferIPN7facesdk11eFL_MessageENS_9allocatorIS3_EEE10push_frontEOS3_, symObjAddr: 0x11D0, symBinAddr: 0x1E5E0, symSize: 0x1D0 }
  - { offset: 0xFDB22, size: 0x8, addend: 0x0, symName: __ZNSt3__117bad_function_callD1Ev, symObjAddr: 0x1420, symBinAddr: 0x1E7F0, symSize: 0x10 }
  - { offset: 0xFDB78, size: 0x8, addend: 0x0, symName: __ZNSt3__117bad_function_callD0Ev, symObjAddr: 0x1430, symBinAddr: 0x1E800, symSize: 0x20 }
  - { offset: 0xFE100, size: 0x8, addend: 0x0, symName: __ZNSt3__112__hash_tableINS_17__hash_value_typeIN7facesdk11eFL_MessageEmEENS_22__unordered_map_hasherIS3_S4_NS_4hashIS3_EENS_8equal_toIS3_EELb1EEENS_21__unordered_map_equalIS3_S4_S9_S7_Lb1EEENS_9allocatorIS4_EEE11__do_rehashILb1EEEvm, symObjAddr: 0x18F0, symBinAddr: 0x1ECC0, symSize: 0x20B }
  - { offset: 0x1004E0, size: 0x8, addend: 0x0, symName: '+[RGLLivenessCore process:inputData:inputJSON:outputData:outputJSON:]', symObjAddr: 0x0, symBinAddr: 0x1EED0, symSize: 0x120 }
  - { offset: 0x101196, size: 0x8, addend: 0x0, symName: '+[RGLLivenessCore process:inputData:inputJSON:outputData:outputJSON:]', symObjAddr: 0x0, symBinAddr: 0x1EED0, symSize: 0x120 }
  - { offset: 0x10144C, size: 0x8, addend: 0x0, symName: '+[RGLLivenessCore process:inputBufferParams:inputJSON:outputData:outputJSON:]', symObjAddr: 0x120, symBinAddr: 0x1EFF0, symSize: 0x4E0 }
  - { offset: 0x101C66, size: 0x8, addend: 0x0, symName: '+[RGLLivenessCore addPackage:inputBufferParams:inputJSON:outputData:outputJSON:]', symObjAddr: 0x600, symBinAddr: 0x1F4D0, symSize: 0x260 }
  - { offset: 0x101EF6, size: 0x8, addend: 0x0, symName: '+[RGLLivenessCore process:]', symObjAddr: 0x860, symBinAddr: 0x1F730, symSize: 0x316 }
  - { offset: 0x10F458, size: 0x8, addend: 0x0, symName: __ZN7facesdk8ResourceC1ERKNSt3__112basic_stringIcNS1_11char_traitsIcEENS1_9allocatorIcEEEE, symObjAddr: 0x60, symBinAddr: 0x1FA50, symSize: 0x60 }
  - { offset: 0x10F778, size: 0x8, addend: 0x0, symName: __ZNK7facesdk8Resource7getFileERKNSt3__112basic_stringIcNS1_11char_traitsIcEENS1_9allocatorIcEEEE, symObjAddr: 0x180, symBinAddr: 0x1FAB0, symSize: 0xD0 }
  - { offset: 0x11DE62, size: 0x8, addend: 0x0, symName: __ZN5Eigen8internal26call_dense_assignment_loopINS_6MatrixIfLin1ELin1ELi0ELin1ELin1EEENS_13CwiseBinaryOpINS0_13scalar_sum_opIffEEKNS_12ArrayWrapperIKNS_5BlockIKNS_3MapIKNS2_IfLin1ELin1ELi1ELin1ELin1EEELi0ENS_6StrideILi0ELi0EEEEELin1ELin1ELb0EEEEEKNS4_INS0_17scalar_product_opIffEEKNS4_ISL_SJ_KNS_14CwiseNullaryOpINS0_18scalar_constant_opIfEEKNS_5ArrayIfLin1ELin1ELi1ELin1ELin1EEEEEEESJ_EEEENS0_9assign_opIffEEEEvRT_RKT0_RKT1_, symObjAddr: 0x1D180, symBinAddr: 0x383F0, symSize: 0x430 }
  - { offset: 0x11EB2C, size: 0x8, addend: 0x0, symName: __ZN5Eigen8internal26call_dense_assignment_loopINS_6MatrixIfLin1ELin1ELi0ELin1ELin1EEENS_13CwiseBinaryOpINS0_20scalar_difference_opIffEEKNS_12ArrayWrapperIS3_EEKNS4_INS0_18scalar_quotient_opIffEES9_KNS_14CwiseNullaryOpINS0_18scalar_constant_opIfEEKNS_5ArrayIfLin1ELin1ELi0ELin1ELin1EEEEEEEEENS0_9assign_opIffEEEEvRT_RKT0_RKT1_, symObjAddr: 0x1D640, symBinAddr: 0x38820, symSize: 0x200 }
  - { offset: 0x11F5C9, size: 0x8, addend: 0x0, symName: __ZN5Eigen8internal26call_dense_assignment_loopINS_6MatrixIfLin1ELin1ELi0ELin1ELin1EEENS_13CwiseBinaryOpINS0_13scalar_sum_opIffEEKNS_12ArrayWrapperIS3_EES9_EENS0_9assign_opIffEEEEvRT_RKT0_RKT1_, symObjAddr: 0x1D840, symBinAddr: 0x38A20, symSize: 0x220 }
  - { offset: 0x1970C2, size: 0x8, addend: 0x0, symName: __ZNSt3__1plB8ne180100IcNS_11char_traitsIcEENS_9allocatorIcEEEENS_12basic_stringIT_T0_T1_EEOS9_SA_, symObjAddr: 0x15F10, symBinAddr: 0x312D0, symSize: 0x60 }
  - { offset: 0x198195, size: 0x8, addend: 0x0, symName: __ZNSt3__135__uninitialized_allocator_copy_implB8ne180100INS_9allocatorINS_6vectorIiNS1_IiEEEEEEPKS4_S7_PS4_EET2_RT_T0_T1_S9_, symObjAddr: 0x16150, symBinAddr: 0x31420, symSize: 0x110 }
  - { offset: 0x19B6D6, size: 0x8, addend: 0x0, symName: __ZNSt3__113__tree_removeB8ne180100IPNS_16__tree_node_baseIPvEEEEvT_S5_, symObjAddr: 0xFEF0, symBinAddr: 0x2BCE0, symSize: 0x3B0 }
  - { offset: 0x19DE94, size: 0x8, addend: 0x0, symName: __ZNSt3__135__uninitialized_allocator_copy_implB8ne180100INS_9allocatorINS_6vectorIfNS1_IfEEEEEEPKS4_S7_PS4_EET2_RT_T0_T1_S9_, symObjAddr: 0x1B680, symBinAddr: 0x36940, symSize: 0x110 }
  - { offset: 0x19E543, size: 0x8, addend: 0x0, symName: __ZNSt3__135__uninitialized_allocator_copy_implB8ne180100INS_9allocatorINS_6vectorIiNS1_IiEEEEEEPS4_S6_S6_EET2_RT_T0_T1_S7_, symObjAddr: 0x19C50, symBinAddr: 0x34F10, symSize: 0x110 }
  - { offset: 0x1A03D8, size: 0x8, addend: 0x0, symName: __ZNSt3__135__uninitialized_allocator_copy_implB8ne180100INS_9allocatorINS_6vectorIhNS1_IhEEEEEEPKS4_S7_PS4_EET2_RT_T0_T1_S9_, symObjAddr: 0x1F600, symBinAddr: 0x3A700, symSize: 0x100 }
  - { offset: 0x1A6198, size: 0x8, addend: 0x0, symName: __ZN7facesdkL12faceDetectorE, symObjAddr: 0x66EF20, symBinAddr: 0x10975C0, symSize: 0x0 }
  - { offset: 0x1A6212, size: 0x8, addend: 0x0, symName: __ZN7facesdkL17occlusionDetectorE, symObjAddr: 0x66EF28, symBinAddr: 0x10975C8, symSize: 0x0 }
  - { offset: 0x1A6287, size: 0x8, addend: 0x0, symName: __ZN7facesdkL19eyeLandmarkDetectorE, symObjAddr: 0x66EF30, symBinAddr: 0x10975D0, symSize: 0x0 }
  - { offset: 0x1A62F7, size: 0x8, addend: 0x0, symName: __ZN7facesdkL7sessionE, symObjAddr: 0x66EF38, symBinAddr: 0x10975D8, symSize: 0x0 }
  - { offset: 0x1A7003, size: 0x8, addend: 0x0, symName: __ZN7facesdkL8resourceE, symObjAddr: 0x66EF40, symBinAddr: 0x10975E0, symSize: 0x0 }
  - { offset: 0x1A7081, size: 0x8, addend: 0x0, symName: __ZN7facesdkL14currResJsonOutE, symObjAddr: 0x66EF48, symBinAddr: 0x10975E8, symSize: 0x0 }
  - { offset: 0x1A709B, size: 0x8, addend: 0x0, symName: __ZN7facesdkL13packageBufOutE, symObjAddr: 0x66EF60, symBinAddr: 0x1097600, symSize: 0x0 }
  - { offset: 0x1A70B5, size: 0x8, addend: 0x0, symName: __ZN7facesdkL6loggerE, symObjAddr: 0x66EF78, symBinAddr: 0x1097618, symSize: 0x0 }
  - { offset: 0x1A75F2, size: 0x8, addend: 0x0, symName: __ZN7facesdk7processEiPvPcPS0_PS1_, symObjAddr: 0x160, symBinAddr: 0x1FCE0, symSize: 0x120 }
  - { offset: 0x1A7812, size: 0x8, addend: 0x0, symName: __ZN7facesdk7cmdInitEPKvPKcPPc, symObjAddr: 0x2D0, symBinAddr: 0x1FE00, symSize: 0x610 }
  - { offset: 0x1A8B6B, size: 0x8, addend: 0x0, symName: __ZN7facesdk18cmdStartNewSessionEPKcPPc, symObjAddr: 0x8F0, symBinAddr: 0x20410, symSize: 0x520 }
  - { offset: 0x1A9CD6, size: 0x8, addend: 0x0, symName: __ZN7facesdk10cmdProcessEPvPKcPPc, symObjAddr: 0xE10, symBinAddr: 0x20930, symSize: 0x400 }
  - { offset: 0x1AA92E, size: 0x8, addend: 0x0, symName: __ZN7facesdk12freeLivenessEv, symObjAddr: 0x2600, symBinAddr: 0x220C0, symSize: 0x150 }
  - { offset: 0x1AB0E6, size: 0x8, addend: 0x0, symName: __ZN7facesdk19cmdAddDataToPackageEPKvPKc, symObjAddr: 0x1210, symBinAddr: 0x20D30, symSize: 0x160 }
  - { offset: 0x1AB560, size: 0x8, addend: 0x0, symName: __ZN7facesdk18cmdFinalizePackageEPPvPPc, symObjAddr: 0x1370, symBinAddr: 0x20E90, symSize: 0xA70 }
  - { offset: 0x1AF2FA, size: 0x8, addend: 0x0, symName: __ZN7facesdk11setUpLoggerEPKc, symObjAddr: 0x1E20, symBinAddr: 0x21900, symSize: 0x140 }
  - { offset: 0x1AF657, size: 0x8, addend: 0x0, symName: __ZN7facesdk12initLivenessEPKhRKN8nlohmann16json_abi_v3_11_210basic_jsonINSt3__13mapENS5_6vectorENS5_12basic_stringIcNS5_11char_traitsIcEENS5_9allocatorIcEEEEbxydSB_NS3_14adl_serializerENS7_IhNSB_IhEEEEEE, symObjAddr: 0x2250, symBinAddr: 0x21D10, symSize: 0xE0 }
  - { offset: 0x1AFCEE, size: 0x8, addend: 0x0, symName: __ZN7facesdk15LivenessProcessERKN2cv3MatERKN8nlohmann16json_abi_v3_11_210basic_jsonINSt3__13mapENS7_6vectorENS7_12basic_stringIcNS7_11char_traitsIcEENS7_9allocatorIcEEEEbxydSD_NS5_14adl_serializerENS9_IhNSD_IhEEEEEE, symObjAddr: 0x2BA0, symBinAddr: 0x22210, symSize: 0x8B0 }
  - { offset: 0x1B1AE3, size: 0x8, addend: 0x0, symName: __ZN7facesdk12initResourceEPKhRKN8nlohmann16json_abi_v3_11_210basic_jsonINSt3__13mapENS5_6vectorENS5_12basic_stringIcNS5_11char_traitsIcEENS5_9allocatorIcEEEEbxydSB_NS3_14adl_serializerENS7_IhNSB_IhEEEEEE, symObjAddr: 0x3AE0, symBinAddr: 0x23130, symSize: 0x2B0 }
  - { offset: 0x1B2D1A, size: 0x8, addend: 0x0, symName: __ZN7facesdk16initFaceDetectorEv, symObjAddr: 0x3D90, symBinAddr: 0x233E0, symSize: 0xBE0 }
  - { offset: 0x1B7789, size: 0x8, addend: 0x0, symName: __ZN7facesdk21initOcclusionDetectorEv, symObjAddr: 0x4970, symBinAddr: 0x23FC0, symSize: 0x420 }
  - { offset: 0x1B97D9, size: 0x8, addend: 0x0, symName: __ZN7facesdk23initEyeLandmarkDetectorEv, symObjAddr: 0x4D90, symBinAddr: 0x243E0, symSize: 0x5A0 }
  - { offset: 0x1BC2A9, size: 0x8, addend: 0x0, symName: __ZN7facesdk18detectEyeLandmarksERKN2cv3MatERKNS0_5Rect_IiEERNSt3__16vectorINS0_6Point_IiEENS8_9allocatorISB_EEEE, symObjAddr: 0x56D0, symBinAddr: 0x24AC0, symSize: 0x110 }
  - { offset: 0x1BC443, size: 0x8, addend: 0x0, symName: __ZN7facesdk15createOrtRunnerERKNSt3__112basic_stringIcNS0_11char_traitsIcEENS0_9allocatorIcEEEERKN9inference21InferenceRunnerParamsE, symObjAddr: 0x3840, symBinAddr: 0x22E90, symSize: 0x2A0 }
  - { offset: 0x1C3D38, size: 0x8, addend: 0x0, symName: __ZN8nlohmann16json_abi_v3_11_26detail9dtoa_impl6grisu2IdEEvPcRiS5_T_, symObjAddr: 0x15160, symBinAddr: 0x30A40, symSize: 0x280 }
  - { offset: 0x1C443B, size: 0x8, addend: 0x0, symName: __ZN8nlohmann16json_abi_v3_11_26detail9dtoa_impl16grisu2_digit_genEPcRiS4_NS2_5diyfpES5_S5_, symObjAddr: 0x153E0, symBinAddr: 0x30CC0, symSize: 0x2E0 }
  - { offset: 0x1C8143, size: 0x8, addend: 0x0, symName: __ZN8nlohmann16json_abi_v3_11_26detail6concatINSt3__112basic_stringIcNS3_11char_traitsIcEENS3_9allocatorIcEEEEJRA24_KcS9_EEET_DpOT0_, symObjAddr: 0xF300, symBinAddr: 0x2B410, symSize: 0xA0 }
  - { offset: 0x1C849A, size: 0x8, addend: 0x0, symName: __ZN8nlohmann16json_abi_v3_11_26detail6concatINSt3__112basic_stringIcNS3_11char_traitsIcEENS3_9allocatorIcEEEEJRA23_KcS9_EEET_DpOT0_, symObjAddr: 0x10450, symBinAddr: 0x2C240, symSize: 0xA0 }
  - { offset: 0x1C95F9, size: 0x8, addend: 0x0, symName: __ZN8nlohmann16json_abi_v3_11_26detail8to_charsIdEEPcS3_PKcT_, symObjAddr: 0x14F60, symBinAddr: 0x30840, symSize: 0x200 }
  - { offset: 0x1C972C, size: 0x8, addend: 0x0, symName: __ZN8nlohmann16json_abi_v3_11_26detail6concatINSt3__112basic_stringIcNS3_11char_traitsIcEENS3_9allocatorIcEEEEJRA29_KcS9_RA5_SA_S9_EEET_DpOT0_, symObjAddr: 0x14DB0, symBinAddr: 0x30690, symSize: 0x110 }
  - { offset: 0x1C9C4A, size: 0x8, addend: 0x0, symName: __ZN8nlohmann16json_abi_v3_11_26detail6concatINSt3__112basic_stringIcNS3_11char_traitsIcEENS3_9allocatorIcEEEEJRA39_KcS9_EEET_DpOT0_, symObjAddr: 0x14EC0, symBinAddr: 0x307A0, symSize: 0xA0 }
  - { offset: 0x1CA3BC, size: 0x8, addend: 0x0, symName: __ZN8nlohmann16json_abi_v3_11_26detail6concatINSt3__112basic_stringIcNS3_11char_traitsIcEENS3_9allocatorIcEEEEJRA6_KcRKS9_RA12_SA_EEET_DpOT0_, symObjAddr: 0x15D20, symBinAddr: 0x310E0, symSize: 0xD0 }
  - { offset: 0x1CD20B, size: 0x8, addend: 0x0, symName: __ZN3Ort6GlobalIvE4api_E, symObjAddr: 0x25BE0, symBinAddr: 0x108CE68, symSize: 0x0 }
  - { offset: 0x1D102B, size: 0x8, addend: 0x0, symName: __ZN3Ort12ThrowOnErrorEP9OrtStatus, symObjAddr: 0x1C2D0, symBinAddr: 0x37540, symSize: 0x130 }
  - { offset: 0x1D47F0, size: 0x8, addend: 0x0, symName: __ZN8nlohmann16json_abi_v3_11_26detail10serializerINS0_10basic_jsonINSt3__13mapENS4_6vectorENS4_12basic_stringIcNS4_11char_traitsIcEENS4_9allocatorIcEEEEbxydSA_NS0_14adl_serializerENS6_IhNSA_IhEEEEEEE12dump_integerIxLi0EEEvT_, symObjAddr: 0x14BB0, symBinAddr: 0x30490, symSize: 0x200 }
  - { offset: 0x1D8469, size: 0x8, addend: 0x0, symName: __ZN5Eigen8internal21dense_assignment_loopINS0_31generic_dense_assignment_kernelINS0_9evaluatorINS_5BlockINS_6MatrixIfLin1ELin1ELi0ELin1ELin1EEELin1ELin1ELb0EEEEENS3_IS6_EENS0_9assign_opIffEELi0EEELi4ELi0EE3runERSC_, symObjAddr: 0x1DA60, symBinAddr: 0x38C40, symSize: 0x580 }
  - { offset: 0x1D969D, size: 0x8, addend: 0x0, symName: __ZN9inference7convertIfEEvRKNSt3__16vectorIN2cv3MatENS1_9allocatorIS4_EEEERNS2_IT_NS5_ISA_EEEEb, symObjAddr: 0x19D60, symBinAddr: 0x35020, symSize: 0x8A0 }
  - { offset: 0x1DAEB4, size: 0x8, addend: 0x0, symName: __ZN9inference7convertIhEEvRKNSt3__16vectorIN2cv3MatENS1_9allocatorIS4_EEEERNS2_IT_NS5_ISA_EEEEb, symObjAddr: 0x1EBC0, symBinAddr: 0x39D30, symSize: 0x920 }
  - { offset: 0x1E0297, size: 0x8, addend: 0x0, symName: __ZNSt3__110unique_ptrIN7facesdk12FaceDetectorENS_14default_deleteIS2_EEED1B8ne180100Ev, symObjAddr: 0x0, symBinAddr: 0x1FB80, symSize: 0x20 }
  - { offset: 0x1E03A9, size: 0x8, addend: 0x0, symName: __ZNSt3__110unique_ptrIN7facesdk14ClassifierBaseENS_14default_deleteIS2_EEED1B8ne180100Ev, symObjAddr: 0x20, symBinAddr: 0x1FBA0, symSize: 0x20 }
  - { offset: 0x1E04BB, size: 0x8, addend: 0x0, symName: __ZNSt3__110unique_ptrIN7facesdk23EyeLandmarkDetectorBaseENS_14default_deleteIS2_EEED1B8ne180100Ev, symObjAddr: 0x40, symBinAddr: 0x1FBC0, symSize: 0x20 }
  - { offset: 0x1E05E9, size: 0x8, addend: 0x0, symName: __ZNSt3__110unique_ptrIN7facesdk15LivenessSessionENS_14default_deleteIS2_EEED1B8ne180100Ev, symObjAddr: 0x60, symBinAddr: 0x1FBE0, symSize: 0x40 }
  - { offset: 0x1E06AE, size: 0x8, addend: 0x0, symName: __ZN7facesdk15LivenessSessionD2Ev, symObjAddr: 0x7570, symBinAddr: 0x252B0, symSize: 0x230 }
  - { offset: 0x1E1B13, size: 0x8, addend: 0x0, symName: __ZNSt3__110unique_ptrIN7facesdk8ResourceENS_14default_deleteIS2_EEED1B8ne180100Ev, symObjAddr: 0xA0, symBinAddr: 0x1FC20, symSize: 0xA0 }
  - { offset: 0x1E1FFD, size: 0x8, addend: 0x0, symName: __ZNSt3__16vectorIhNS_9allocatorIhEEED1B8ne180100Ev, symObjAddr: 0x140, symBinAddr: 0x1FCC0, symSize: 0x20 }
  - { offset: 0x1E2229, size: 0x8, addend: 0x0, symName: __ZN7facesdk7processEiPvPcPS0_PS1_.cold.1, symObjAddr: 0x21980, symBinAddr: 0xE447F0, symSize: 0x10 }
  - { offset: 0x1E301F, size: 0x8, addend: 0x0, symName: __ZN8nlohmann16json_abi_v3_11_210basic_jsonINSt3__13mapENS2_6vectorENS2_12basic_stringIcNS2_11char_traitsIcEENS2_9allocatorIcEEEEbxydS8_NS0_14adl_serializerENS4_IhNS8_IhEEEEE5parseIRPKcEESE_OT_NS2_8functionIFbiNS0_6detail13parse_event_tERSE_EEEbb, symObjAddr: 0x1F60, symBinAddr: 0x21A40, symSize: 0x2D0 }
  - { offset: 0x1E4B25, size: 0x8, addend: 0x0, symName: __ZN8nlohmann16json_abi_v3_11_210basic_jsonINSt3__13mapENS2_6vectorENS2_12basic_stringIcNS2_11char_traitsIcEENS2_9allocatorIcEEEEbxydS8_NS0_14adl_serializerENS4_IhNS8_IhEEEEE6createISA_JRA9_KcEEEPT_DpOT0_, symObjAddr: 0x131C0, symBinAddr: 0x2EB20, symSize: 0xD0 }
  - { offset: 0x1E51B0, size: 0x8, addend: 0x0, symName: __ZN8nlohmann16json_abi_v3_11_210basic_jsonINSt3__13mapENS2_6vectorENS2_12basic_stringIcNS2_11char_traitsIcEENS2_9allocatorIcEEEEbxydS8_NS0_14adl_serializerENS4_IhNS8_IhEEEEE6createISA_JRA6_KcEEEPT_DpOT0_, symObjAddr: 0x13290, symBinAddr: 0x2EBF0, symSize: 0xD0 }
  - { offset: 0x1E583B, size: 0x8, addend: 0x0, symName: __ZN8nlohmann16json_abi_v3_11_210basic_jsonINSt3__13mapENS2_6vectorENS2_12basic_stringIcNS2_11char_traitsIcEENS2_9allocatorIcEEEEbxydS8_NS0_14adl_serializerENS4_IhNS8_IhEEEEE6createISA_JRA12_KcEEEPT_DpOT0_, symObjAddr: 0x13360, symBinAddr: 0x2ECC0, symSize: 0xD0 }
  - { offset: 0x1E5EC6, size: 0x8, addend: 0x0, symName: __ZNK8nlohmann16json_abi_v3_11_210basic_jsonINSt3__13mapENS2_6vectorENS2_12basic_stringIcNS2_11char_traitsIcEENS2_9allocatorIcEEEEbxydS8_NS0_14adl_serializerENS4_IhNS8_IhEEEEE4dumpEicbNS0_6detail15error_handler_tE, symObjAddr: 0x2350, symBinAddr: 0x21E10, symSize: 0x2B0 }
  - { offset: 0x1E6B25, size: 0x8, addend: 0x0, symName: __ZN8nlohmann16json_abi_v3_11_26detail8json_refINS0_10basic_jsonINSt3__13mapENS4_6vectorENS4_12basic_stringIcNS4_11char_traitsIcEENS4_9allocatorIcEEEEbxydSA_NS0_14adl_serializerENS6_IhNSA_IhEEEEEEED1Ev, symObjAddr: 0x2330, symBinAddr: 0x21DF0, symSize: 0x20 }
  - { offset: 0x1E7EC8, size: 0x8, addend: 0x0, symName: __ZNK8nlohmann16json_abi_v3_11_210basic_jsonINSt3__13mapENS2_6vectorENS2_12basic_stringIcNS2_11char_traitsIcEENS2_9allocatorIcEEEEbxydS8_NS0_14adl_serializerENS4_IhNS8_IhEEEEE2atERKSA_, symObjAddr: 0x159E0, symBinAddr: 0x30FA0, symSize: 0x140 }
  - { offset: 0x1E91D7, size: 0x8, addend: 0x0, symName: __ZN13EncryptionKeyIL7KeyType0EE10FromStringERKNSt3__112basic_stringIcNS2_11char_traitsIcEENS2_9allocatorIcEEEE, symObjAddr: 0x3450, symBinAddr: 0x22AC0, symSize: 0x310 }
  - { offset: 0x1E9F9A, size: 0x8, addend: 0x0, symName: __ZN12SharedSecretD1Ev, symObjAddr: 0x3760, symBinAddr: 0x22DD0, symSize: 0x40 }
  - { offset: 0x1EA22C, size: 0x8, addend: 0x0, symName: __ZN8Security15DoubleEncryptorD1Ev, symObjAddr: 0x37A0, symBinAddr: 0x22E10, symSize: 0x80 }
  - { offset: 0x1EAF26, size: 0x8, addend: 0x0, symName: __ZN8nlohmann16json_abi_v3_11_26detail6parserINS0_10basic_jsonINSt3__13mapENS4_6vectorENS4_12basic_stringIcNS4_11char_traitsIcEENS4_9allocatorIcEEEEbxydSA_NS0_14adl_serializerENS6_IhNSA_IhEEEEEENS1_22iterator_input_adapterIPKcEEEC2EOSK_NS4_8functionIFbiNS1_13parse_event_tERSG_EEEbb, symObjAddr: 0x8E40, symBinAddr: 0x25E30, symSize: 0x130 }
  - { offset: 0x1EB16E, size: 0x8, addend: 0x0, symName: __ZN8nlohmann16json_abi_v3_11_26detail6parserINS0_10basic_jsonINSt3__13mapENS4_6vectorENS4_12basic_stringIcNS4_11char_traitsIcEENS4_9allocatorIcEEEEbxydSA_NS0_14adl_serializerENS6_IhNSA_IhEEEEEENS1_22iterator_input_adapterIPKcEEE5parseEbRSG_, symObjAddr: 0x8560, symBinAddr: 0x255B0, symSize: 0x880 }
  - { offset: 0x1EDAAB, size: 0x8, addend: 0x0, symName: __ZN8nlohmann16json_abi_v3_11_26detail10serializerINS0_10basic_jsonINSt3__13mapENS4_6vectorENS4_12basic_stringIcNS4_11char_traitsIcEENS4_9allocatorIcEEEEbxydSA_NS0_14adl_serializerENS6_IhNSA_IhEEEEEEE4dumpERKSG_bbjj, symObjAddr: 0x134B0, symBinAddr: 0x2ED90, symSize: 0xF80 }
  - { offset: 0x1EF75E, size: 0x8, addend: 0x0, symName: __ZN8nlohmann16json_abi_v3_11_26detail10serializerINS0_10basic_jsonINSt3__13mapENS4_6vectorENS4_12basic_stringIcNS4_11char_traitsIcEENS4_9allocatorIcEEEEbxydSA_NS0_14adl_serializerENS6_IhNSA_IhEEEEEEED1Ev, symObjAddr: 0x14430, symBinAddr: 0x2FD10, symSize: 0x60 }
  - { offset: 0x1EF939, size: 0x8, addend: 0x0, symName: __ZNK8nlohmann16json_abi_v3_11_210basic_jsonINSt3__13mapENS2_6vectorENS2_12basic_stringIcNS2_11char_traitsIcEENS2_9allocatorIcEEEEbxydS8_NS0_14adl_serializerENS4_IhNS8_IhEEEEE4dumpEicbNS0_6detail15error_handler_tE.cold.1, symObjAddr: 0x21990, symBinAddr: 0xE44800, symSize: 0x20 }
  - { offset: 0x1F1D2F, size: 0x8, addend: 0x0, symName: __ZNK8nlohmann16json_abi_v3_11_210basic_jsonINSt3__13mapENS2_6vectorENS2_12basic_stringIcNS2_11char_traitsIcEENS2_9allocatorIcEEEEbxydS8_NS0_14adl_serializerENS4_IhNS8_IhEEEEE2atIRKPKcLi0EEERKSE_OT_, symObjAddr: 0x5870, symBinAddr: 0x24C60, symSize: 0x1D0 }
  - { offset: 0x1F28F3, size: 0x8, addend: 0x0, symName: __ZNK8nlohmann16json_abi_v3_11_210basic_jsonINSt3__13mapENS2_6vectorENS2_12basic_stringIcNS2_11char_traitsIcEENS2_9allocatorIcEEEEbxydS8_NS0_14adl_serializerENS4_IhNS8_IhEEEEE5valueIfRA6_KcfLi0EEET1_OT0_OT_, symObjAddr: 0x5C10, symBinAddr: 0x24E30, symSize: 0x1D0 }
  - { offset: 0x1F30CB, size: 0x8, addend: 0x0, symName: __ZNK8nlohmann16json_abi_v3_11_210basic_jsonINSt3__13mapENS2_6vectorENS2_12basic_stringIcNS2_11char_traitsIcEENS2_9allocatorIcEEEEbxydS8_NS0_14adl_serializerENS4_IhNS8_IhEEEEE5valueIfRA5_KcfLi0EEET1_OT0_OT_, symObjAddr: 0x5DE0, symBinAddr: 0x25000, symSize: 0x1D0 }
  - { offset: 0x1F4122, size: 0x8, addend: 0x0, symName: __ZNK8nlohmann16json_abi_v3_11_210basic_jsonINSt3__13mapENS2_6vectorENS2_12basic_stringIcNS2_11char_traitsIcEENS2_9allocatorIcEEEEbxydS8_NS0_14adl_serializerENS4_IhNS8_IhEEEEE8containsIRKPKcLi0EEEbOT_, symObjAddr: 0x57E0, symBinAddr: 0x24BD0, symSize: 0x90 }
  - { offset: 0x1F43D6, size: 0x8, addend: 0x0, symName: __ZNSt3__16vectorIN7facesdk5LFaceENS_9allocatorIS2_EEE24__emplace_back_slow_pathIJEEEPS2_DpOT_, symObjAddr: 0x21240, symBinAddr: 0x3B710, symSize: 0x220 }
  - { offset: 0x1F69FE, size: 0x8, addend: 0x0, symName: __ZN9inference21InferenceRunnerParams11inout_paramIxEC2ERKNSt3__112basic_stringIcNS3_11char_traitsIcEENS3_9allocatorIcEEEERKNS3_6vectorIxNS7_IxEEEE, symObjAddr: 0x16070, symBinAddr: 0x31340, symSize: 0xD0 }
  - { offset: 0x1F6F23, size: 0x8, addend: 0x0, symName: __ZN7facesdk18FaceDetectorRetinaIN9inference18InferenceRunnerORTEEC2ERKNS_18FaceDetectorParamsENSt3__110unique_ptrINS1_15InferenceRunnerIS2_EENS7_14default_deleteISA_EEEERKNS_12PriorsConfigE, symObjAddr: 0x162C0, symBinAddr: 0x31580, symSize: 0x1C0 }
  - { offset: 0x1F79A1, size: 0x8, addend: 0x0, symName: __ZN9inference21InferenceRunnerParamsD2Ev, symObjAddr: 0x6790, symBinAddr: 0x251E0, symSize: 0xD0 }
  - { offset: 0x1F8177, size: 0x8, addend: 0x0, symName: __ZN7facesdk12PriorsConfigD1Ev, symObjAddr: 0x55D0, symBinAddr: 0x24A30, symSize: 0x90 }
  - { offset: 0x1F8684, size: 0x8, addend: 0x0, symName: __ZNSt3__16vectorINS0_IiNS_9allocatorIiEEEENS1_IS3_EEED1B8ne180100Ev, symObjAddr: 0x5560, symBinAddr: 0x249C0, symSize: 0x70 }
  - { offset: 0x1F8913, size: 0x8, addend: 0x0, symName: __ZN7facesdk16initFaceDetectorEv.cold.1, symObjAddr: 0x219B0, symBinAddr: 0xE44820, symSize: 0x50 }
  - { offset: 0x1F8B88, size: 0x8, addend: 0x0, symName: __ZN9inference21InferenceRunnerParams11inout_paramIxED1Ev, symObjAddr: 0x5520, symBinAddr: 0x24980, symSize: 0x40 }
  - { offset: 0x1F9259, size: 0x8, addend: 0x0, symName: __ZN7facesdk21initOcclusionDetectorEv.cold.1, symObjAddr: 0x21A00, symBinAddr: 0xE44870, symSize: 0x30 }
  - { offset: 0x1FAFBB, size: 0x8, addend: 0x0, symName: _process, symObjAddr: 0x6090, symBinAddr: 0x251D0, symSize: 0x10 }
  - { offset: 0x1FEB54, size: 0x8, addend: 0x0, symName: __ZN8nlohmann16json_abi_v3_11_210basic_jsonINSt3__13mapENS2_6vectorENS2_12basic_stringIcNS2_11char_traitsIcEENS2_9allocatorIcEEEEbxydS8_NS0_14adl_serializerENS4_IhNS8_IhEEEEE6createISA_JRA1_KcEEEPT_DpOT0_, symObjAddr: 0x7F20, symBinAddr: 0x254E0, symSize: 0xD0 }
  - { offset: 0x2002A6, size: 0x8, addend: 0x0, symName: __ZN8nlohmann16json_abi_v3_11_26detail6parserINS0_10basic_jsonINSt3__13mapENS4_6vectorENS4_12basic_stringIcNS4_11char_traitsIcEENS4_9allocatorIcEEEEbxydSA_NS0_14adl_serializerENS6_IhNSA_IhEEEEEENS1_22iterator_input_adapterIPKcEEE18sax_parse_internalINS1_19json_sax_dom_parserISG_EEEEbPT_, symObjAddr: 0xCDD0, symBinAddr: 0x293F0, symSize: 0xE00 }
  - { offset: 0x202244, size: 0x8, addend: 0x0, symName: __ZN8nlohmann16json_abi_v3_11_26detail5lexerINS0_10basic_jsonINSt3__13mapENS4_6vectorENS4_12basic_stringIcNS4_11char_traitsIcEENS4_9allocatorIcEEEEbxydSA_NS0_14adl_serializerENS6_IhNSA_IhEEEEEENS1_22iterator_input_adapterIPKcEEE4scanEv, symObjAddr: 0x8FB0, symBinAddr: 0x25F60, symSize: 0x3F0 }
  - { offset: 0x202572, size: 0x8, addend: 0x0, symName: __ZN8nlohmann16json_abi_v3_11_26detail28json_sax_dom_callback_parserINS0_10basic_jsonINSt3__13mapENS4_6vectorENS4_12basic_stringIcNS4_11char_traitsIcEENS4_9allocatorIcEEEEbxydSA_NS0_14adl_serializerENS6_IhNSA_IhEEEEEEEC2ERSG_NS4_8functionIFbiNS1_13parse_event_tESI_EEEb, symObjAddr: 0xDC20, symBinAddr: 0x2A240, symSize: 0x1C0 }
  - { offset: 0x202B9F, size: 0x8, addend: 0x0, symName: __ZN8nlohmann16json_abi_v3_11_26detail6parserINS0_10basic_jsonINSt3__13mapENS4_6vectorENS4_12basic_stringIcNS4_11char_traitsIcEENS4_9allocatorIcEEEEbxydSA_NS0_14adl_serializerENS6_IhNSA_IhEEEEEENS1_22iterator_input_adapterIPKcEEE18sax_parse_internalINS1_28json_sax_dom_callback_parserISG_EEEEbPT_, symObjAddr: 0xB820, symBinAddr: 0x28080, symSize: 0xE50 }
  - { offset: 0x204AB2, size: 0x8, addend: 0x0, symName: __ZN8nlohmann16json_abi_v3_11_26detail6parserINS0_10basic_jsonINSt3__13mapENS4_6vectorENS4_12basic_stringIcNS4_11char_traitsIcEENS4_9allocatorIcEEEEbxydSA_NS0_14adl_serializerENS6_IhNSA_IhEEEEEENS1_22iterator_input_adapterIPKcEEE17exception_messageENS1_10lexer_baseISG_E10token_typeERKSC_, symObjAddr: 0xC9B0, symBinAddr: 0x29000, symSize: 0x3F0 }
  - { offset: 0x20678B, size: 0x8, addend: 0x0, symName: __ZN8nlohmann16json_abi_v3_11_26detail28json_sax_dom_callback_parserINS0_10basic_jsonINSt3__13mapENS4_6vectorENS4_12basic_stringIcNS4_11char_traitsIcEENS4_9allocatorIcEEEEbxydSA_NS0_14adl_serializerENS6_IhNSA_IhEEEEEEED2Ev, symObjAddr: 0x11600, symBinAddr: 0x2CF60, symSize: 0xA0 }
  - { offset: 0x2074D3, size: 0x8, addend: 0x0, symName: __ZN8nlohmann16json_abi_v3_11_26detail5lexerINS0_10basic_jsonINSt3__13mapENS4_6vectorENS4_12basic_stringIcNS4_11char_traitsIcEENS4_9allocatorIcEEEEbxydSA_NS0_14adl_serializerENS6_IhNSA_IhEEEEEENS1_22iterator_input_adapterIPKcEEE12scan_commentEv, symObjAddr: 0x9710, symBinAddr: 0x26350, symSize: 0xE0 }
  - { offset: 0x2075C5, size: 0x8, addend: 0x0, symName: __ZN8nlohmann16json_abi_v3_11_26detail5lexerINS0_10basic_jsonINSt3__13mapENS4_6vectorENS4_12basic_stringIcNS4_11char_traitsIcEENS4_9allocatorIcEEEEbxydSA_NS0_14adl_serializerENS6_IhNSA_IhEEEEEENS1_22iterator_input_adapterIPKcEEE11scan_numberEv, symObjAddr: 0xADB0, symBinAddr: 0x279F0, symSize: 0x690 }
  - { offset: 0x2083EB, size: 0x8, addend: 0x0, symName: __ZN8nlohmann16json_abi_v3_11_26detail5lexerINS0_10basic_jsonINSt3__13mapENS4_6vectorENS4_12basic_stringIcNS4_11char_traitsIcEENS4_9allocatorIcEEEEbxydSA_NS0_14adl_serializerENS6_IhNSA_IhEEEEEENS1_22iterator_input_adapterIPKcEEE11scan_stringEv, symObjAddr: 0x97F0, symBinAddr: 0x26430, symSize: 0x15C0 }
  - { offset: 0x20A72E, size: 0x8, addend: 0x0, symName: __ZN8nlohmann16json_abi_v3_11_26detail28json_sax_dom_callback_parserINS0_10basic_jsonINSt3__13mapENS4_6vectorENS4_12basic_stringIcNS4_11char_traitsIcEENS4_9allocatorIcEEEEbxydSA_NS0_14adl_serializerENS6_IhNSA_IhEEEEEEE11start_arrayEm, symObjAddr: 0xE730, symBinAddr: 0x2AC20, symSize: 0x3B0 }
  - { offset: 0x20B0DE, size: 0x8, addend: 0x0, symName: __ZN8nlohmann16json_abi_v3_11_26detail28json_sax_dom_callback_parserINS0_10basic_jsonINSt3__13mapENS4_6vectorENS4_12basic_stringIcNS4_11char_traitsIcEENS4_9allocatorIcEEEEbxydSA_NS0_14adl_serializerENS6_IhNSA_IhEEEEEEE12start_objectEm, symObjAddr: 0xDF10, symBinAddr: 0x2A400, symSize: 0x3B0 }
  - { offset: 0x20BA8E, size: 0x8, addend: 0x0, symName: __ZN8nlohmann16json_abi_v3_11_26detail28json_sax_dom_callback_parserINS0_10basic_jsonINSt3__13mapENS4_6vectorENS4_12basic_stringIcNS4_11char_traitsIcEENS4_9allocatorIcEEEEbxydSA_NS0_14adl_serializerENS6_IhNSA_IhEEEEEEE3keyERSC_, symObjAddr: 0xE520, symBinAddr: 0x2AA10, symSize: 0x210 }
  - { offset: 0x20C1FA, size: 0x8, addend: 0x0, symName: __ZN8nlohmann16json_abi_v3_11_26detail28json_sax_dom_callback_parserINS0_10basic_jsonINSt3__13mapENS4_6vectorENS4_12basic_stringIcNS4_11char_traitsIcEENS4_9allocatorIcEEEEbxydSA_NS0_14adl_serializerENS6_IhNSA_IhEEEEEEE10end_objectEv, symObjAddr: 0xE2C0, symBinAddr: 0x2A7B0, symSize: 0x260 }
  - { offset: 0x20CAA5, size: 0x8, addend: 0x0, symName: __ZN8nlohmann16json_abi_v3_11_26detail28json_sax_dom_callback_parserINS0_10basic_jsonINSt3__13mapENS4_6vectorENS4_12basic_stringIcNS4_11char_traitsIcEENS4_9allocatorIcEEEEbxydSA_NS0_14adl_serializerENS6_IhNSA_IhEEEEEEE9end_arrayEv, symObjAddr: 0xEAE0, symBinAddr: 0x2AFD0, symSize: 0x130 }
  - { offset: 0x20CEEB, size: 0x8, addend: 0x0, symName: __ZN8nlohmann16json_abi_v3_11_26detail28json_sax_dom_callback_parserINS0_10basic_jsonINSt3__13mapENS4_6vectorENS4_12basic_stringIcNS4_11char_traitsIcEENS4_9allocatorIcEEEEbxydSA_NS0_14adl_serializerENS6_IhNSA_IhEEEEEEE12handle_valueIRxEENS4_4pairIbPSG_EEOT_b, symObjAddr: 0x10B00, symBinAddr: 0x2C8F0, symSize: 0x1F0 }
  - { offset: 0x20D5EE, size: 0x8, addend: 0x0, symName: __ZN8nlohmann16json_abi_v3_11_26detail28json_sax_dom_callback_parserINS0_10basic_jsonINSt3__13mapENS4_6vectorENS4_12basic_stringIcNS4_11char_traitsIcEENS4_9allocatorIcEEEEbxydSA_NS0_14adl_serializerENS6_IhNSA_IhEEEEEEE12handle_valueIRdEENS4_4pairIbPSG_EEOT_b, symObjAddr: 0x10530, symBinAddr: 0x2C320, symSize: 0x1F0 }
  - { offset: 0x20DCF1, size: 0x8, addend: 0x0, symName: __ZN8nlohmann16json_abi_v3_11_26detail28json_sax_dom_callback_parserINS0_10basic_jsonINSt3__13mapENS4_6vectorENS4_12basic_stringIcNS4_11char_traitsIcEENS4_9allocatorIcEEEEbxydSA_NS0_14adl_serializerENS6_IhNSA_IhEEEEEEE12handle_valueIRSC_EENS4_4pairIbPSG_EEOT_b, symObjAddr: 0x10CF0, symBinAddr: 0x2CAE0, symSize: 0x240 }
  - { offset: 0x20E6AD, size: 0x8, addend: 0x0, symName: __ZN8nlohmann16json_abi_v3_11_26detail28json_sax_dom_callback_parserINS0_10basic_jsonINSt3__13mapENS4_6vectorENS4_12basic_stringIcNS4_11char_traitsIcEENS4_9allocatorIcEEEEbxydSA_NS0_14adl_serializerENS6_IhNSA_IhEEEEEEE12handle_valueIDnEENS4_4pairIbPSG_EEOT_b, symObjAddr: 0x10910, symBinAddr: 0x2C700, symSize: 0x1F0 }
  - { offset: 0x20ED74, size: 0x8, addend: 0x0, symName: __ZN8nlohmann16json_abi_v3_11_26detail28json_sax_dom_callback_parserINS0_10basic_jsonINSt3__13mapENS4_6vectorENS4_12basic_stringIcNS4_11char_traitsIcEENS4_9allocatorIcEEEEbxydSA_NS0_14adl_serializerENS6_IhNSA_IhEEEEEEE12handle_valueIRbEENS4_4pairIbPSG_EEOT_b, symObjAddr: 0x10720, symBinAddr: 0x2C510, symSize: 0x1F0 }
  - { offset: 0x20F46F, size: 0x8, addend: 0x0, symName: __ZN8nlohmann16json_abi_v3_11_26detail28json_sax_dom_callback_parserINS0_10basic_jsonINSt3__13mapENS4_6vectorENS4_12basic_stringIcNS4_11char_traitsIcEENS4_9allocatorIcEEEEbxydSA_NS0_14adl_serializerENS6_IhNSA_IhEEEEEEE12handle_valueIRyEENS4_4pairIbPSG_EEOT_b, symObjAddr: 0x10F30, symBinAddr: 0x2CD20, symSize: 0x1F0 }
  - { offset: 0x20FB72, size: 0x8, addend: 0x0, symName: __ZNK8nlohmann16json_abi_v3_11_26detail5lexerINS0_10basic_jsonINSt3__13mapENS4_6vectorENS4_12basic_stringIcNS4_11char_traitsIcEENS4_9allocatorIcEEEEbxydSA_NS0_14adl_serializerENS6_IhNSA_IhEEEEEENS1_22iterator_input_adapterIPKcEEE16get_token_stringEv, symObjAddr: 0xC6C0, symBinAddr: 0x28F20, symSize: 0xE0 }
  - { offset: 0x20FE35, size: 0x8, addend: 0x0, symName: __ZN8nlohmann16json_abi_v3_11_26detail28json_sax_dom_callback_parserINS0_10basic_jsonINSt3__13mapENS4_6vectorENS4_12basic_stringIcNS4_11char_traitsIcEENS4_9allocatorIcEEEEbxydSA_NS0_14adl_serializerENS6_IhNSA_IhEEEEEEE11parse_errorINS1_11parse_errorEEEbmRKSC_RKT_, symObjAddr: 0xC670, symBinAddr: 0x28ED0, symSize: 0x50 }
  - { offset: 0x210666, size: 0x8, addend: 0x0, symName: __ZN8nlohmann16json_abi_v3_11_26detail28json_sax_dom_callback_parserINS0_10basic_jsonINSt3__13mapENS4_6vectorENS4_12basic_stringIcNS4_11char_traitsIcEENS4_9allocatorIcEEEEbxydSA_NS0_14adl_serializerENS6_IhNSA_IhEEEEEEE11parse_errorINS1_12out_of_rangeEEEbmRKSC_RKT_, symObjAddr: 0xEC10, symBinAddr: 0x2B100, symSize: 0x50 }
  - { offset: 0x2106EC, size: 0x8, addend: 0x0, symName: __ZN8nlohmann16json_abi_v3_11_26detail28json_sax_dom_callback_parserINS0_10basic_jsonINSt3__13mapENS4_6vectorENS4_12basic_stringIcNS4_11char_traitsIcEENS4_9allocatorIcEEEEbxydSA_NS0_14adl_serializerENS6_IhNSA_IhEEEEEEE12start_objectEm, symObjAddr: 0xDF10, symBinAddr: 0x2A400, symSize: 0x3B0 }
  - { offset: 0x2106F7, size: 0x8, addend: 0x0, symName: __ZN8nlohmann16json_abi_v3_11_26detail11parse_errorC1ERKS2_, symObjAddr: 0x11120, symBinAddr: 0x2CF10, symSize: 0x50 }
  - { offset: 0x210C58, size: 0x8, addend: 0x0, symName: __ZN8nlohmann16json_abi_v3_11_26detail19json_sax_dom_parserINS0_10basic_jsonINSt3__13mapENS4_6vectorENS4_12basic_stringIcNS4_11char_traitsIcEENS4_9allocatorIcEEEEbxydSA_NS0_14adl_serializerENS6_IhNSA_IhEEEEEEE11start_arrayEm, symObjAddr: 0x119A0, symBinAddr: 0x2D300, symSize: 0x300 }
  - { offset: 0x211408, size: 0x8, addend: 0x0, symName: __ZN8nlohmann16json_abi_v3_11_26detail19json_sax_dom_parserINS0_10basic_jsonINSt3__13mapENS4_6vectorENS4_12basic_stringIcNS4_11char_traitsIcEENS4_9allocatorIcEEEEbxydSA_NS0_14adl_serializerENS6_IhNSA_IhEEEEEEE12start_objectEm, symObjAddr: 0x116A0, symBinAddr: 0x2D000, symSize: 0x300 }
  - { offset: 0x211BC8, size: 0x8, addend: 0x0, symName: __ZNSt3__16__treeINS_12__value_typeINS_12basic_stringIcNS_11char_traitsIcEENS_9allocatorIcEEEEN8nlohmann16json_abi_v3_11_210basic_jsonINS_3mapENS_6vectorES7_bxydS5_NS9_14adl_serializerENSC_IhNS5_IhEEEEEEEENS_19__map_value_compareIS7_SH_NS_4lessIvEELb1EEENS5_ISH_EEE25__emplace_unique_key_argsIS7_JRKNS_21piecewise_construct_tENS_5tupleIJRKS7_EEENSS_IJEEEEEENS_4pairINS_15__tree_iteratorISH_PNS_11__tree_nodeISH_PvEElEEbEERKT_DpOT0_, symObjAddr: 0x102A0, symBinAddr: 0x2C090, symSize: 0x1B0 }
  - { offset: 0x212367, size: 0x8, addend: 0x0, symName: __ZN8nlohmann16json_abi_v3_11_26detail19json_sax_dom_parserINS0_10basic_jsonINSt3__13mapENS4_6vectorENS4_12basic_stringIcNS4_11char_traitsIcEENS4_9allocatorIcEEEEbxydSA_NS0_14adl_serializerENS6_IhNSA_IhEEEEEEE12handle_valueIRdEEPSG_OT_, symObjAddr: 0x122A0, symBinAddr: 0x2DC00, symSize: 0xE0 }
  - { offset: 0x212869, size: 0x8, addend: 0x0, symName: __ZN8nlohmann16json_abi_v3_11_26detail19json_sax_dom_parserINS0_10basic_jsonINSt3__13mapENS4_6vectorENS4_12basic_stringIcNS4_11char_traitsIcEENS4_9allocatorIcEEEEbxydSA_NS0_14adl_serializerENS6_IhNSA_IhEEEEEEE12handle_valueIRxEEPSG_OT_, symObjAddr: 0x12950, symBinAddr: 0x2E2B0, symSize: 0xE0 }
  - { offset: 0x212D6B, size: 0x8, addend: 0x0, symName: __ZN8nlohmann16json_abi_v3_11_26detail19json_sax_dom_parserINS0_10basic_jsonINSt3__13mapENS4_6vectorENS4_12basic_stringIcNS4_11char_traitsIcEENS4_9allocatorIcEEEEbxydSA_NS0_14adl_serializerENS6_IhNSA_IhEEEEEEE12handle_valueIRSC_EEPSG_OT_, symObjAddr: 0x12B90, symBinAddr: 0x2E4F0, symSize: 0x1D0 }
  - { offset: 0x213A54, size: 0x8, addend: 0x0, symName: __ZN8nlohmann16json_abi_v3_11_26detail19json_sax_dom_parserINS0_10basic_jsonINSt3__13mapENS4_6vectorENS4_12basic_stringIcNS4_11char_traitsIcEENS4_9allocatorIcEEEEbxydSA_NS0_14adl_serializerENS6_IhNSA_IhEEEEEEE12handle_valueIDnEEPSG_OT_, symObjAddr: 0x12720, symBinAddr: 0x2E080, symSize: 0xE0 }
  - { offset: 0x213ECD, size: 0x8, addend: 0x0, symName: __ZN8nlohmann16json_abi_v3_11_26detail19json_sax_dom_parserINS0_10basic_jsonINSt3__13mapENS4_6vectorENS4_12basic_stringIcNS4_11char_traitsIcEENS4_9allocatorIcEEEEbxydSA_NS0_14adl_serializerENS6_IhNSA_IhEEEEEEE12handle_valueIRbEEPSG_OT_, symObjAddr: 0x124E0, symBinAddr: 0x2DE40, symSize: 0xE0 }
  - { offset: 0x2143C1, size: 0x8, addend: 0x0, symName: __ZN8nlohmann16json_abi_v3_11_26detail19json_sax_dom_parserINS0_10basic_jsonINSt3__13mapENS4_6vectorENS4_12basic_stringIcNS4_11char_traitsIcEENS4_9allocatorIcEEEEbxydSA_NS0_14adl_serializerENS6_IhNSA_IhEEEEEEE12handle_valueIRyEEPSG_OT_, symObjAddr: 0x12F80, symBinAddr: 0x2E8E0, symSize: 0xE0 }
  - { offset: 0x2148C3, size: 0x8, addend: 0x0, symName: __ZN8nlohmann16json_abi_v3_11_26detail19json_sax_dom_parserINS0_10basic_jsonINSt3__13mapENS4_6vectorENS4_12basic_stringIcNS4_11char_traitsIcEENS4_9allocatorIcEEEEbxydSA_NS0_14adl_serializerENS6_IhNSA_IhEEEEEEE11parse_errorINS1_11parse_errorEEEbmRKSC_RKT_, symObjAddr: 0xDBD0, symBinAddr: 0x2A1F0, symSize: 0x50 }
  - { offset: 0x214914, size: 0x8, addend: 0x0, symName: __ZN8nlohmann16json_abi_v3_11_26detail19json_sax_dom_parserINS0_10basic_jsonINSt3__13mapENS4_6vectorENS4_12basic_stringIcNS4_11char_traitsIcEENS4_9allocatorIcEEEEbxydSA_NS0_14adl_serializerENS6_IhNSA_IhEEEEEEE11parse_errorINS1_12out_of_rangeEEEbmRKSC_RKT_, symObjAddr: 0x11CA0, symBinAddr: 0x2D600, symSize: 0x50 }
  - { offset: 0x214F84, size: 0x8, addend: 0x0, symName: __ZN8nlohmann16json_abi_v3_11_26detail28json_sax_dom_callback_parserINS0_10basic_jsonINSt3__13mapENS4_6vectorENS4_12basic_stringIcNS4_11char_traitsIcEENS4_9allocatorIcEEEEbxydSA_NS0_14adl_serializerENS6_IhNSA_IhEEEEEEE12handle_valueINS1_7value_tEEENS4_4pairIbPSG_EEOT_b, symObjAddr: 0xEEC0, symBinAddr: 0x2B150, symSize: 0x2C0 }
  - { offset: 0x216198, size: 0x8, addend: 0x0, symName: __ZNKSt3__16vectorIPN8nlohmann16json_abi_v3_11_210basic_jsonINS_3mapES0_NS_12basic_stringIcNS_11char_traitsIcEENS_9allocatorIcEEEEbxydS8_NS2_14adl_serializerENS0_IhNS8_IhEEEEEENS8_ISF_EEE20__throw_length_errorB8ne180100Ev, symObjAddr: 0xF570, symBinAddr: 0x2B610, symSize: 0x10 }
  - { offset: 0x2163E2, size: 0x8, addend: 0x0, symName: __ZNK8nlohmann16json_abi_v3_11_26detail9iter_implINS0_10basic_jsonINSt3__13mapENS4_6vectorENS4_12basic_stringIcNS4_11char_traitsIcEENS4_9allocatorIcEEEEbxydSA_NS0_14adl_serializerENS6_IhNSA_IhEEEEEEEeqISH_LDn0EEEbRKT_, symObjAddr: 0xF990, symBinAddr: 0x2B9F0, symSize: 0xE0 }
  - { offset: 0x216625, size: 0x8, addend: 0x0, symName: __ZNK8nlohmann16json_abi_v3_11_26detail9iter_implINS0_10basic_jsonINSt3__13mapENS4_6vectorENS4_12basic_stringIcNS4_11char_traitsIcEENS4_9allocatorIcEEEEbxydSA_NS0_14adl_serializerENS6_IhNSA_IhEEEEEEEptEv, symObjAddr: 0xF5C0, symBinAddr: 0x2B620, symSize: 0xD0 }
  - { offset: 0x216830, size: 0x8, addend: 0x0, symName: __ZN8nlohmann16json_abi_v3_11_210basic_jsonINSt3__13mapENS2_6vectorENS2_12basic_stringIcNS2_11char_traitsIcEENS2_9allocatorIcEEEEbxydS8_NS0_14adl_serializerENS4_IhNS8_IhEEEEE5eraseINS0_6detail9iter_implISE_EELi0EEET_SJ_, symObjAddr: 0xF690, symBinAddr: 0x2B6F0, symSize: 0x300 }
  - { offset: 0x217260, size: 0x8, addend: 0x0, symName: __ZN8nlohmann16json_abi_v3_11_26detail12out_of_rangeC1ERKS2_, symObjAddr: 0x104F0, symBinAddr: 0x2C2E0, symSize: 0x40 }
  - { offset: 0x2175F9, size: 0x8, addend: 0x0, symName: __ZNSt3__16vectorIN8nlohmann16json_abi_v3_11_210basic_jsonINS_3mapES0_NS_12basic_stringIcNS_11char_traitsIcEENS_9allocatorIcEEEEbxydS8_NS2_14adl_serializerENS0_IhNS8_IhEEEEEENS8_ISE_EEE24__emplace_back_slow_pathIJSE_EEEPSE_DpOT_, symObjAddr: 0xF410, symBinAddr: 0x2B4B0, symSize: 0x160 }
  - { offset: 0x217BF1, size: 0x8, addend: 0x0, symName: __ZN8nlohmann16json_abi_v3_11_26detail16invalid_iterator6createIPNS0_10basic_jsonINSt3__13mapENS5_6vectorENS5_12basic_stringIcNS5_11char_traitsIcEENS5_9allocatorIcEEEEbxydSB_NS0_14adl_serializerENS7_IhNSB_IhEEEEEELi0EEES2_iRKSD_T_, symObjAddr: 0xFA70, symBinAddr: 0x2BAD0, symSize: 0x180 }
  - { offset: 0x218A3E, size: 0x8, addend: 0x0, symName: __ZNSt3__16__treeINS_12__value_typeINS_12basic_stringIcNS_11char_traitsIcEENS_9allocatorIcEEEEN8nlohmann16json_abi_v3_11_210basic_jsonINS_3mapENS_6vectorES7_bxydS5_NS9_14adl_serializerENSC_IhNS5_IhEEEEEEEENS_19__map_value_compareIS7_SH_NS_4lessIvEELb1EEENS5_ISH_EEE5eraseENS_21__tree_const_iteratorISH_PNS_11__tree_nodeISH_PvEElEE, symObjAddr: 0xFE60, symBinAddr: 0x2BC50, symSize: 0x90 }
  - { offset: 0x219689, size: 0x8, addend: 0x0, symName: __ZN8nlohmann16json_abi_v3_11_26detail19json_sax_dom_parserINS0_10basic_jsonINSt3__13mapENS4_6vectorENS4_12basic_stringIcNS4_11char_traitsIcEENS4_9allocatorIcEEEEbxydSA_NS0_14adl_serializerENS6_IhNSA_IhEEEEEEE12handle_valueINS1_7value_tEEEPSG_OT_, symObjAddr: 0x11CF0, symBinAddr: 0x2D650, symSize: 0x240 }
  - { offset: 0x21A1A7, size: 0x8, addend: 0x0, symName: __ZNSt3__16vectorIN8nlohmann16json_abi_v3_11_210basic_jsonINS_3mapES0_NS_12basic_stringIcNS_11char_traitsIcEENS_9allocatorIcEEEEbxydS8_NS2_14adl_serializerENS0_IhNS8_IhEEEEEENS8_ISE_EEE22__construct_one_at_endB8ne180100IJNS2_6detail7value_tEEEEvDpOT_, symObjAddr: 0x11F30, symBinAddr: 0x2D890, symSize: 0xF0 }
  - { offset: 0x21A71E, size: 0x8, addend: 0x0, symName: __ZNSt3__16vectorIN8nlohmann16json_abi_v3_11_210basic_jsonINS_3mapES0_NS_12basic_stringIcNS_11char_traitsIcEENS_9allocatorIcEEEEbxydS8_NS2_14adl_serializerENS0_IhNS8_IhEEEEEENS8_ISE_EEE24__emplace_back_slow_pathIJNS2_6detail7value_tEEEEPSE_DpOT_, symObjAddr: 0x12020, symBinAddr: 0x2D980, symSize: 0x280 }
  - { offset: 0x21B38D, size: 0x8, addend: 0x0, symName: __ZNSt3__16vectorIN8nlohmann16json_abi_v3_11_210basic_jsonINS_3mapES0_NS_12basic_stringIcNS_11char_traitsIcEENS_9allocatorIcEEEEbxydS8_NS2_14adl_serializerENS0_IhNS8_IhEEEEEENS8_ISE_EEE24__emplace_back_slow_pathIJRdEEEPSE_DpOT_, symObjAddr: 0x12380, symBinAddr: 0x2DCE0, symSize: 0x160 }
  - { offset: 0x21BA3A, size: 0x8, addend: 0x0, symName: __ZNSt3__16vectorIN8nlohmann16json_abi_v3_11_210basic_jsonINS_3mapES0_NS_12basic_stringIcNS_11char_traitsIcEENS_9allocatorIcEEEEbxydS8_NS2_14adl_serializerENS0_IhNS8_IhEEEEEENS8_ISE_EEE24__emplace_back_slow_pathIJRbEEEPSE_DpOT_, symObjAddr: 0x125C0, symBinAddr: 0x2DF20, symSize: 0x160 }
  - { offset: 0x21C0E5, size: 0x8, addend: 0x0, symName: __ZNSt3__16vectorIN8nlohmann16json_abi_v3_11_210basic_jsonINS_3mapES0_NS_12basic_stringIcNS_11char_traitsIcEENS_9allocatorIcEEEEbxydS8_NS2_14adl_serializerENS0_IhNS8_IhEEEEEENS8_ISE_EEE24__emplace_back_slow_pathIJDnEEEPSE_DpOT_, symObjAddr: 0x12800, symBinAddr: 0x2E160, symSize: 0x150 }
  - { offset: 0x21C760, size: 0x8, addend: 0x0, symName: __ZNSt3__16vectorIN8nlohmann16json_abi_v3_11_210basic_jsonINS_3mapES0_NS_12basic_stringIcNS_11char_traitsIcEENS_9allocatorIcEEEEbxydS8_NS2_14adl_serializerENS0_IhNS8_IhEEEEEENS8_ISE_EEE24__emplace_back_slow_pathIJRxEEEPSE_DpOT_, symObjAddr: 0x12A30, symBinAddr: 0x2E390, symSize: 0x160 }
  - { offset: 0x21CE19, size: 0x8, addend: 0x0, symName: __ZNSt3__16vectorIN8nlohmann16json_abi_v3_11_210basic_jsonINS_3mapES0_NS_12basic_stringIcNS_11char_traitsIcEENS_9allocatorIcEEEEbxydS8_NS2_14adl_serializerENS0_IhNS8_IhEEEEEENS8_ISE_EEE24__emplace_back_slow_pathIJRSA_EEEPSE_DpOT_, symObjAddr: 0x12D60, symBinAddr: 0x2E6C0, symSize: 0x220 }
  - { offset: 0x21D852, size: 0x8, addend: 0x0, symName: __ZNSt3__16vectorIN8nlohmann16json_abi_v3_11_210basic_jsonINS_3mapES0_NS_12basic_stringIcNS_11char_traitsIcEENS_9allocatorIcEEEEbxydS8_NS2_14adl_serializerENS0_IhNS8_IhEEEEEENS8_ISE_EEE24__emplace_back_slow_pathIJRyEEEPSE_DpOT_, symObjAddr: 0x13060, symBinAddr: 0x2E9C0, symSize: 0x160 }
  - { offset: 0x21E720, size: 0x8, addend: 0x0, symName: __ZN8nlohmann16json_abi_v3_11_26detail10serializerINS0_10basic_jsonINSt3__13mapENS4_6vectorENS4_12basic_stringIcNS4_11char_traitsIcEENS4_9allocatorIcEEEEbxydSA_NS0_14adl_serializerENS6_IhNSA_IhEEEEEEE12dump_escapedERKSC_b, symObjAddr: 0x14540, symBinAddr: 0x2FE20, symSize: 0x670 }
  - { offset: 0x21EFDC, size: 0x8, addend: 0x0, symName: __ZNSt3__120__shared_ptr_emplaceIN8nlohmann16json_abi_v3_11_26detail21output_string_adapterIcNS_12basic_stringIcNS_11char_traitsIcEENS_9allocatorIcEEEEEENS8_ISB_EEED1Ev, symObjAddr: 0x14490, symBinAddr: 0x2FD70, symSize: 0x20 }
  - { offset: 0x21F034, size: 0x8, addend: 0x0, symName: __ZNSt3__120__shared_ptr_emplaceIN8nlohmann16json_abi_v3_11_26detail21output_string_adapterIcNS_12basic_stringIcNS_11char_traitsIcEENS_9allocatorIcEEEEEENS8_ISB_EEED0Ev, symObjAddr: 0x144B0, symBinAddr: 0x2FD90, symSize: 0x30 }
  - { offset: 0x21F122, size: 0x8, addend: 0x0, symName: __ZNSt3__120__shared_ptr_emplaceIN8nlohmann16json_abi_v3_11_26detail21output_string_adapterIcNS_12basic_stringIcNS_11char_traitsIcEENS_9allocatorIcEEEEEENS8_ISB_EEE16__on_zero_sharedEv, symObjAddr: 0x144E0, symBinAddr: 0x2FDC0, symSize: 0x10 }
  - { offset: 0x21F217, size: 0x8, addend: 0x0, symName: __ZNSt3__120__shared_ptr_emplaceIN8nlohmann16json_abi_v3_11_26detail21output_string_adapterIcNS_12basic_stringIcNS_11char_traitsIcEENS_9allocatorIcEEEEEENS8_ISB_EEE21__on_zero_shared_weakEv, symObjAddr: 0x144F0, symBinAddr: 0x2FDD0, symSize: 0x10 }
  - { offset: 0x21F30C, size: 0x8, addend: 0x0, symName: __ZN8nlohmann16json_abi_v3_11_26detail21output_string_adapterIcNSt3__112basic_stringIcNS3_11char_traitsIcEENS3_9allocatorIcEEEEE15write_characterEc, symObjAddr: 0x14500, symBinAddr: 0x2FDE0, symSize: 0x10 }
  - { offset: 0x21F341, size: 0x8, addend: 0x0, symName: __ZN8nlohmann16json_abi_v3_11_26detail21output_string_adapterIcNSt3__112basic_stringIcNS3_11char_traitsIcEENS3_9allocatorIcEEEEE16write_charactersEPKcm, symObjAddr: 0x14510, symBinAddr: 0x2FDF0, symSize: 0x10 }
  - { offset: 0x21F384, size: 0x8, addend: 0x0, symName: __ZN8nlohmann16json_abi_v3_11_26detail21output_string_adapterIcNSt3__112basic_stringIcNS3_11char_traitsIcEENS3_9allocatorIcEEEEED1Ev, symObjAddr: 0x14520, symBinAddr: 0x2FE00, symSize: 0x10 }
  - { offset: 0x21F3AF, size: 0x8, addend: 0x0, symName: __ZN8nlohmann16json_abi_v3_11_26detail21output_string_adapterIcNSt3__112basic_stringIcNS3_11char_traitsIcEENS3_9allocatorIcEEEEED0Ev, symObjAddr: 0x14530, symBinAddr: 0x2FE10, symSize: 0x10 }
  - { offset: 0x21FC60, size: 0x8, addend: 0x0, symName: __ZNSt3__16__treeINS_12__value_typeINS_12basic_stringIcNS_11char_traitsIcEENS_9allocatorIcEEEEN8nlohmann16json_abi_v3_11_210basic_jsonINS_3mapENS_6vectorES7_bxydS5_NS9_14adl_serializerENSC_IhNS5_IhEEEEEEEENS_19__map_value_compareIS7_SH_NS_4lessIvEELb1EEENS5_ISH_EEE4findIS7_EENS_15__tree_iteratorISH_PNS_11__tree_nodeISH_PvEElEERKT_, symObjAddr: 0x15DF0, symBinAddr: 0x311B0, symSize: 0x120 }
  - { offset: 0x220040, size: 0x8, addend: 0x0, symName: __ZNKSt3__16vectorIxNS_9allocatorIxEEE20__throw_length_errorB8ne180100Ev, symObjAddr: 0x16060, symBinAddr: 0x31330, symSize: 0x10 }
  - { offset: 0x22006A, size: 0x8, addend: 0x0, symName: __ZN9inference21InferenceRunnerParams11inout_paramIxEC2ERKNSt3__112basic_stringIcNS3_11char_traitsIcEENS3_9allocatorIcEEEERKNS3_6vectorIxNS7_IxEEEE, symObjAddr: 0x16070, symBinAddr: 0x31340, symSize: 0xD0 }
  - { offset: 0x22021B, size: 0x8, addend: 0x0, symName: __ZN9inference21InferenceRunnerParams11inout_paramIxEC2ERKNSt3__112basic_stringIcNS3_11char_traitsIcEENS3_9allocatorIcEEEERKNS3_6vectorIxNS7_IxEEEE.cold.1, symObjAddr: 0x21A30, symBinAddr: 0xE448A0, symSize: 0x20 }
  - { offset: 0x22031F, size: 0x8, addend: 0x0, symName: __ZNKSt3__16vectorINS0_IiNS_9allocatorIiEEEENS1_IS3_EEE20__throw_length_errorB8ne180100Ev, symObjAddr: 0x16140, symBinAddr: 0x31410, symSize: 0x10 }
  - { offset: 0x220349, size: 0x8, addend: 0x0, symName: __ZNSt3__135__uninitialized_allocator_copy_implB8ne180100INS_9allocatorINS_6vectorIiNS1_IiEEEEEEPKS4_S7_PS4_EET2_RT_T0_T1_S9_, symObjAddr: 0x16150, symBinAddr: 0x31420, symSize: 0x110 }
  - { offset: 0x2205AF, size: 0x8, addend: 0x0, symName: __ZNSt3__128__exception_guard_exceptionsINS_29_AllocatorDestroyRangeReverseINS_9allocatorINS_6vectorIiNS2_IiEEEEEEPS5_EEED1B8ne180100Ev, symObjAddr: 0x16260, symBinAddr: 0x31530, symSize: 0x50 }
  - { offset: 0x2207FF, size: 0x8, addend: 0x0, symName: __ZN7facesdk18FaceDetectorRetinaIN9inference18InferenceRunnerORTEEC2ERKNS_18FaceDetectorParamsENSt3__110unique_ptrINS1_15InferenceRunnerIS2_EENS7_14default_deleteISA_EEEERKNS_12PriorsConfigE, symObjAddr: 0x162C0, symBinAddr: 0x31580, symSize: 0x1C0 }
  - { offset: 0x22096B, size: 0x8, addend: 0x0, symName: __ZN7facesdk12PriorsConfigC2ERKS0_, symObjAddr: 0x19A20, symBinAddr: 0x34CE0, symSize: 0x160 }
  - { offset: 0x224BC6, size: 0x8, addend: 0x0, symName: __ZNK7facesdk18FaceDetectorRetinaIN9inference18InferenceRunnerORTEE6detectERKN2cv3MatERNSt3__16vectorINS4_5Rect_IiEENS8_9allocatorISB_EEEERNS9_INS9_INS4_6Point_IiEENSC_ISH_EEEENSC_ISJ_EEEERNS9_INS9_IfNSC_IfEEEENSC_ISO_EEEE, symObjAddr: 0x16480, symBinAddr: 0x31740, symSize: 0x33D0 }
  - { offset: 0x22F0DA, size: 0x8, addend: 0x0, symName: __ZN9inference15InferenceRunnerINS_18InferenceRunnerORTEE3runIffEEbmRKNSt3__16vectorINS5_IT_NS4_9allocatorIS6_EEEENS7_IS9_EEEERNS5_INS5_IT0_NS7_ISE_EEEENS7_ISG_EEEE, symObjAddr: 0x1A600, symBinAddr: 0x358C0, symSize: 0xB0 }
  - { offset: 0x22F4FA, size: 0x8, addend: 0x0, symName: __ZN5Eigen15PlainObjectBaseINS_6MatrixIfLin1ELi1ELi0ELin1ELi1EEEE6resizeEll, symObjAddr: 0x1D040, symBinAddr: 0x382B0, symSize: 0xB0 }
  - { offset: 0x22F695, size: 0x8, addend: 0x0, symName: __ZN5Eigen12DenseStorageIfLin1ELin1ELin1ELi1EE6resizeElll, symObjAddr: 0x1D0F0, symBinAddr: 0x38360, symSize: 0x90 }
  - { offset: 0x22F7E3, size: 0x8, addend: 0x0, symName: __ZNK7facesdk18FaceDetectorRetinaIN9inference18InferenceRunnerORTEE14decodeLocationERKNSt3__16vectorIfNS4_9allocatorIfEEEERN5Eigen6MatrixIfLin1ELin1ELi0ELin1ELin1EEE, symObjAddr: 0x1A6B0, symBinAddr: 0x35970, symSize: 0x9D0 }
  - { offset: 0x23223D, size: 0x8, addend: 0x0, symName: __ZNK7facesdk18FaceDetectorRetinaIN9inference18InferenceRunnerORTEE15decodeLandmarksERKNSt3__16vectorIfNS4_9allocatorIfEEEERN5Eigen6MatrixIfLin1ELin1ELi0ELin1ELin1EEE, symObjAddr: 0x1B080, symBinAddr: 0x36340, symSize: 0x2A0 }
  - { offset: 0x23280A, size: 0x8, addend: 0x0, symName: __ZNSt3__16vectorINS0_IN2cv6Point_IiEENS_9allocatorIS3_EEEENS4_IS6_EEE21__push_back_slow_pathIRKS6_EEPS6_OT_, symObjAddr: 0x1E010, symBinAddr: 0x391E0, symSize: 0x330 }
  - { offset: 0x233223, size: 0x8, addend: 0x0, symName: __ZNSt3__16vectorINS0_IfNS_9allocatorIfEEEENS1_IS3_EEE21__push_back_slow_pathIRKS3_EEPS3_OT_, symObjAddr: 0x1E3B0, symBinAddr: 0x39520, symSize: 0x270 }
  - { offset: 0x233CEA, size: 0x8, addend: 0x0, symName: __ZNSt3__16vectorINS0_IN2cv6Point_IiEENS_9allocatorIS3_EEEENS4_IS6_EEE21__push_back_slow_pathIRKS6_EEPS6_OT_, symObjAddr: 0x1E010, symBinAddr: 0x391E0, symSize: 0x330 }
  - { offset: 0x233CF5, size: 0x8, addend: 0x0, symName: __ZNKSt3__16vectorIN2cv5Rect_IdEENS_9allocatorIS3_EEE20__throw_length_errorB8ne180100Ev, symObjAddr: 0x1DFE0, symBinAddr: 0x391C0, symSize: 0x10 }
  - { offset: 0x233D1F, size: 0x8, addend: 0x0, symName: __ZNKSt3__16vectorIN2cv5Rect_IiEENS_9allocatorIS3_EEE20__throw_length_errorB8ne180100Ev, symObjAddr: 0x1DFF0, symBinAddr: 0x391D0, symSize: 0x10 }
  - { offset: 0x233D2A, size: 0x8, addend: 0x0, symName: __ZNKSt3__16vectorIN2cv5Rect_IiEENS_9allocatorIS3_EEE20__throw_length_errorB8ne180100Ev, symObjAddr: 0x1DFF0, symBinAddr: 0x391D0, symSize: 0x10 }
  - { offset: 0x233D5F, size: 0x8, addend: 0x0, symName: __ZNSt3__16vectorIN2cv3MatENS_9allocatorIS2_EEED1B8ne180100Ev, symObjAddr: 0x1B320, symBinAddr: 0x365E0, symSize: 0x70 }
  - { offset: 0x233EF4, size: 0x8, addend: 0x0, symName: __ZN7facesdk18FaceDetectorRetinaIN9inference18InferenceRunnerORTEED1Ev, symObjAddr: 0x19850, symBinAddr: 0x34B10, symSize: 0xF0 }
  - { offset: 0x234641, size: 0x8, addend: 0x0, symName: __ZN7facesdk18FaceDetectorRetinaIN9inference18InferenceRunnerORTEED0Ev, symObjAddr: 0x19940, symBinAddr: 0x34C00, symSize: 0xE0 }
  - { offset: 0x234DC8, size: 0x8, addend: 0x0, symName: __ZNSt3__16vectorINS0_IiNS_9allocatorIiEEEENS1_IS3_EEEC2ERKS5_, symObjAddr: 0x19B80, symBinAddr: 0x34E40, symSize: 0xD0 }
  - { offset: 0x23512F, size: 0x8, addend: 0x0, symName: __ZNSt3__16vectorINS0_IiNS_9allocatorIiEEEENS1_IS3_EEEC2ERKS5_.cold.1, symObjAddr: 0x21AA0, symBinAddr: 0xE448C0, symSize: 0x50 }
  - { offset: 0x235A0C, size: 0x8, addend: 0x0, symName: __ZNSt3__16vectorIN2cv3MatENS_9allocatorIS2_EEE18__assign_with_sizeB8ne180100IPKS2_S8_EEvT_T0_l, symObjAddr: 0x1B3A0, symBinAddr: 0x36660, symSize: 0x2D0 }
  - { offset: 0x236553, size: 0x8, addend: 0x0, symName: __ZN9inference18InferenceRunnerORT3runIfffEEbmRKNSt3__16vectorINS3_IT_NS2_9allocatorIS4_EEEENS5_IS7_EEEERKNS3_INS3_IT0_NS5_ISC_EEEENS5_ISE_EEEERNS3_INS3_IT1_NS5_ISJ_EEEENS5_ISL_EEEE, symObjAddr: 0x1B7E0, symBinAddr: 0x36A50, symSize: 0x520 }
  - { offset: 0x238196, size: 0x8, addend: 0x0, symName: __ZN9inference15InferenceRunnerINS_18InferenceRunnerORTEE3runIffEEbmRKNSt3__16vectorINS5_IT_NS4_9allocatorIS6_EEEENS7_IS9_EEEERNS5_INS5_IT0_NS7_ISE_EEEENS7_ISG_EEEE.cold.1, symObjAddr: 0x21AF0, symBinAddr: 0xE44910, symSize: 0x50 }
  - { offset: 0x239EBA, size: 0x8, addend: 0x0, symName: __ZNKSt3__16vectorIN2cv3MatENS_9allocatorIS2_EEE20__throw_length_errorB8ne180100Ev, symObjAddr: 0x1B390, symBinAddr: 0x36650, symSize: 0x10 }
  - { offset: 0x239EE4, size: 0x8, addend: 0x0, symName: __ZNSt3__16vectorIN2cv3MatENS_9allocatorIS2_EEE18__assign_with_sizeB8ne180100IPKS2_S8_EEvT_T0_l, symObjAddr: 0x1B3A0, symBinAddr: 0x36660, symSize: 0x2D0 }
  - { offset: 0x23A09A, size: 0x8, addend: 0x0, symName: __ZNKSt3__16vectorINS0_IfNS_9allocatorIfEEEENS1_IS3_EEE20__throw_length_errorB8ne180100Ev, symObjAddr: 0x1B670, symBinAddr: 0x36930, symSize: 0x10 }
  - { offset: 0x23A0C4, size: 0x8, addend: 0x0, symName: __ZNSt3__135__uninitialized_allocator_copy_implB8ne180100INS_9allocatorINS_6vectorIfNS1_IfEEEEEEPKS4_S7_PS4_EET2_RT_T0_T1_S9_, symObjAddr: 0x1B680, symBinAddr: 0x36940, symSize: 0x110 }
  - { offset: 0x23A914, size: 0x8, addend: 0x0, symName: __ZNSt3__16vectorIN3Ort5ValueENS_9allocatorIS2_EEE24__emplace_back_slow_pathIJS2_EEEPS2_DpOT_, symObjAddr: 0x1C490, symBinAddr: 0x37700, symSize: 0x210 }
  - { offset: 0x23AF2D, size: 0x8, addend: 0x0, symName: __ZN9inference18InferenceRunnerORT3runIfEEbRNSt3__16vectorIN3Ort5ValueENS2_9allocatorIS5_EEEERNS3_INS3_IT_NS6_ISA_EEEENS6_ISC_EEEE, symObjAddr: 0x1BD00, symBinAddr: 0x36F70, symSize: 0x560 }
  - { offset: 0x23CAC7, size: 0x8, addend: 0x0, symName: __ZNSt3__16vectorIN3Ort5ValueENS_9allocatorIS2_EEED1B8ne180100Ev, symObjAddr: 0x1C260, symBinAddr: 0x374D0, symSize: 0x70 }
  - { offset: 0x23D5DF, size: 0x8, addend: 0x0, symName: __ZNSt3__16vectorIPKcNS_9allocatorIS2_EEE8__appendEmRKS2_, symObjAddr: 0x1C6B0, symBinAddr: 0x37920, symSize: 0x2F0 }
  - { offset: 0x23DBC4, size: 0x8, addend: 0x0, symName: __ZNSt3__16vectorIN3Ort5ValueENS_9allocatorIS2_EEE7reserveEm, symObjAddr: 0x1C9B0, symBinAddr: 0x37C20, symSize: 0x1C0 }
  - { offset: 0x23E063, size: 0x8, addend: 0x0, symName: __ZNSt3__16vectorIN3Ort5ValueENS_9allocatorIS2_EEE24__emplace_back_slow_pathIJDnEEEPS2_DpOT_, symObjAddr: 0x1CB70, symBinAddr: 0x37DE0, symSize: 0x200 }
  - { offset: 0x23E667, size: 0x8, addend: 0x0, symName: __ZNSt3__16vectorINS0_IfNS_9allocatorIfEEEENS1_IS3_EEE24__emplace_back_slow_pathIJRPfS7_EEEPS3_DpOT_, symObjAddr: 0x1CD70, symBinAddr: 0x37FE0, symSize: 0x270 }
  - { offset: 0x23F2D3, size: 0x8, addend: 0x0, symName: __ZN3Ort9ExceptionD1Ev, symObjAddr: 0x1C400, symBinAddr: 0x37670, symSize: 0x30 }
  - { offset: 0x23F442, size: 0x8, addend: 0x0, symName: __ZN3Ort9ExceptionD0Ev, symObjAddr: 0x1C430, symBinAddr: 0x376A0, symSize: 0x40 }
  - { offset: 0x23F5BA, size: 0x8, addend: 0x0, symName: __ZNK3Ort9Exception4whatEv, symObjAddr: 0x1C470, symBinAddr: 0x376E0, symSize: 0x20 }
  - { offset: 0x23F89C, size: 0x8, addend: 0x0, symName: __ZNKSt3__16vectorIN3Ort5ValueENS_9allocatorIS2_EEE20__throw_length_errorB8ne180100Ev, symObjAddr: 0x1C6A0, symBinAddr: 0x37910, symSize: 0x10 }
  - { offset: 0x23F8C6, size: 0x8, addend: 0x0, symName: __ZNSt3__16vectorIPKcNS_9allocatorIS2_EEE8__appendEmRKS2_, symObjAddr: 0x1C6B0, symBinAddr: 0x37920, symSize: 0x2F0 }
  - { offset: 0x23FCC9, size: 0x8, addend: 0x0, symName: __ZNKSt3__16vectorIPKcNS_9allocatorIS2_EEE20__throw_length_errorB8ne180100Ev, symObjAddr: 0x1C9A0, symBinAddr: 0x37C10, symSize: 0x10 }
  - { offset: 0x23FCF3, size: 0x8, addend: 0x0, symName: __ZNSt3__16vectorIN3Ort5ValueENS_9allocatorIS2_EEE7reserveEm, symObjAddr: 0x1C9B0, symBinAddr: 0x37C20, symSize: 0x1C0 }
  - { offset: 0x240074, size: 0x8, addend: 0x0, symName: __ZNSt3__114__split_bufferINS_6vectorIfNS_9allocatorIfEEEERNS2_IS4_EEED1Ev, symObjAddr: 0x1CFE0, symBinAddr: 0x38250, symSize: 0x60 }
  - { offset: 0x2418C9, size: 0x8, addend: 0x0, symName: __ZNKSt3__16vectorINS0_IN2cv6Point_IiEENS_9allocatorIS3_EEEENS4_IS6_EEE20__throw_length_errorB8ne180100Ev, symObjAddr: 0x1E3A0, symBinAddr: 0x39510, symSize: 0x10 }
  - { offset: 0x2418F3, size: 0x8, addend: 0x0, symName: __ZNSt3__16vectorINS0_IfNS_9allocatorIfEEEENS1_IS3_EEE21__push_back_slow_pathIRKS3_EEPS3_OT_, symObjAddr: 0x1E3B0, symBinAddr: 0x39520, symSize: 0x270 }
  - { offset: 0x241A97, size: 0x8, addend: 0x0, symName: __ZN7facesdk10ClassifierIN9inference18InferenceRunnerORTEhfED1Ev, symObjAddr: 0x1E620, symBinAddr: 0x39790, symSize: 0x50 }
  - { offset: 0x241C1D, size: 0x8, addend: 0x0, symName: __ZN7facesdk10ClassifierIN9inference18InferenceRunnerORTEhfED0Ev, symObjAddr: 0x1E670, symBinAddr: 0x397E0, symSize: 0x50 }
  - { offset: 0x2422A1, size: 0x8, addend: 0x0, symName: __ZNK7facesdk10ClassifierIN9inference18InferenceRunnerORTEhfE3runERKN2cv3MatERKNSt3__16vectorINS4_6Point_IiEENS8_9allocatorISB_EEEERNS9_IfNSC_IfEEEE, symObjAddr: 0x1E6C0, symBinAddr: 0x39830, symSize: 0x500 }
  - { offset: 0x2439C9, size: 0x8, addend: 0x0, symName: __ZN9inference15InferenceRunnerINS_18InferenceRunnerORTEE3runIhfEEbmRKNSt3__16vectorINS5_IT_NS4_9allocatorIS6_EEEENS7_IS9_EEEERNS5_INS5_IT0_NS7_ISE_EEEENS7_ISG_EEEE, symObjAddr: 0x1F4E0, symBinAddr: 0x3A650, symSize: 0xB0 }
  - { offset: 0x243DE9, size: 0x8, addend: 0x0, symName: __ZNSt3__16vectorIfNS_9allocatorIfEEE18__assign_with_sizeB8ne180100INS_11__wrap_iterIPKfEES8_EEvT_T0_l, symObjAddr: 0x1FC70, symBinAddr: 0x3AD20, symSize: 0x150 }
  - { offset: 0x245155, size: 0x8, addend: 0x0, symName: __ZN9inference18InferenceRunnerORT3runIhffEEbmRKNSt3__16vectorINS3_IT_NS2_9allocatorIS4_EEEENS5_IS7_EEEERKNS3_INS3_IT0_NS5_ISC_EEEENS5_ISE_EEEERNS3_INS3_IT1_NS5_ISJ_EEEENS5_ISL_EEEE, symObjAddr: 0x1F750, symBinAddr: 0x3A800, symSize: 0x520 }
  - { offset: 0x2474BB, size: 0x8, addend: 0x0, symName: __ZNK7facesdk19EyeLandmarkDetectorIN9inference18InferenceRunnerORTEE6detectERKN2cv3MatERNSt3__16vectorINS4_6Point_IiEENS8_9allocatorISB_EEEE, symObjAddr: 0x1FDC0, symBinAddr: 0x3AE70, symSize: 0x820 }
  - { offset: 0x249725, size: 0x8, addend: 0x0, symName: __ZNK7facesdk19EyeLandmarkDetectorIN9inference18InferenceRunnerORTEE6detectERKN2cv3MatERNSt3__16vectorINS4_6Point_IiEENS8_9allocatorISB_EEEE.cold.1, symObjAddr: 0x21BE0, symBinAddr: 0xE44960, symSize: 0x4F }
  - { offset: 0x2499B6, size: 0x8, addend: 0x0, symName: __ZN7facesdk19EyeLandmarkDetectorIN9inference18InferenceRunnerORTEED1Ev, symObjAddr: 0x205E0, symBinAddr: 0x3B690, symSize: 0x40 }
  - { offset: 0x249AAA, size: 0x8, addend: 0x0, symName: __ZN7facesdk19EyeLandmarkDetectorIN9inference18InferenceRunnerORTEED0Ev, symObjAddr: 0x20620, symBinAddr: 0x3B6D0, symSize: 0x40 }
  - { offset: 0x2C8EC9, size: 0x8, addend: 0x0, symName: __ZN5Eigen7umeyamaINS_6MatrixIfLi2ELi5ELi0ELi2ELi5EEES2_EENS_8internal29umeyama_transform_matrix_typeIT_T0_E4typeERKNS_10MatrixBaseIS5_EERKNS9_IS6_EEb, symObjAddr: 0x4BF0, symBinAddr: 0x3E6D0, symSize: 0x6A0 }
  - { offset: 0x2FDD4E, size: 0x8, addend: 0x0, symName: __ZNSt3__116__throw_bad_castB8ne180100Ev, symObjAddr: 0x82B0, symBinAddr: 0x41580, symSize: 0x40 }
  - { offset: 0x309382, size: 0x8, addend: 0x0, symName: __ZN7facesdk8readFileERKNSt3__112basic_stringIcNS0_11char_traitsIcEENS0_9allocatorIcEEEE, symObjAddr: 0x50, symBinAddr: 0x3BA90, symSize: 0x310 }
  - { offset: 0x3098E2, size: 0x8, addend: 0x0, symName: __ZN7facesdk19serializeCurrResultERNS_15LivenessSessionEPKNS_12LFrameResultE, symObjAddr: 0x6B0, symBinAddr: 0x3BF20, symSize: 0x260 }
  - { offset: 0x30A11D, size: 0x8, addend: 0x0, symName: __ZN7facesdk16serializeSessionERNS_15LivenessSessionE, symObjAddr: 0x910, symBinAddr: 0x3C180, symSize: 0x2B0 }
  - { offset: 0x30AC31, size: 0x8, addend: 0x0, symName: __ZN7facesdk10rectToJsonIiEEN8nlohmann16json_abi_v3_11_210basic_jsonINSt3__13mapENS4_6vectorENS4_12basic_stringIcNS4_11char_traitsIcEENS4_9allocatorIcEEEEbxydSA_NS2_14adl_serializerENS6_IhNSA_IhEEEEEERKN2cv5Rect_IT_EE, symObjAddr: 0xCD0, symBinAddr: 0x3C430, symSize: 0x180 }
  - { offset: 0x30B43A, size: 0x8, addend: 0x0, symName: __ZN7facesdk17generateDebugInfoERKNS_12LFrameResultERKNS_15LivenessSessionE, symObjAddr: 0xE50, symBinAddr: 0x3C5B0, symSize: 0x1D0 }
  - { offset: 0x30BBB2, size: 0x8, addend: 0x0, symName: __ZN7facesdk17frameResultToJsonERKNS_12LFrameResultERKNS_17FrameSavingParamsE, symObjAddr: 0x12D0, symBinAddr: 0x3C780, symSize: 0x6E0 }
  - { offset: 0x30DCB6, size: 0x8, addend: 0x0, symName: __ZN7facesdk13ellipseToJsonERKNS_8LEllipseE, symObjAddr: 0x19B0, symBinAddr: 0x3CE60, symSize: 0x1A0 }
  - { offset: 0x30E4D2, size: 0x8, addend: 0x0, symName: __ZN7facesdk11pointToJsonIiEEN8nlohmann16json_abi_v3_11_210basic_jsonINSt3__13mapENS4_6vectorENS4_12basic_stringIcNS4_11char_traitsIcEENS4_9allocatorIcEEEEbxydSA_NS2_14adl_serializerENS6_IhNSA_IhEEEEEERKN2cv6Point_IT_EE, symObjAddr: 0x1B50, symBinAddr: 0x3D000, symSize: 0xE0 }
  - { offset: 0x30E99E, size: 0x8, addend: 0x0, symName: __ZN7facesdk10faceToJsonERKNS_5LFaceE, symObjAddr: 0x1D60, symBinAddr: 0x3D0E0, symSize: 0x2B0 }
  - { offset: 0x30F244, size: 0x8, addend: 0x0, symName: __ZN7facesdk21faceOrientationToJsonENS_15LFaceOrienationE, symObjAddr: 0x2010, symBinAddr: 0x3D390, symSize: 0x150 }
  - { offset: 0x30F837, size: 0x8, addend: 0x0, symName: __ZN7facesdk9saveImageERKN2cv3MatERKNSt3__112basic_stringIcNS4_11char_traitsIcEENS4_9allocatorIcEEEERKNS4_6vectorIiNS8_IiEEEE, symObjAddr: 0x2160, symBinAddr: 0x3D4E0, symSize: 0x70 }
  - { offset: 0x30FA8A, size: 0x8, addend: 0x0, symName: __ZN7facesdk7calcFPSERKNS_15LivenessSessionE, symObjAddr: 0x2890, symBinAddr: 0x3D550, symSize: 0xC0 }
  - { offset: 0x30FC18, size: 0x8, addend: 0x0, symName: __ZN7facesdk6centerERKN2cv5Rect_IiEE, symObjAddr: 0x29A0, symBinAddr: 0x3D610, symSize: 0x30 }
  - { offset: 0x30FCC7, size: 0x8, addend: 0x0, symName: __ZN7facesdk15saveImageBase64ERKN2cv3MatERKNSt3__112basic_stringIcNS4_11char_traitsIcEENS4_9allocatorIcEEEERKNS4_6vectorIiNS8_IiEEEE, symObjAddr: 0x2B10, symBinAddr: 0x3D640, symSize: 0x120 }
  - { offset: 0x31024C, size: 0x8, addend: 0x0, symName: __ZN7facesdk11rotateImageERKN2cv3MatEi, symObjAddr: 0x2C70, symBinAddr: 0x3D7A0, symSize: 0xF0 }
  - { offset: 0x310570, size: 0x8, addend: 0x0, symName: __ZN7facesdk11createFrameEPvN2cv5Size_IiEEii, symObjAddr: 0x2D60, symBinAddr: 0x3D890, symSize: 0x100 }
  - { offset: 0x3107F1, size: 0x8, addend: 0x0, symName: __ZN7facesdk17findBestFaceIndexERKNSt3__16vectorIN2cv5Rect_IiEENS0_9allocatorIS4_EEEERKNS2_5Size_IiEE, symObjAddr: 0x2F60, symBinAddr: 0x3D990, symSize: 0x1D0 }
  - { offset: 0x310C5D, size: 0x8, addend: 0x0, symName: __ZN7facesdk11calcFaceBoxERKN2cv5Size_IiEERKNS0_6Point_IiEERKNS_15LStageConstantsE, symObjAddr: 0x3990, symBinAddr: 0x3DB90, symSize: 0x60 }
  - { offset: 0x310D0B, size: 0x8, addend: 0x0, symName: __ZN7facesdk11calcEllipseERKN2cv5Rect_IiEERKNS0_6Point_IiEERKNS_15LStageConstantsE, symObjAddr: 0x39F0, symBinAddr: 0x3DBF0, symSize: 0x50 }
  - { offset: 0x310DCC, size: 0x8, addend: 0x0, symName: __ZN7facesdk16getHeightOnFrameEfiff, symObjAddr: 0x3AC0, symBinAddr: 0x3DC40, symSize: 0x80 }
  - { offset: 0x310F49, size: 0x8, addend: 0x0, symName: __ZN7facesdk8calcBallERKNS_14LSessionParamsENS_15LFaceOrienationE, symObjAddr: 0x4110, symBinAddr: 0x3DCC0, symSize: 0x70 }
  - { offset: 0x311030, size: 0x8, addend: 0x0, symName: __ZN7facesdk15calcCroppedFaceERKN2cv3MatERKNSt3__16vectorINS0_6Point_IiEENS4_9allocatorIS7_EEEERKNS5_INS6_IdEENS8_ISD_EEEERKNS0_5Size_IiEE, symObjAddr: 0x4250, symBinAddr: 0x3DD30, symSize: 0x9A0 }
  - { offset: 0x312624, size: 0x8, addend: 0x0, symName: __ZN7facesdk15calcCroppedFaceERKN2cv3MatERKNSt3__16vectorINS0_6Point_IiEENS4_9allocatorIS7_EEEE, symObjAddr: 0x5290, symBinAddr: 0x3ED70, symSize: 0x190 }
  - { offset: 0x312D30, size: 0x8, addend: 0x0, symName: __ZN7facesdk23generateTargetExposuresEjjjj, symObjAddr: 0x5480, symBinAddr: 0x3EF00, symSize: 0x140 }
  - { offset: 0x313174, size: 0x8, addend: 0x0, symName: __ZN7facesdk20generateRandomNumberIiEET_S1_S1_, symObjAddr: 0x55C0, symBinAddr: 0x3F040, symSize: 0x140 }
  - { offset: 0x313775, size: 0x8, addend: 0x0, symName: __ZN7facesdk20generateRandomNumberIjEET_S1_S1_, symObjAddr: 0x5700, symBinAddr: 0x3F180, symSize: 0x140 }
  - { offset: 0x313D75, size: 0x8, addend: 0x0, symName: __ZN7facesdk16correctReadinessEf, symObjAddr: 0x5A40, symBinAddr: 0x3F2C0, symSize: 0xA0 }
  - { offset: 0x313DD6, size: 0x8, addend: 0x0, symName: __ZN7facesdk18calcLandmarkHeightERKNS_5LFaceE, symObjAddr: 0x5AE0, symBinAddr: 0x3F360, symSize: 0xC0 }
  - { offset: 0x313F2E, size: 0x8, addend: 0x0, symName: __ZN7facesdk17calcCurrentSectorERKN2cv6Point_IiEERKNS_14LSessionParamsEj, symObjAddr: 0x5BA0, symBinAddr: 0x3F420, symSize: 0x170 }
  - { offset: 0x314038, size: 0x8, addend: 0x0, symName: __ZN7facesdk14calcFaceHeightERKNSt3__16vectorIN2cv6Point_IiEENS0_9allocatorIS4_EEEE, symObjAddr: 0x5D10, symBinAddr: 0x3F590, symSize: 0xD0 }
  - { offset: 0x31427E, size: 0x8, addend: 0x0, symName: __ZN7facesdk17serializeDepthMapERKN2cv3MatERKNS0_5Size_IiEERKNS0_5Rect_IiEEjb, symObjAddr: 0x5DE0, symBinAddr: 0x3F660, symSize: 0x470 }
  - { offset: 0x315A75, size: 0x8, addend: 0x0, symName: __ZN7facesdk12compressDataEPKhmRKNSt3__112basic_stringIcNS2_11char_traitsIcEENS2_9allocatorIcEEEE, symObjAddr: 0x6250, symBinAddr: 0x3FAD0, symSize: 0x170 }
  - { offset: 0x315EE9, size: 0x8, addend: 0x0, symName: __ZN7facesdk13calcSharpnessERKN2cv3MatE, symObjAddr: 0x6980, symBinAddr: 0x3FDA0, symSize: 0x1D0 }
  - { offset: 0x316439, size: 0x8, addend: 0x0, symName: __ZN7facesdk7isEmptyEPKc, symObjAddr: 0x6B50, symBinAddr: 0x3FF70, symSize: 0x20 }
  - { offset: 0x316467, size: 0x8, addend: 0x0, symName: __ZN7facesdk21generateFakePublicKeyEv, symObjAddr: 0x6B70, symBinAddr: 0x3FF90, symSize: 0x240 }
  - { offset: 0x3170B1, size: 0x8, addend: 0x0, symName: __ZN7facesdk20generateRandomNumberIhEET_S1_S1_, symObjAddr: 0xFF50, symBinAddr: 0x43160, symSize: 0x140 }
  - { offset: 0x3176B1, size: 0x8, addend: 0x0, symName: __ZN7facesdk10calcSHA256ERKNSt3__16vectorIhNS0_9allocatorIhEEEE, symObjAddr: 0x6DB0, symBinAddr: 0x401D0, symSize: 0xE0 }
  - { offset: 0x317AB6, size: 0x8, addend: 0x0, symName: __ZN7facesdk14buildHistogramERKN2cv3MatES3_, symObjAddr: 0x6E90, symBinAddr: 0x402B0, symSize: 0x240 }
  - { offset: 0x3180B7, size: 0x8, addend: 0x0, symName: __ZN7facesdk27calcInjectionCheckPatchRectEN6common4type4spanIKN2cv6Point_IiEELm18446744073709551615EEEff, symObjAddr: 0x70D0, symBinAddr: 0x404F0, symSize: 0xC0 }
  - { offset: 0x3181C5, size: 0x8, addend: 0x0, symName: __ZN7facesdk11calcEyeRectERKN2cv6Point_IiEEi, symObjAddr: 0x7190, symBinAddr: 0x405B0, symSize: 0x60 }
  - { offset: 0x31825E, size: 0x8, addend: 0x0, symName: __ZN7facesdk18calcEyeAspectRatioEN6common4type4spanIKN2cv6Point_IiEELm18446744073709551615EEE, symObjAddr: 0x71F0, symBinAddr: 0x40610, symSize: 0x80 }
  - { offset: 0x3182CF, size: 0x8, addend: 0x0, symName: __ZN7facesdk8getValueERKN8nlohmann16json_abi_v3_11_210basic_jsonINSt3__13mapENS3_6vectorENS3_12basic_stringIcNS3_11char_traitsIcEENS3_9allocatorIcEEEEbxydS9_NS1_14adl_serializerENS5_IhNS9_IhEEEEEERKSB_SH_, symObjAddr: 0x7270, symBinAddr: 0x40690, symSize: 0x60 }
  - { offset: 0x3268F7, size: 0x8, addend: 0x0, symName: __ZNSt3__124uniform_int_distributionIiEclINS_23mersenne_twister_engineIjLm32ELm624ELm397ELm31ELj2567483615ELm11ELj4294967295ELm7ELj2636928640ELm15ELj4022730752ELm18ELj1812433253EEEEEiRT_RKNS1_10param_typeE, symObjAddr: 0xEF80, symBinAddr: 0x42CB0, symSize: 0x210 }
  - { offset: 0x326F3C, size: 0x8, addend: 0x0, symName: __ZNSt3__124uniform_int_distributionIhEclINS_23mersenne_twister_engineIjLm32ELm624ELm397ELm31ELj2567483615ELm11ELj4294967295ELm7ELj2636928640ELm15ELj4022730752ELm18ELj1812433253EEEEEhRT_RKNS1_10param_typeE, symObjAddr: 0x10090, symBinAddr: 0x432A0, symSize: 0x210 }
  - { offset: 0x3273C0, size: 0x8, addend: 0x0, symName: __ZNK7facesdk15LFaceOrienationltES0_, symObjAddr: 0x0, symBinAddr: 0x3BA40, symSize: 0x50 }
  - { offset: 0x32790D, size: 0x8, addend: 0x0, symName: __ZNSt3__113basic_filebufIcNS_11char_traitsIcEEEC2Ev, symObjAddr: 0x93D0, symBinAddr: 0x41770, symSize: 0x110 }
  - { offset: 0x3279F1, size: 0x8, addend: 0x0, symName: __ZNSt3__114basic_ifstreamIcNS_11char_traitsIcEEEC1ERKNS_12basic_stringIcS2_NS_9allocatorIcEEEEj, symObjAddr: 0x360, symBinAddr: 0x3BDA0, symSize: 0x120 }
  - { offset: 0x327C00, size: 0x8, addend: 0x0, symName: __ZNSt3__113basic_filebufIcNS_11char_traitsIcEEE4swapERS3_, symObjAddr: 0x96D0, symBinAddr: 0x41A70, symSize: 0x540 }
  - { offset: 0x32822C, size: 0x8, addend: 0x0, symName: __ZNSt3__113basic_filebufIcNS_11char_traitsIcEEED2Ev, symObjAddr: 0x7570, symBinAddr: 0x40840, symSize: 0xB0 }
  - { offset: 0x328336, size: 0x8, addend: 0x0, symName: __ZNSt3__16vectorIhNS_9allocatorIhEEE20__init_with_sentinelB8ne180100INS_19istreambuf_iteratorIcNS_11char_traitsIcEEEES8_EEvT_T0_, symObjAddr: 0x9C10, symBinAddr: 0x41FB0, symSize: 0x360 }
  - { offset: 0x328AFB, size: 0x8, addend: 0x0, symName: __ZNSt3__114basic_ifstreamIcNS_11char_traitsIcEEED1Ev, symObjAddr: 0x480, symBinAddr: 0x3BEC0, symSize: 0x60 }
  - { offset: 0x328C3F, size: 0x8, addend: 0x0, symName: __ZNSt3__113basic_filebufIcNS_11char_traitsIcEEE4openEPKcj, symObjAddr: 0x94E0, symBinAddr: 0x41880, symSize: 0x1F0 }
  - { offset: 0x32ECB2, size: 0x8, addend: 0x0, symName: __ZNSt3__16vectorIN8nlohmann16json_abi_v3_11_210basic_jsonINS_3mapES0_NS_12basic_stringIcNS_11char_traitsIcEENS_9allocatorIcEEEEbxydS8_NS2_14adl_serializerENS0_IhNS8_IhEEEEEENS8_ISE_EEEC2INS_11__wrap_iterIPKiEELi0EEET_SM_, symObjAddr: 0xD7D0, symBinAddr: 0x42310, symSize: 0xF0 }
  - { offset: 0x330C6B, size: 0x8, addend: 0x0, symName: __ZN6common6base647EncoderD1Ev, symObjAddr: 0x2C30, symBinAddr: 0x3D760, symSize: 0x40 }
  - { offset: 0x331179, size: 0x8, addend: 0x0, symName: __ZN2cv7MatExprD1Ev, symObjAddr: 0x3340, symBinAddr: 0x3DB60, symSize: 0x30 }
  - { offset: 0x3349EB, size: 0x8, addend: 0x0, symName: __ZN5Eigen9JacobiSVDINS_6MatrixIfLi2ELi2ELi0ELi2ELi2EEELi2EE7computeERKS2_j, symObjAddr: 0xE6D0, symBinAddr: 0x42400, symSize: 0x8B0 }
  - { offset: 0x3379F1, size: 0x8, addend: 0x0, symName: __ZN8nlohmann16json_abi_v3_11_210basic_jsonINSt3__13mapENS2_6vectorENS2_12basic_stringIcNS2_11char_traitsIcEENS2_9allocatorIcEEEEbxydS8_NS0_14adl_serializerENS4_IhNS8_IhEEEEE6binaryERKSD_, symObjAddr: 0x63C0, symBinAddr: 0x3FC40, symSize: 0xE0 }
  - { offset: 0x33847D, size: 0x8, addend: 0x0, symName: __ZNKSt3__111__copy_loopINS_17_ClassicAlgPolicyEEclB8ne180100IPhS4_NS_20back_insert_iteratorINS_6vectorIhNS_9allocatorIhEEEEEEEENS_4pairIT_T1_EESC_T0_SD_, symObjAddr: 0xF9F0, symBinAddr: 0x42EC0, symSize: 0x2A0 }
  - { offset: 0x338E95, size: 0x8, addend: 0x0, symName: __ZNSt3__119basic_ostringstreamIcNS_11char_traitsIcEENS_9allocatorIcEEED1Ev, symObjAddr: 0x6900, symBinAddr: 0x3FD20, symSize: 0x80 }
  - { offset: 0x33A188, size: 0x8, addend: 0x0, symName: __ZTv0_n24_NSt3__114basic_ifstreamIcNS_11char_traitsIcEEED1Ev, symObjAddr: 0x7420, symBinAddr: 0x406F0, symSize: 0x70 }
  - { offset: 0x33A20C, size: 0x8, addend: 0x0, symName: __ZNSt3__114basic_ifstreamIcNS_11char_traitsIcEEED0Ev, symObjAddr: 0x7490, symBinAddr: 0x40760, symSize: 0x60 }
  - { offset: 0x33A2B5, size: 0x8, addend: 0x0, symName: __ZTv0_n24_NSt3__114basic_ifstreamIcNS_11char_traitsIcEEED0Ev, symObjAddr: 0x74F0, symBinAddr: 0x407C0, symSize: 0x70 }
  - { offset: 0x33A355, size: 0x8, addend: 0x0, symName: __ZNSt3__113basic_filebufIcNS_11char_traitsIcEEED1Ev, symObjAddr: 0x7560, symBinAddr: 0x40830, symSize: 0x10 }
  - { offset: 0x33A38B, size: 0x8, addend: 0x0, symName: __ZNSt3__113basic_filebufIcNS_11char_traitsIcEEE4syncEv, symObjAddr: 0x7A80, symBinAddr: 0x40D50, symSize: 0x2E0 }
  - { offset: 0x33A63D, size: 0x8, addend: 0x0, symName: __ZNSt3__113basic_filebufIcNS_11char_traitsIcEEED0Ev, symObjAddr: 0x7620, symBinAddr: 0x408F0, symSize: 0x20 }
  - { offset: 0x33A6EF, size: 0x8, addend: 0x0, symName: __ZNSt3__113basic_filebufIcNS_11char_traitsIcEEE5imbueERKNS_6localeE, symObjAddr: 0x7640, symBinAddr: 0x40910, symSize: 0x100 }
  - { offset: 0x33A7C0, size: 0x8, addend: 0x0, symName: __ZNSt3__113basic_filebufIcNS_11char_traitsIcEEE6setbufEPcl, symObjAddr: 0x7740, symBinAddr: 0x40A10, symSize: 0x110 }
  - { offset: 0x33A89D, size: 0x8, addend: 0x0, symName: __ZNSt3__113basic_filebufIcNS_11char_traitsIcEEE7seekoffExNS_8ios_base7seekdirEj, symObjAddr: 0x7850, symBinAddr: 0x40B20, symSize: 0x130 }
  - { offset: 0x33AA55, size: 0x8, addend: 0x0, symName: __ZNSt3__113basic_filebufIcNS_11char_traitsIcEEE7seekposENS_4fposI11__mbstate_tEEj, symObjAddr: 0x7980, symBinAddr: 0x40C50, symSize: 0x100 }
  - { offset: 0x33ACCE, size: 0x8, addend: 0x0, symName: __ZNSt3__113basic_filebufIcNS_11char_traitsIcEEE9underflowEv, symObjAddr: 0x7D60, symBinAddr: 0x41030, symSize: 0x2D0 }
  - { offset: 0x33B06B, size: 0x8, addend: 0x0, symName: __ZNSt3__113basic_filebufIcNS_11char_traitsIcEEE9pbackfailEi, symObjAddr: 0x8030, symBinAddr: 0x41300, symSize: 0x50 }
  - { offset: 0x33B227, size: 0x8, addend: 0x0, symName: __ZNSt3__113basic_filebufIcNS_11char_traitsIcEEE8overflowEi, symObjAddr: 0x8080, symBinAddr: 0x41350, symSize: 0x230 }
  - { offset: 0x33B60C, size: 0x8, addend: 0x0, symName: __ZTv0_n24_NSt3__119basic_ostringstreamIcNS_11char_traitsIcEENS_9allocatorIcEEED1Ev, symObjAddr: 0x82F0, symBinAddr: 0x415C0, symSize: 0x90 }
  - { offset: 0x33B7AB, size: 0x8, addend: 0x0, symName: __ZNSt3__119basic_ostringstreamIcNS_11char_traitsIcEENS_9allocatorIcEEED0Ev, symObjAddr: 0x8380, symBinAddr: 0x41650, symSize: 0x80 }
  - { offset: 0x33B96F, size: 0x8, addend: 0x0, symName: __ZTv0_n24_NSt3__119basic_ostringstreamIcNS_11char_traitsIcEENS_9allocatorIcEEED0Ev, symObjAddr: 0x8400, symBinAddr: 0x416D0, symSize: 0xA0 }
  - { offset: 0x344D85, size: 0x8, addend: 0x0, symName: __ZN5boost16exception_detail37exception_ptr_static_exception_objectINS0_10bad_alloc_EE1eE, symObjAddr: 0x9430, symBinAddr: 0x1094ED8, symSize: 0x0 }
  - { offset: 0x34529E, size: 0x8, addend: 0x0, symName: __ZN5boost16exception_detail37exception_ptr_static_exception_objectINS0_14bad_exception_EE1eE, symObjAddr: 0x9448, symBinAddr: 0x1094EF0, symSize: 0x0 }
  - { offset: 0x34535A, size: 0x8, addend: 0x0, symName: __ZN5boost16exception_detail27get_static_exception_objectINS0_10bad_alloc_EEENS_13exception_ptrEv, symObjAddr: 0x29F0, symBinAddr: 0xD34BE0, symSize: 0x2B0 }
  - { offset: 0x345393, size: 0x8, addend: 0x0, symName: __ZZN5boost16exception_detail27get_static_exception_objectINS0_10bad_alloc_EEENS_13exception_ptrEvE2ep, symObjAddr: 0x9498, symBinAddr: 0x1094F40, symSize: 0x0 }
  - { offset: 0x345BEF, size: 0x8, addend: 0x0, symName: __ZN5boost16exception_detail27get_static_exception_objectINS0_14bad_exception_EEENS_13exception_ptrEv, symObjAddr: 0x2CE0, symBinAddr: 0xD34ED0, symSize: 0x280 }
  - { offset: 0x345C28, size: 0x8, addend: 0x0, symName: __ZZN5boost16exception_detail27get_static_exception_objectINS0_14bad_exception_EEENS_13exception_ptrEvE2ep, symObjAddr: 0x94B0, symBinAddr: 0x1094F58, symSize: 0x0 }
  - { offset: 0x346A64, size: 0x8, addend: 0x0, symName: __ZN5boost16exception_detail20copy_boost_exceptionEPNS_9exceptionEPKS1_, symObjAddr: 0x3740, symBinAddr: 0xD35910, symSize: 0xF0 }
  - { offset: 0x347C9D, size: 0x8, addend: 0x0, symName: __ZN5boost6detail12_GLOBAL__N_128current_thread_tls_init_flagE, symObjAddr: 0xBE2C8, symBinAddr: 0x1134338, symSize: 0x0 }
  - { offset: 0x347CBB, size: 0x8, addend: 0x0, symName: __ZN5boost6detail12_GLOBAL__N_122current_thread_tls_keyE, symObjAddr: 0xBE2D0, symBinAddr: 0x1134340, symSize: 0x0 }
  - { offset: 0x349098, size: 0x8, addend: 0x0, symName: __ZN5boost6detail23get_current_thread_dataEv, symObjAddr: 0x450, symBinAddr: 0xD32840, symSize: 0x80 }
  - { offset: 0x34911C, size: 0x8, addend: 0x0, symName: __ZN5boost6detail23set_current_thread_dataEPNS0_16thread_data_baseE, symObjAddr: 0x4D0, symBinAddr: 0xD328C0, symSize: 0x80 }
  - { offset: 0x349523, size: 0x8, addend: 0x0, symName: __ZN5boost6detail24add_thread_exit_functionEPNS0_25thread_exit_function_baseE, symObjAddr: 0x2060, symBinAddr: 0xD34380, symSize: 0x90 }
  - { offset: 0x349723, size: 0x8, addend: 0x0, symName: __ZN5boost6detail12get_tss_dataEPKv, symObjAddr: 0x2160, symBinAddr: 0xD34410, symSize: 0x70 }
  - { offset: 0x349976, size: 0x8, addend: 0x0, symName: __ZN5boost6detail16add_new_tss_nodeEPKvPFvPFvPvES3_ES5_S3_, symObjAddr: 0x21D0, symBinAddr: 0xD34480, symSize: 0x140 }
  - { offset: 0x349EAC, size: 0x8, addend: 0x0, symName: __ZN5boost6detail12set_tss_dataEPKvPFvPFvPvES3_ES5_S3_b, symObjAddr: 0x23D0, symBinAddr: 0xD345C0, symSize: 0x190 }
  - { offset: 0x34A5B2, size: 0x8, addend: 0x0, symName: __ZN5boost6detail25make_ready_at_thread_exitENS_10shared_ptrINS0_17shared_state_baseEEE, symObjAddr: 0x25A0, symBinAddr: 0xD34790, symSize: 0x100 }
  - { offset: 0x34AFD3, size: 0x8, addend: 0x0, symName: __ZN5boost6detail20sp_pointer_constructINS0_16thread_data_baseES2_EEvPNS_10shared_ptrIT_EEPT0_RNS0_12shared_countE, symObjAddr: 0x7030, symBinAddr: 0xD38D40, symSize: 0xD0 }
  - { offset: 0x34BC22, size: 0x8, addend: 0x0, symName: __ZN5boost6system6detail8snprintfEPcmPKcz, symObjAddr: 0x4E70, symBinAddr: 0xD36C90, symSize: 0xA0 }
  - { offset: 0x34BC2A, size: 0x8, addend: 0x0, symName: __ZN5boost11unique_lockINS_5mutexEE4lockEv, symObjAddr: 0x4F10, symBinAddr: 0xD36D30, symSize: 0xC0 }
  - { offset: 0x35529A, size: 0x8, addend: 0x0, symName: __ZN5boost11this_thread21no_interruption_point6hidden18sleep_for_internalERKNS_6detail17platform_durationE, symObjAddr: 0x1660, symBinAddr: 0xD33980, symSize: 0x20 }
  - { offset: 0x355350, size: 0x8, addend: 0x0, symName: __ZN5boost11this_thread5yieldEv, symObjAddr: 0x1680, symBinAddr: 0xD339A0, symSize: 0x20 }
  - { offset: 0x355371, size: 0x8, addend: 0x0, symName: __ZN5boost11this_thread18interruption_pointEv, symObjAddr: 0x1C30, symBinAddr: 0xD33F50, symSize: 0x150 }
  - { offset: 0x3556DD, size: 0x8, addend: 0x0, symName: __ZN5boost11this_thread20interruption_enabledEv, symObjAddr: 0x1D80, symBinAddr: 0xD340A0, symSize: 0x30 }
  - { offset: 0x355708, size: 0x8, addend: 0x0, symName: __ZN5boost11this_thread22interruption_requestedEv, symObjAddr: 0x1DB0, symBinAddr: 0xD340D0, symSize: 0x110 }
  - { offset: 0x355BD2, size: 0x8, addend: 0x0, symName: __ZN5boost25notify_all_at_thread_exitERNS_18condition_variableENS_11unique_lockINS_5mutexEEE, symObjAddr: 0x2560, symBinAddr: 0xD34750, symSize: 0x40 }
  - { offset: 0x355F14, size: 0x8, addend: 0x0, symName: __ZN5boost15throw_exceptionINS_12bad_weak_ptrEEEvRKT_, symObjAddr: 0x32A0, symBinAddr: 0xD35490, symSize: 0x60 }
  - { offset: 0x355FD3, size: 0x8, addend: 0x0, symName: __ZN5boost15throw_exceptionINS_15condition_errorEEEvRKT_, symObjAddr: 0x3D20, symBinAddr: 0xD35B40, symSize: 0x50 }
  - { offset: 0x356016, size: 0x8, addend: 0x0, symName: __ZN5boost15throw_exceptionINS_10lock_errorEEEvRKT_, symObjAddr: 0x4060, symBinAddr: 0xD35E80, symSize: 0x50 }
  - { offset: 0x3560B1, size: 0x8, addend: 0x0, symName: __ZN5boost15throw_exceptionINS_21thread_resource_errorEEEvRKT_, symObjAddr: 0x69C0, symBinAddr: 0xD386D0, symSize: 0x50 }
  - { offset: 0x369AE8, size: 0x8, addend: 0x0, symName: __ZN5boost6system6detail18generic_cat_holderIvE8instanceE, symObjAddr: 0x9460, symBinAddr: 0x1094F08, symSize: 0x0 }
  - { offset: 0x36BFA7, size: 0x8, addend: 0x0, symName: __ZNK5boost6system6detail22generic_error_category7messageEi, symObjAddr: 0x0, symBinAddr: 0xD32400, symSize: 0xC0 }
  - { offset: 0x36C5F9, size: 0x8, addend: 0x0, symName: __ZNK5boost6system14error_category23default_error_conditionEi, symObjAddr: 0xD0, symBinAddr: 0xD324C0, symSize: 0x10 }
  - { offset: 0x36CFF0, size: 0x8, addend: 0x0, symName: __ZN5boost6detail16thread_data_baseD2Ev, symObjAddr: 0xE0, symBinAddr: 0xD324D0, symSize: 0x2B0 }
  - { offset: 0x36DD26, size: 0x8, addend: 0x0, symName: __ZN5boost5mutexD1Ev, symObjAddr: 0x390, symBinAddr: 0xD32780, symSize: 0x30 }
  - { offset: 0x36DDAD, size: 0x8, addend: 0x0, symName: __ZN5boost10shared_ptrINS_6detail16thread_data_baseEED1Ev, symObjAddr: 0x3C0, symBinAddr: 0xD327B0, symSize: 0x40 }
  - { offset: 0x36DEDC, size: 0x8, addend: 0x0, symName: __ZN5boost23enable_shared_from_thisINS_6detail16thread_data_baseEED2Ev, symObjAddr: 0x400, symBinAddr: 0xD327F0, symSize: 0x30 }
  - { offset: 0x36DFD7, size: 0x8, addend: 0x0, symName: __ZN5boost6detail16thread_data_baseD1Ev, symObjAddr: 0x430, symBinAddr: 0xD32820, symSize: 0x10 }
  - { offset: 0x36E00D, size: 0x8, addend: 0x0, symName: __ZN5boost6detail16thread_data_baseD0Ev, symObjAddr: 0x440, symBinAddr: 0xD32830, symSize: 0x10 }
  - { offset: 0x36E201, size: 0x8, addend: 0x0, symName: __ZN5boost10shared_ptrINS_6detail16thread_data_baseEE5resetIS2_EEvPT_, symObjAddr: 0x5B0, symBinAddr: 0xD32940, symSize: 0xB0 }
  - { offset: 0x36E6D5, size: 0x8, addend: 0x0, symName: __ZN5boost6threadC2Ev, symObjAddr: 0x6D0, symBinAddr: 0xD329F0, symSize: 0x10 }
  - { offset: 0x36E7D8, size: 0x8, addend: 0x0, symName: __ZN5boost6threadC1Ev, symObjAddr: 0x6E0, symBinAddr: 0xD32A00, symSize: 0x10 }
  - { offset: 0x36EA44, size: 0x8, addend: 0x0, symName: __ZN5boost6thread21start_thread_noexceptEv, symObjAddr: 0x6F0, symBinAddr: 0xD32A10, symSize: 0xC0 }
  - { offset: 0x36F433, size: 0x8, addend: 0x0, symName: __ZN5boost12_GLOBAL__N_112thread_proxyEPv, symObjAddr: 0x7B0, symBinAddr: 0xD32AD0, symSize: 0x270 }
  - { offset: 0x36FD73, size: 0x8, addend: 0x0, symName: __ZN5boost6thread21start_thread_noexceptERKNS_17thread_attributesE, symObjAddr: 0xA20, symBinAddr: 0xD32D40, symSize: 0x190 }
  - { offset: 0x370683, size: 0x8, addend: 0x0, symName: __ZNK5boost6thread15get_thread_infoEv, symObjAddr: 0xBB0, symBinAddr: 0xD32ED0, symSize: 0x20 }
  - { offset: 0x37068B, size: 0x8, addend: 0x0, symName: __ZN5boost6thread13join_noexceptEv, symObjAddr: 0xBD0, symBinAddr: 0xD32EF0, symSize: 0x2F0 }
  - { offset: 0x370802, size: 0x8, addend: 0x0, symName: __ZN5boost6thread13join_noexceptEv, symObjAddr: 0xBD0, symBinAddr: 0xD32EF0, symSize: 0x2F0 }
  - { offset: 0x3713A3, size: 0x8, addend: 0x0, symName: __ZN5boost18condition_variable4waitERNS_11unique_lockINS_5mutexEEE, symObjAddr: 0xEC0, symBinAddr: 0xD331E0, symSize: 0x100 }
  - { offset: 0x371653, size: 0x8, addend: 0x0, symName: __ZN5boost11unique_lockINS_5mutexEED1Ev, symObjAddr: 0xFC0, symBinAddr: 0xD332E0, symSize: 0x30 }
  - { offset: 0x371731, size: 0x8, addend: 0x0, symName: __ZN5boost10lock_guardINS_5mutexEED1Ev, symObjAddr: 0xFF0, symBinAddr: 0xD33310, symSize: 0x30 }
  - { offset: 0x3717E2, size: 0x8, addend: 0x0, symName: __ZN5boost6thread26do_try_join_until_noexceptERKNS_6detail23real_platform_timepointERb, symObjAddr: 0x1020, symBinAddr: 0xD33340, symSize: 0x350 }
  - { offset: 0x37220F, size: 0x8, addend: 0x0, symName: __ZN5boost18condition_variable13do_wait_untilERNS_11unique_lockINS_5mutexEEERKNS_6detail23real_platform_timepointE, symObjAddr: 0x1370, symBinAddr: 0xD33690, symSize: 0x100 }
  - { offset: 0x3724D3, size: 0x8, addend: 0x0, symName: __ZNK5boost6thread8joinableEv, symObjAddr: 0x1470, symBinAddr: 0xD33790, symSize: 0x50 }
  - { offset: 0x37273F, size: 0x8, addend: 0x0, symName: __ZN5boost6thread6detachEv, symObjAddr: 0x14C0, symBinAddr: 0xD337E0, symSize: 0x1A0 }
  - { offset: 0x372CDA, size: 0x8, addend: 0x0, symName: __ZN5boost6thread20hardware_concurrencyEv, symObjAddr: 0x16A0, symBinAddr: 0xD339C0, symSize: 0x50 }
  - { offset: 0x372D1C, size: 0x8, addend: 0x0, symName: __ZN5boost6thread20physical_concurrencyEv, symObjAddr: 0x16F0, symBinAddr: 0xD33A10, symSize: 0x50 }
  - { offset: 0x372D5E, size: 0x8, addend: 0x0, symName: __ZN5boost6thread9interruptEv, symObjAddr: 0x1740, symBinAddr: 0xD33A60, symSize: 0x1E0 }
  - { offset: 0x373456, size: 0x8, addend: 0x0, symName: __ZN5boost7pthread25pthread_mutex_scoped_lockD1Ev, symObjAddr: 0x1920, symBinAddr: 0xD33C40, symSize: 0x40 }
  - { offset: 0x3734FD, size: 0x8, addend: 0x0, symName: __ZNK5boost6thread22interruption_requestedEv, symObjAddr: 0x1960, symBinAddr: 0xD33C80, symSize: 0x160 }
  - { offset: 0x373A7C, size: 0x8, addend: 0x0, symName: __ZN5boost6thread13native_handleEv, symObjAddr: 0x1AC0, symBinAddr: 0xD33DE0, symSize: 0x170 }
  - { offset: 0x374068, size: 0x8, addend: 0x0, symName: __ZN5boost11this_thread20disable_interruptionC2Ev, symObjAddr: 0x1EC0, symBinAddr: 0xD341E0, symSize: 0x50 }
  - { offset: 0x3740E7, size: 0x8, addend: 0x0, symName: __ZN5boost11this_thread20disable_interruptionC1Ev, symObjAddr: 0x1F10, symBinAddr: 0xD34230, symSize: 0x50 }
  - { offset: 0x374164, size: 0x8, addend: 0x0, symName: __ZN5boost11this_thread20disable_interruptionD2Ev, symObjAddr: 0x1F60, symBinAddr: 0xD34280, symSize: 0x30 }
  - { offset: 0x37416C, size: 0x8, addend: 0x0, symName: __ZN5boost11this_thread20disable_interruptionD1Ev, symObjAddr: 0x1F90, symBinAddr: 0xD342B0, symSize: 0x30 }
  - { offset: 0x3741B9, size: 0x8, addend: 0x0, symName: __ZN5boost11this_thread20disable_interruptionD1Ev, symObjAddr: 0x1F90, symBinAddr: 0xD342B0, symSize: 0x30 }
  - { offset: 0x3741C1, size: 0x8, addend: 0x0, symName: __ZN5boost11this_thread20restore_interruptionC2ERNS0_20disable_interruptionE, symObjAddr: 0x1FC0, symBinAddr: 0xD342E0, symSize: 0x20 }
  - { offset: 0x37423B, size: 0x8, addend: 0x0, symName: __ZN5boost11this_thread20restore_interruptionC2ERNS0_20disable_interruptionE, symObjAddr: 0x1FC0, symBinAddr: 0xD342E0, symSize: 0x20 }
  - { offset: 0x3742B7, size: 0x8, addend: 0x0, symName: __ZN5boost11this_thread20restore_interruptionC1ERNS0_20disable_interruptionE, symObjAddr: 0x1FE0, symBinAddr: 0xD34300, symSize: 0x20 }
  - { offset: 0x374336, size: 0x8, addend: 0x0, symName: __ZN5boost11this_thread20restore_interruptionD2Ev, symObjAddr: 0x2000, symBinAddr: 0xD34320, symSize: 0x30 }
  - { offset: 0x37438B, size: 0x8, addend: 0x0, symName: __ZN5boost11this_thread20restore_interruptionD1Ev, symObjAddr: 0x2030, symBinAddr: 0xD34350, symSize: 0x30 }
  - { offset: 0x374EF8, size: 0x8, addend: 0x0, symName: __ZN5boost10shared_ptrINS_6detail17shared_state_baseEED1Ev, symObjAddr: 0x26A0, symBinAddr: 0xD34890, symSize: 0x40 }
  - { offset: 0x37504F, size: 0x8, addend: 0x0, symName: __ZNK5boost6system14error_category10equivalentEiRKNS0_15error_conditionE, symObjAddr: 0x26E0, symBinAddr: 0xD348D0, symSize: 0x90 }
  - { offset: 0x3751D7, size: 0x8, addend: 0x0, symName: __ZNK5boost6system14error_category10equivalentERKNS0_10error_codeEi, symObjAddr: 0x2770, symBinAddr: 0xD34960, symSize: 0xB0 }
  - { offset: 0x375328, size: 0x8, addend: 0x0, symName: __ZNK5boost6system14error_category6failedEi, symObjAddr: 0x2820, symBinAddr: 0xD34A10, symSize: 0x10 }
  - { offset: 0x37536C, size: 0x8, addend: 0x0, symName: __ZNK5boost6system6detail22generic_error_category4nameEv, symObjAddr: 0x2830, symBinAddr: 0xD34A20, symSize: 0x10 }
  - { offset: 0x37539E, size: 0x8, addend: 0x0, symName: __ZNK5boost6system6detail22generic_error_category7messageEiPcm, symObjAddr: 0x2840, symBinAddr: 0xD34A30, symSize: 0x60 }
  - { offset: 0x3758AC, size: 0x8, addend: 0x0, symName: __ZN5boost6detail16thread_data_base25notify_all_at_thread_exitEPNS_18condition_variableEPNS_5mutexE, symObjAddr: 0x28A0, symBinAddr: 0xD34A90, symSize: 0x150 }
  - { offset: 0x3765A2, size: 0x8, addend: 0x0, symName: __ZN5boost13exception_ptrD1Ev, symObjAddr: 0x2CA0, symBinAddr: 0xD34E90, symSize: 0x40 }
  - { offset: 0x3769F9, size: 0x8, addend: 0x0, symName: __ZN5boost6detail17shared_state_base22mark_finished_internalERNS_11unique_lockINS_5mutexEEE, symObjAddr: 0x2F60, symBinAddr: 0xD35150, symSize: 0x100 }
  - { offset: 0x376D01, size: 0x8, addend: 0x0, symName: __ZN5boost6detail12shared_countD1Ev, symObjAddr: 0x3060, symBinAddr: 0xD35250, symSize: 0x40 }
  - { offset: 0x376E8B, size: 0x8, addend: 0x0, symName: __ZN5boost6detail12_GLOBAL__N_114tls_destructorEPv, symObjAddr: 0x30A0, symBinAddr: 0xD35290, symSize: 0x200 }
  - { offset: 0x377723, size: 0x8, addend: 0x0, symName: __ZN5boost12bad_weak_ptrD1Ev, symObjAddr: 0x3300, symBinAddr: 0xD354F0, symSize: 0x10 }
  - { offset: 0x37779F, size: 0x8, addend: 0x0, symName: __ZN5boost10wrapexceptINS_12bad_weak_ptrEED1Ev, symObjAddr: 0x3310, symBinAddr: 0xD35500, symSize: 0x50 }
  - { offset: 0x37798F, size: 0x8, addend: 0x0, symName: __ZNK5boost10wrapexceptINS_12bad_weak_ptrEE5cloneEv, symObjAddr: 0x3360, symBinAddr: 0xD35550, symSize: 0xE0 }
  - { offset: 0x377B9C, size: 0x8, addend: 0x0, symName: __ZNK5boost10wrapexceptINS_12bad_weak_ptrEE7rethrowEv, symObjAddr: 0x3440, symBinAddr: 0xD35630, symSize: 0x50 }
  - { offset: 0x377BF5, size: 0x8, addend: 0x0, symName: __ZN5boost10wrapexceptINS_12bad_weak_ptrEED0Ev, symObjAddr: 0x3490, symBinAddr: 0xD35680, symSize: 0x60 }
  - { offset: 0x377D0B, size: 0x8, addend: 0x0, symName: __ZThn8_N5boost10wrapexceptINS_12bad_weak_ptrEED1Ev, symObjAddr: 0x34F0, symBinAddr: 0xD356E0, symSize: 0x50 }
  - { offset: 0x377E46, size: 0x8, addend: 0x0, symName: __ZThn8_N5boost10wrapexceptINS_12bad_weak_ptrEED0Ev, symObjAddr: 0x3540, symBinAddr: 0xD35730, symSize: 0x60 }
  - { offset: 0x377F6A, size: 0x8, addend: 0x0, symName: __ZNK5boost12bad_weak_ptr4whatEv, symObjAddr: 0x35A0, symBinAddr: 0xD35790, symSize: 0x10 }
  - { offset: 0x377F9C, size: 0x8, addend: 0x0, symName: __ZThn16_N5boost10wrapexceptINS_12bad_weak_ptrEED1Ev, symObjAddr: 0x35B0, symBinAddr: 0xD357A0, symSize: 0x50 }
  - { offset: 0x3780B6, size: 0x8, addend: 0x0, symName: __ZThn16_N5boost10wrapexceptINS_12bad_weak_ptrEED0Ev, symObjAddr: 0x3600, symBinAddr: 0xD357F0, symSize: 0x60 }
  - { offset: 0x3781DE, size: 0x8, addend: 0x0, symName: __ZN5boost16exception_detail10clone_baseD1Ev, symObjAddr: 0x3660, symBinAddr: 0xE46F80, symSize: 0x10 }
  - { offset: 0x378214, size: 0x8, addend: 0x0, symName: __ZN5boost16exception_detail10clone_baseD0Ev, symObjAddr: 0x3670, symBinAddr: 0xE46F90, symSize: 0x10 }
  - { offset: 0x37824A, size: 0x8, addend: 0x0, symName: __ZN5boost12bad_weak_ptrD0Ev, symObjAddr: 0x3680, symBinAddr: 0xD35850, symSize: 0x20 }
  - { offset: 0x3782D8, size: 0x8, addend: 0x0, symName: __ZN5boost10wrapexceptINS_12bad_weak_ptrEEC1ERKS2_, symObjAddr: 0x36A0, symBinAddr: 0xD35870, symSize: 0xA0 }
  - { offset: 0x3784DD, size: 0x8, addend: 0x0, symName: __ZN5boost6detail20interruption_checker16unlock_if_lockedEv, symObjAddr: 0x3BE0, symBinAddr: 0xD35A00, symSize: 0x140 }
  - { offset: 0x3788F3, size: 0x8, addend: 0x0, symName: __ZN5boost15condition_errorC1EiPKc, symObjAddr: 0x3D70, symBinAddr: 0xD35B90, symSize: 0x90 }
  - { offset: 0x3788FB, size: 0x8, addend: 0x0, symName: __ZN5boost15condition_errorD1Ev, symObjAddr: 0x3E00, symBinAddr: 0xD35C20, symSize: 0x10 }
  - { offset: 0x378A09, size: 0x8, addend: 0x0, symName: __ZN5boost15condition_errorD1Ev, symObjAddr: 0x3E00, symBinAddr: 0xD35C20, symSize: 0x10 }
  - { offset: 0x378AA9, size: 0x8, addend: 0x0, symName: __ZN5boost6detail20interruption_checkerC2EP23_opaque_pthread_mutex_tP22_opaque_pthread_cond_t, symObjAddr: 0x3E10, symBinAddr: 0xD35C30, symSize: 0x1B0 }
  - { offset: 0x378EB9, size: 0x8, addend: 0x0, symName: __ZN5boost11unique_lockINS_5mutexEE6unlockEv, symObjAddr: 0x3FC0, symBinAddr: 0xD35DE0, symSize: 0xA0 }
  - { offset: 0x378FD9, size: 0x8, addend: 0x0, symName: __ZN5boost10lock_errorC1EiPKc, symObjAddr: 0x40B0, symBinAddr: 0xD35ED0, symSize: 0x90 }
  - { offset: 0x378FE1, size: 0x8, addend: 0x0, symName: __ZN5boost10lock_errorD1Ev, symObjAddr: 0x4140, symBinAddr: 0xD35F60, symSize: 0x10 }
  - { offset: 0x3790F8, size: 0x8, addend: 0x0, symName: __ZN5boost10lock_errorD1Ev, symObjAddr: 0x4140, symBinAddr: 0xD35F60, symSize: 0x10 }
  - { offset: 0x3792A2, size: 0x8, addend: 0x0, symName: __ZN5boost10wrapexceptINS_10lock_errorEEC1ERKS1_, symObjAddr: 0x4150, symBinAddr: 0xD35F70, symSize: 0x80 }
  - { offset: 0x379443, size: 0x8, addend: 0x0, symName: __ZN5boost10wrapexceptINS_10lock_errorEED1Ev, symObjAddr: 0x41D0, symBinAddr: 0xD35FF0, symSize: 0x50 }
  - { offset: 0x37965D, size: 0x8, addend: 0x0, symName: __ZNK5boost10wrapexceptINS_10lock_errorEE5cloneEv, symObjAddr: 0x4220, symBinAddr: 0xD36040, symSize: 0x100 }
  - { offset: 0x379962, size: 0x8, addend: 0x0, symName: __ZNK5boost10wrapexceptINS_10lock_errorEE7rethrowEv, symObjAddr: 0x4320, symBinAddr: 0xD36140, symSize: 0x50 }
  - { offset: 0x3799BB, size: 0x8, addend: 0x0, symName: __ZN5boost10wrapexceptINS_10lock_errorEED0Ev, symObjAddr: 0x4370, symBinAddr: 0xD36190, symSize: 0x60 }
  - { offset: 0x379B25, size: 0x8, addend: 0x0, symName: __ZThn8_N5boost10wrapexceptINS_10lock_errorEED1Ev, symObjAddr: 0x43D0, symBinAddr: 0xD361F0, symSize: 0x50 }
  - { offset: 0x379CB8, size: 0x8, addend: 0x0, symName: __ZThn8_N5boost10wrapexceptINS_10lock_errorEED0Ev, symObjAddr: 0x4420, symBinAddr: 0xD36240, symSize: 0x60 }
  - { offset: 0x379E30, size: 0x8, addend: 0x0, symName: __ZThn48_N5boost10wrapexceptINS_10lock_errorEED1Ev, symObjAddr: 0x4480, symBinAddr: 0xD362A0, symSize: 0x50 }
  - { offset: 0x379FA2, size: 0x8, addend: 0x0, symName: __ZThn48_N5boost10wrapexceptINS_10lock_errorEED0Ev, symObjAddr: 0x44D0, symBinAddr: 0xD362F0, symSize: 0x60 }
  - { offset: 0x37A11E, size: 0x8, addend: 0x0, symName: __ZN5boost10lock_errorD0Ev, symObjAddr: 0x4530, symBinAddr: 0xD36350, symSize: 0x20 }
  - { offset: 0x37A1FE, size: 0x8, addend: 0x0, symName: __ZN5boost6system12system_errorD1Ev, symObjAddr: 0x4550, symBinAddr: 0xD36370, symSize: 0x10 }
  - { offset: 0x37A27A, size: 0x8, addend: 0x0, symName: __ZN5boost6system12system_errorD0Ev, symObjAddr: 0x4560, symBinAddr: 0xD36380, symSize: 0x20 }
  - { offset: 0x37A308, size: 0x8, addend: 0x0, symName: __ZN5boost10wrapexceptINS_10lock_errorEEC1ERKS2_, symObjAddr: 0x4580, symBinAddr: 0xD363A0, symSize: 0xD0 }
  - { offset: 0x37A770, size: 0x8, addend: 0x0, symName: __ZN5boost6system12system_errorC2ERKNS0_10error_codeEPKc, symObjAddr: 0x4650, symBinAddr: 0xD36470, symSize: 0x250 }
  - { offset: 0x37BBD1, size: 0x8, addend: 0x0, symName: __ZNK5boost6system10error_code4whatEv, symObjAddr: 0x48A0, symBinAddr: 0xD366C0, symSize: 0x130 }
  - { offset: 0x37C4A5, size: 0x8, addend: 0x0, symName: __ZNK5boost6system10error_code7messageEv, symObjAddr: 0x49D0, symBinAddr: 0xD367F0, symSize: 0xF0 }
  - { offset: 0x37CC0A, size: 0x8, addend: 0x0, symName: __ZNK5boost6system10error_code9to_stringEv, symObjAddr: 0x4AC0, symBinAddr: 0xD368E0, symSize: 0x1E0 }
  - { offset: 0x37CC12, size: 0x8, addend: 0x0, symName: __ZNK5boost15source_location9to_stringEv, symObjAddr: 0x4CA0, symBinAddr: 0xD36AC0, symSize: 0x1D0 }
  - { offset: 0x37D8D7, size: 0x8, addend: 0x0, symName: __ZNK5boost15source_location9to_stringEv, symObjAddr: 0x4CA0, symBinAddr: 0xD36AC0, symSize: 0x1D0 }
  - { offset: 0x37E695, size: 0x8, addend: 0x0, symName: __ZN5boost11unique_lockINS_5mutexEE4lockEv, symObjAddr: 0x4F10, symBinAddr: 0xD36D30, symSize: 0xC0 }
  - { offset: 0x37E79C, size: 0x8, addend: 0x0, symName: __ZN5boost10wrapexceptINS_15condition_errorEEC1ERKS1_, symObjAddr: 0x4FD0, symBinAddr: 0xD36DF0, symSize: 0x80 }
  - { offset: 0x37E905, size: 0x8, addend: 0x0, symName: __ZN5boost10wrapexceptINS_15condition_errorEED1Ev, symObjAddr: 0x5050, symBinAddr: 0xD36E70, symSize: 0x50 }
  - { offset: 0x37EAF3, size: 0x8, addend: 0x0, symName: __ZNK5boost10wrapexceptINS_15condition_errorEE5cloneEv, symObjAddr: 0x50A0, symBinAddr: 0xD36EC0, symSize: 0x100 }
  - { offset: 0x37ED96, size: 0x8, addend: 0x0, symName: __ZNK5boost10wrapexceptINS_15condition_errorEE7rethrowEv, symObjAddr: 0x51A0, symBinAddr: 0xD36FC0, symSize: 0x50 }
  - { offset: 0x37EDEF, size: 0x8, addend: 0x0, symName: __ZN5boost10wrapexceptINS_15condition_errorEED0Ev, symObjAddr: 0x51F0, symBinAddr: 0xD37010, symSize: 0x60 }
  - { offset: 0x37EF2F, size: 0x8, addend: 0x0, symName: __ZThn8_N5boost10wrapexceptINS_15condition_errorEED1Ev, symObjAddr: 0x5250, symBinAddr: 0xD37070, symSize: 0x50 }
  - { offset: 0x37F096, size: 0x8, addend: 0x0, symName: __ZThn8_N5boost10wrapexceptINS_15condition_errorEED0Ev, symObjAddr: 0x52A0, symBinAddr: 0xD370C0, symSize: 0x60 }
  - { offset: 0x37F1E4, size: 0x8, addend: 0x0, symName: __ZThn48_N5boost10wrapexceptINS_15condition_errorEED1Ev, symObjAddr: 0x5300, symBinAddr: 0xD37120, symSize: 0x50 }
  - { offset: 0x37F32A, size: 0x8, addend: 0x0, symName: __ZThn48_N5boost10wrapexceptINS_15condition_errorEED0Ev, symObjAddr: 0x5350, symBinAddr: 0xD37170, symSize: 0x60 }
  - { offset: 0x37F47C, size: 0x8, addend: 0x0, symName: __ZN5boost15condition_errorD0Ev, symObjAddr: 0x53B0, symBinAddr: 0xD371D0, symSize: 0x20 }
  - { offset: 0x37F534, size: 0x8, addend: 0x0, symName: __ZN5boost10wrapexceptINS_15condition_errorEEC1ERKS2_, symObjAddr: 0x53D0, symBinAddr: 0xD371F0, symSize: 0xD0 }
  - { offset: 0x37FB7C, size: 0x8, addend: 0x0, symName: __ZNSt3__16vectorIN5boost10shared_ptrINS1_6detail17shared_state_baseEEENS_9allocatorIS5_EEE21__push_back_slow_pathIRKS5_EEPS5_OT_, symObjAddr: 0x54A0, symBinAddr: 0xD372C0, symSize: 0x180 }
  - { offset: 0x3803ED, size: 0x8, addend: 0x0, symName: __ZNKSt3__16vectorIN5boost10shared_ptrINS1_6detail17shared_state_baseEEENS_9allocatorIS5_EEE20__throw_length_errorB8ne180100Ev, symObjAddr: 0x5620, symBinAddr: 0xD37440, symSize: 0x10 }
  - { offset: 0x380421, size: 0x8, addend: 0x0, symName: __ZNKSt3__16vectorINS_4pairIPN5boost18condition_variableEPNS2_5mutexEEENS_9allocatorIS7_EEE20__throw_length_errorB8ne180100Ev, symObjAddr: 0x56F0, symBinAddr: 0xD37450, symSize: 0x10 }
  - { offset: 0x380455, size: 0x8, addend: 0x0, symName: __ZN5boost16exception_detail10clone_implINS0_10bad_alloc_EEC1ERKS3_, symObjAddr: 0x5750, symBinAddr: 0xD37460, symSize: 0x80 }
  - { offset: 0x3805B4, size: 0x8, addend: 0x0, symName: __ZN5boost10shared_ptrIKNS_16exception_detail10clone_baseEED1Ev, symObjAddr: 0x57D0, symBinAddr: 0xD374E0, symSize: 0x40 }
  - { offset: 0x3806E3, size: 0x8, addend: 0x0, symName: __ZN5boost16exception_detail10clone_implINS0_10bad_alloc_EED1Ev, symObjAddr: 0x5810, symBinAddr: 0xD37520, symSize: 0x50 }
  - { offset: 0x3807D5, size: 0x8, addend: 0x0, symName: __ZN5boost16exception_detail10bad_alloc_D1Ev, symObjAddr: 0x5860, symBinAddr: 0xD37570, symSize: 0x50 }
  - { offset: 0x3808A5, size: 0x8, addend: 0x0, symName: __ZN5boost16exception_detail10bad_alloc_D0Ev, symObjAddr: 0x58B0, symBinAddr: 0xD375C0, symSize: 0x50 }
  - { offset: 0x380995, size: 0x8, addend: 0x0, symName: __ZThn40_N5boost16exception_detail10bad_alloc_D1Ev, symObjAddr: 0x5900, symBinAddr: 0xD37610, symSize: 0x50 }
  - { offset: 0x380A8A, size: 0x8, addend: 0x0, symName: __ZThn40_N5boost16exception_detail10bad_alloc_D0Ev, symObjAddr: 0x5950, symBinAddr: 0xD37660, symSize: 0x50 }
  - { offset: 0x380B5E, size: 0x8, addend: 0x0, symName: __ZN5boost16exception_detail10bad_alloc_D2Ev, symObjAddr: 0x59A0, symBinAddr: 0xD376B0, symSize: 0x50 }
  - { offset: 0x380C0E, size: 0x8, addend: 0x0, symName: __ZN5boost16exception_detail10clone_implINS0_10bad_alloc_EED0Ev, symObjAddr: 0x59F0, symBinAddr: 0xD37700, symSize: 0x50 }
  - { offset: 0x380D61, size: 0x8, addend: 0x0, symName: __ZNK5boost16exception_detail10clone_implINS0_10bad_alloc_EE5cloneEv, symObjAddr: 0x5A40, symBinAddr: 0xD37750, symSize: 0xC0 }
  - { offset: 0x380D69, size: 0x8, addend: 0x0, symName: __ZNK5boost16exception_detail10clone_implINS0_10bad_alloc_EE7rethrowEv, symObjAddr: 0x5B00, symBinAddr: 0xD37810, symSize: 0x50 }
  - { offset: 0x380EE1, size: 0x8, addend: 0x0, symName: __ZNK5boost16exception_detail10clone_implINS0_10bad_alloc_EE7rethrowEv, symObjAddr: 0x5B00, symBinAddr: 0xD37810, symSize: 0x50 }
  - { offset: 0x380F10, size: 0x8, addend: 0x0, symName: __ZThn40_N5boost16exception_detail10clone_implINS0_10bad_alloc_EED1Ev, symObjAddr: 0x5B50, symBinAddr: 0xD37860, symSize: 0x50 }
  - { offset: 0x381024, size: 0x8, addend: 0x0, symName: __ZThn40_N5boost16exception_detail10clone_implINS0_10bad_alloc_EED0Ev, symObjAddr: 0x5BA0, symBinAddr: 0xD378B0, symSize: 0x50 }
  - { offset: 0x381136, size: 0x8, addend: 0x0, symName: __ZTv0_n24_NK5boost16exception_detail10clone_implINS0_10bad_alloc_EE5cloneEv, symObjAddr: 0x5BF0, symBinAddr: 0xD37900, symSize: 0x110 }
  - { offset: 0x38135E, size: 0x8, addend: 0x0, symName: __ZTv0_n32_NK5boost16exception_detail10clone_implINS0_10bad_alloc_EE7rethrowEv, symObjAddr: 0x5D00, symBinAddr: 0xD37A10, symSize: 0x60 }
  - { offset: 0x3813A8, size: 0x8, addend: 0x0, symName: __ZTv0_n40_N5boost16exception_detail10clone_implINS0_10bad_alloc_EED1Ev, symObjAddr: 0x5D60, symBinAddr: 0xD37A70, symSize: 0x60 }
  - { offset: 0x38149D, size: 0x8, addend: 0x0, symName: __ZTv0_n40_N5boost16exception_detail10clone_implINS0_10bad_alloc_EED0Ev, symObjAddr: 0x5DC0, symBinAddr: 0xD37AD0, symSize: 0x60 }
  - { offset: 0x38169C, size: 0x8, addend: 0x0, symName: __ZN5boost10shared_ptrIKNS_16exception_detail10clone_baseEEC2INS1_10clone_implINS1_10bad_alloc_EEEEEPT_, symObjAddr: 0x5E20, symBinAddr: 0xD37B30, symSize: 0xA0 }
  - { offset: 0x381898, size: 0x8, addend: 0x0, symName: __ZN5boost6detail17sp_counted_impl_pINS_16exception_detail10clone_implINS2_10bad_alloc_EEEED1Ev, symObjAddr: 0x5EC0, symBinAddr: 0xD37BD0, symSize: 0x10 }
  - { offset: 0x3818D0, size: 0x8, addend: 0x0, symName: __ZN5boost6detail17sp_counted_impl_pINS_16exception_detail10clone_implINS2_10bad_alloc_EEEED0Ev, symObjAddr: 0x5ED0, symBinAddr: 0xD37BE0, symSize: 0x10 }
  - { offset: 0x381908, size: 0x8, addend: 0x0, symName: __ZN5boost6detail17sp_counted_impl_pINS_16exception_detail10clone_implINS2_10bad_alloc_EEEE7disposeEv, symObjAddr: 0x5EE0, symBinAddr: 0xD37BF0, symSize: 0x20 }
  - { offset: 0x381966, size: 0x8, addend: 0x0, symName: __ZN5boost6detail15sp_counted_base7destroyEv, symObjAddr: 0x5F00, symBinAddr: 0xD37C10, symSize: 0x20 }
  - { offset: 0x381998, size: 0x8, addend: 0x0, symName: __ZN5boost6detail17sp_counted_impl_pINS_16exception_detail10clone_implINS2_10bad_alloc_EEEE11get_deleterERKSt9type_info, symObjAddr: 0x5F20, symBinAddr: 0xD37C30, symSize: 0x10 }
  - { offset: 0x3819D8, size: 0x8, addend: 0x0, symName: __ZN5boost6detail17sp_counted_impl_pINS_16exception_detail10clone_implINS2_10bad_alloc_EEEE17get_local_deleterERKSt9type_info, symObjAddr: 0x5F30, symBinAddr: 0xD37C40, symSize: 0x10 }
  - { offset: 0x381A18, size: 0x8, addend: 0x0, symName: __ZN5boost6detail17sp_counted_impl_pINS_16exception_detail10clone_implINS2_10bad_alloc_EEEE19get_untyped_deleterEv, symObjAddr: 0x5F40, symBinAddr: 0xD37C50, symSize: 0x10 }
  - { offset: 0x381A4A, size: 0x8, addend: 0x0, symName: __ZN5boost16exception_detail10clone_implINS0_14bad_exception_EEC1ERKS3_, symObjAddr: 0x5F50, symBinAddr: 0xD37C60, symSize: 0x80 }
  - { offset: 0x381BA9, size: 0x8, addend: 0x0, symName: __ZN5boost16exception_detail10clone_implINS0_14bad_exception_EED1Ev, symObjAddr: 0x5FD0, symBinAddr: 0xD37CE0, symSize: 0x50 }
  - { offset: 0x381C9B, size: 0x8, addend: 0x0, symName: __ZN5boost16exception_detail14bad_exception_D1Ev, symObjAddr: 0x6020, symBinAddr: 0xD37D30, symSize: 0x50 }
  - { offset: 0x381D6B, size: 0x8, addend: 0x0, symName: __ZN5boost16exception_detail14bad_exception_D0Ev, symObjAddr: 0x6070, symBinAddr: 0xD37D80, symSize: 0x50 }
  - { offset: 0x381E5B, size: 0x8, addend: 0x0, symName: __ZThn40_N5boost16exception_detail14bad_exception_D1Ev, symObjAddr: 0x60C0, symBinAddr: 0xD37DD0, symSize: 0x50 }
  - { offset: 0x381F50, size: 0x8, addend: 0x0, symName: __ZThn40_N5boost16exception_detail14bad_exception_D0Ev, symObjAddr: 0x6110, symBinAddr: 0xD37E20, symSize: 0x50 }
  - { offset: 0x382024, size: 0x8, addend: 0x0, symName: __ZN5boost16exception_detail14bad_exception_D2Ev, symObjAddr: 0x6160, symBinAddr: 0xD37E70, symSize: 0x50 }
  - { offset: 0x3820D4, size: 0x8, addend: 0x0, symName: __ZN5boost16exception_detail10clone_implINS0_14bad_exception_EED0Ev, symObjAddr: 0x61B0, symBinAddr: 0xD37EC0, symSize: 0x50 }
  - { offset: 0x382227, size: 0x8, addend: 0x0, symName: __ZNK5boost16exception_detail10clone_implINS0_14bad_exception_EE5cloneEv, symObjAddr: 0x6200, symBinAddr: 0xD37F10, symSize: 0xC0 }
  - { offset: 0x38222F, size: 0x8, addend: 0x0, symName: __ZNK5boost16exception_detail10clone_implINS0_14bad_exception_EE7rethrowEv, symObjAddr: 0x62C0, symBinAddr: 0xD37FD0, symSize: 0x50 }
  - { offset: 0x3823A7, size: 0x8, addend: 0x0, symName: __ZNK5boost16exception_detail10clone_implINS0_14bad_exception_EE7rethrowEv, symObjAddr: 0x62C0, symBinAddr: 0xD37FD0, symSize: 0x50 }
  - { offset: 0x3823D6, size: 0x8, addend: 0x0, symName: __ZThn40_N5boost16exception_detail10clone_implINS0_14bad_exception_EED1Ev, symObjAddr: 0x6310, symBinAddr: 0xD38020, symSize: 0x50 }
  - { offset: 0x3824EA, size: 0x8, addend: 0x0, symName: __ZThn40_N5boost16exception_detail10clone_implINS0_14bad_exception_EED0Ev, symObjAddr: 0x6360, symBinAddr: 0xD38070, symSize: 0x50 }
  - { offset: 0x3825FC, size: 0x8, addend: 0x0, symName: __ZTv0_n24_NK5boost16exception_detail10clone_implINS0_14bad_exception_EE5cloneEv, symObjAddr: 0x63B0, symBinAddr: 0xD380C0, symSize: 0x110 }
  - { offset: 0x382824, size: 0x8, addend: 0x0, symName: __ZTv0_n32_NK5boost16exception_detail10clone_implINS0_14bad_exception_EE7rethrowEv, symObjAddr: 0x64C0, symBinAddr: 0xD381D0, symSize: 0x60 }
  - { offset: 0x38286E, size: 0x8, addend: 0x0, symName: __ZTv0_n40_N5boost16exception_detail10clone_implINS0_14bad_exception_EED1Ev, symObjAddr: 0x6520, symBinAddr: 0xD38230, symSize: 0x60 }
  - { offset: 0x382963, size: 0x8, addend: 0x0, symName: __ZTv0_n40_N5boost16exception_detail10clone_implINS0_14bad_exception_EED0Ev, symObjAddr: 0x6580, symBinAddr: 0xD38290, symSize: 0x60 }
  - { offset: 0x382B3F, size: 0x8, addend: 0x0, symName: __ZN5boost10shared_ptrIKNS_16exception_detail10clone_baseEEC2INS1_10clone_implINS1_14bad_exception_EEEEEPT_, symObjAddr: 0x65E0, symBinAddr: 0xD382F0, symSize: 0xA0 }
  - { offset: 0x382D3B, size: 0x8, addend: 0x0, symName: __ZN5boost6detail17sp_counted_impl_pINS_16exception_detail10clone_implINS2_14bad_exception_EEEED1Ev, symObjAddr: 0x6680, symBinAddr: 0xD38390, symSize: 0x10 }
  - { offset: 0x382D73, size: 0x8, addend: 0x0, symName: __ZN5boost6detail17sp_counted_impl_pINS_16exception_detail10clone_implINS2_14bad_exception_EEEED0Ev, symObjAddr: 0x6690, symBinAddr: 0xD383A0, symSize: 0x10 }
  - { offset: 0x382DAB, size: 0x8, addend: 0x0, symName: __ZN5boost6detail17sp_counted_impl_pINS_16exception_detail10clone_implINS2_14bad_exception_EEEE7disposeEv, symObjAddr: 0x66A0, symBinAddr: 0xD383B0, symSize: 0x20 }
  - { offset: 0x382E09, size: 0x8, addend: 0x0, symName: __ZN5boost6detail17sp_counted_impl_pINS_16exception_detail10clone_implINS2_14bad_exception_EEEE11get_deleterERKSt9type_info, symObjAddr: 0x66C0, symBinAddr: 0xD383D0, symSize: 0x10 }
  - { offset: 0x382E49, size: 0x8, addend: 0x0, symName: __ZN5boost6detail17sp_counted_impl_pINS_16exception_detail10clone_implINS2_14bad_exception_EEEE17get_local_deleterERKSt9type_info, symObjAddr: 0x66D0, symBinAddr: 0xD383E0, symSize: 0x10 }
  - { offset: 0x382E89, size: 0x8, addend: 0x0, symName: __ZN5boost6detail17sp_counted_impl_pINS_16exception_detail10clone_implINS2_14bad_exception_EEEE19get_untyped_deleterEv, symObjAddr: 0x66E0, symBinAddr: 0xD383F0, symSize: 0x10 }
  - { offset: 0x3832DC, size: 0x8, addend: 0x0, symName: __ZN5boost6detail16thread_data_baseC2Ev, symObjAddr: 0x66F0, symBinAddr: 0xD38400, symSize: 0x170 }
  - { offset: 0x3837F2, size: 0x8, addend: 0x0, symName: __ZN5boost6detail26externally_launched_threadD1Ev, symObjAddr: 0x6860, symBinAddr: 0xD38570, symSize: 0xA0 }
  - { offset: 0x383AEA, size: 0x8, addend: 0x0, symName: __ZN5boost6detail26externally_launched_threadD0Ev, symObjAddr: 0x6900, symBinAddr: 0xD38610, symSize: 0xA0 }
  - { offset: 0x383DDC, size: 0x8, addend: 0x0, symName: __ZN5boost6detail26externally_launched_thread3runEv, symObjAddr: 0x69A0, symBinAddr: 0xD386B0, symSize: 0x10 }
  - { offset: 0x383E0E, size: 0x8, addend: 0x0, symName: __ZN5boost6detail26externally_launched_thread25notify_all_at_thread_exitEPNS_18condition_variableEPNS_5mutexE, symObjAddr: 0x69B0, symBinAddr: 0xD386C0, symSize: 0x10 }
  - { offset: 0x383E5C, size: 0x8, addend: 0x0, symName: __ZN5boost21thread_resource_errorC1EiPKc, symObjAddr: 0x6A10, symBinAddr: 0xD38720, symSize: 0x90 }
  - { offset: 0x383E64, size: 0x8, addend: 0x0, symName: __ZN5boost21thread_resource_errorD1Ev, symObjAddr: 0x6AA0, symBinAddr: 0xD387B0, symSize: 0x10 }
  - { offset: 0x383F7B, size: 0x8, addend: 0x0, symName: __ZN5boost21thread_resource_errorD1Ev, symObjAddr: 0x6AA0, symBinAddr: 0xD387B0, symSize: 0x10 }
  - { offset: 0x38408F, size: 0x8, addend: 0x0, symName: __ZN5boost10wrapexceptINS_21thread_resource_errorEEC1ERKS1_, symObjAddr: 0x6AB0, symBinAddr: 0xD387C0, symSize: 0x80 }
  - { offset: 0x384230, size: 0x8, addend: 0x0, symName: __ZN5boost10wrapexceptINS_21thread_resource_errorEED1Ev, symObjAddr: 0x6B30, symBinAddr: 0xD38840, symSize: 0x50 }
  - { offset: 0x38444A, size: 0x8, addend: 0x0, symName: __ZNK5boost10wrapexceptINS_21thread_resource_errorEE5cloneEv, symObjAddr: 0x6B80, symBinAddr: 0xD38890, symSize: 0x100 }
  - { offset: 0x38474F, size: 0x8, addend: 0x0, symName: __ZNK5boost10wrapexceptINS_21thread_resource_errorEE7rethrowEv, symObjAddr: 0x6C80, symBinAddr: 0xD38990, symSize: 0x50 }
  - { offset: 0x3847A8, size: 0x8, addend: 0x0, symName: __ZN5boost10wrapexceptINS_21thread_resource_errorEED0Ev, symObjAddr: 0x6CD0, symBinAddr: 0xD389E0, symSize: 0x60 }
  - { offset: 0x384912, size: 0x8, addend: 0x0, symName: __ZThn8_N5boost10wrapexceptINS_21thread_resource_errorEED1Ev, symObjAddr: 0x6D30, symBinAddr: 0xD38A40, symSize: 0x50 }
  - { offset: 0x384AA5, size: 0x8, addend: 0x0, symName: __ZThn8_N5boost10wrapexceptINS_21thread_resource_errorEED0Ev, symObjAddr: 0x6D80, symBinAddr: 0xD38A90, symSize: 0x60 }
  - { offset: 0x384C1D, size: 0x8, addend: 0x0, symName: __ZThn48_N5boost10wrapexceptINS_21thread_resource_errorEED1Ev, symObjAddr: 0x6DE0, symBinAddr: 0xD38AF0, symSize: 0x50 }
  - { offset: 0x384D8F, size: 0x8, addend: 0x0, symName: __ZThn48_N5boost10wrapexceptINS_21thread_resource_errorEED0Ev, symObjAddr: 0x6E30, symBinAddr: 0xD38B40, symSize: 0x60 }
  - { offset: 0x384F0B, size: 0x8, addend: 0x0, symName: __ZN5boost21thread_resource_errorD0Ev, symObjAddr: 0x6E90, symBinAddr: 0xD38BA0, symSize: 0x20 }
  - { offset: 0x384FEB, size: 0x8, addend: 0x0, symName: __ZN5boost10wrapexceptINS_21thread_resource_errorEEC1ERKS2_, symObjAddr: 0x6EB0, symBinAddr: 0xD38BC0, symSize: 0xD0 }
  - { offset: 0x385270, size: 0x8, addend: 0x0, symName: __ZN5boost18condition_variableC2Ev, symObjAddr: 0x6F80, symBinAddr: 0xD38C90, symSize: 0xB0 }
  - { offset: 0x3854EF, size: 0x8, addend: 0x0, symName: __ZN5boost6detail17sp_counted_impl_pINS0_16thread_data_baseEED1Ev, symObjAddr: 0x7100, symBinAddr: 0xD38E10, symSize: 0x10 }
  - { offset: 0x385527, size: 0x8, addend: 0x0, symName: __ZN5boost6detail17sp_counted_impl_pINS0_16thread_data_baseEED0Ev, symObjAddr: 0x7110, symBinAddr: 0xD38E20, symSize: 0x10 }
  - { offset: 0x38555F, size: 0x8, addend: 0x0, symName: __ZN5boost6detail17sp_counted_impl_pINS0_16thread_data_baseEE7disposeEv, symObjAddr: 0x7120, symBinAddr: 0xD38E30, symSize: 0x20 }
  - { offset: 0x3855BD, size: 0x8, addend: 0x0, symName: __ZN5boost6detail17sp_counted_impl_pINS0_16thread_data_baseEE11get_deleterERKSt9type_info, symObjAddr: 0x7140, symBinAddr: 0xD38E50, symSize: 0x10 }
  - { offset: 0x3855FD, size: 0x8, addend: 0x0, symName: __ZN5boost6detail17sp_counted_impl_pINS0_16thread_data_baseEE17get_local_deleterERKSt9type_info, symObjAddr: 0x7150, symBinAddr: 0xD38E60, symSize: 0x10 }
  - { offset: 0x38563D, size: 0x8, addend: 0x0, symName: __ZN5boost6detail17sp_counted_impl_pINS0_16thread_data_baseEE19get_untyped_deleterEv, symObjAddr: 0x7160, symBinAddr: 0xD38E70, symSize: 0x10 }
  - { offset: 0x385832, size: 0x8, addend: 0x0, symName: __ZNK5boost23enable_shared_from_thisINS_6detail16thread_data_baseEE22_internal_accept_ownerIS2_S2_EEvPKNS_10shared_ptrIT_EEPT0_, symObjAddr: 0x7170, symBinAddr: 0xD38E80, symSize: 0xA0 }
  - { offset: 0x38928C, size: 0x8, addend: 0x0, symName: __ZN5boost13thread_detailL10once_mutexE, symObjAddr: 0x258, symBinAddr: 0x1094F70, symSize: 0x0 }
  - { offset: 0x3892AA, size: 0x8, addend: 0x0, symName: __ZN5boost13thread_detailL7once_cvE, symObjAddr: 0x298, symBinAddr: 0x1094FB0, symSize: 0x0 }
  - { offset: 0x3892C7, size: 0x8, addend: 0x0, symName: __ZN5boost13thread_detail17enter_once_regionERNS_9once_flagE, symObjAddr: 0x0, symBinAddr: 0xD38FC0, symSize: 0x100 }
  - { offset: 0x3895EC, size: 0x8, addend: 0x0, symName: __ZN5boost13thread_detail18commit_once_regionERNS_9once_flagE, symObjAddr: 0x110, symBinAddr: 0xD390C0, symSize: 0x80 }
  - { offset: 0x3897AB, size: 0x8, addend: 0x0, symName: __ZN5boost13thread_detail20rollback_once_regionERNS_9once_flagE, symObjAddr: 0x190, symBinAddr: 0xD39140, symSize: 0x76 }
...
