---
triple:          'arm64-apple-darwin'
binary-path:     '/Users/administratorregula/builds/2/CrossPlatform_LivenessSources/build_ios/iphonesimulator/Liveness/Release-iphonesimulator/Liveness.framework/Liveness'
relocations:
  - { offset: 0x444A, size: 0x8, addend: 0x0, symName: __ZNSt3__124__put_character_sequenceB8ne180100IcNS_11char_traitsIcEEEERNS_13basic_ostreamIT_T0_EES7_PKS4_m, symObjAddr: 0xCFC, symBinAddr: 0x326C, symSize: 0x164 }
  - { offset: 0x5C54, size: 0x8, addend: 0x0, symName: __ZNSt3__120__throw_length_errorB8ne180100EPKc, symObjAddr: 0xC88, symBinAddr: 0x31F8, symSize: 0x50 }
  - { offset: 0x614E, size: 0x8, addend: 0x0, symName: __ZNSt3__116__pad_and_outputB8ne180100IcNS_11char_traitsIcEEEENS_19ostreambuf_iteratorIT_T0_EES6_PKS4_S8_S8_RNS_8ios_baseES4_, symObjAddr: 0xE60, symBinAddr: 0x33D0, symSize: 0x1A4 }
  - { offset: 0x7EBF, size: 0x8, addend: 0x0, symName: __ZNSt3__112basic_stringIcNS_11char_traitsIcEENS_9allocatorIcEEE25__init_copy_ctor_externalEPKcm, symObjAddr: 0xBE8, symBinAddr: 0x3158, symSize: 0x8C }
  - { offset: 0x8224, size: 0x8, addend: 0x0, symName: __ZNKSt3__112basic_stringIcNS_11char_traitsIcEENS_9allocatorIcEEE20__throw_length_errorB8ne180100Ev, symObjAddr: 0xC74, symBinAddr: 0x31E4, symSize: 0x14 }
  - { offset: 0x824E, size: 0x8, addend: 0x0, symName: __ZN6common5Timer5resetEv, symObjAddr: 0x60, symBinAddr: 0x27E0, symSize: 0x30 }
  - { offset: 0x82CF, size: 0x8, addend: 0x0, symName: __ZN6common5TimerC1ERKNSt3__112basic_stringIcNS1_11char_traitsIcEENS1_9allocatorIcEEEE, symObjAddr: 0x90, symBinAddr: 0x2810, symSize: 0x60 }
  - { offset: 0x843D, size: 0x8, addend: 0x0, symName: __ZN6common5Timer5clearEv, symObjAddr: 0xF0, symBinAddr: 0x2870, symSize: 0xC }
  - { offset: 0x845D, size: 0x8, addend: 0x0, symName: __ZN6common5Timer5startEv, symObjAddr: 0xFC, symBinAddr: 0x287C, symSize: 0x2C }
  - { offset: 0x856B, size: 0x8, addend: 0x0, symName: __ZNK6common5Timer14getTimeDeltaMsEv, symObjAddr: 0x128, symBinAddr: 0x28A8, symSize: 0x64 }
  - { offset: 0x88FB, size: 0x8, addend: 0x0, symName: __ZNKSt3__115basic_stringbufIcNS_11char_traitsIcEENS_9allocatorIcEEE3strEv, symObjAddr: 0x1004, symBinAddr: 0x3574, symSize: 0x258 }
  - { offset: 0x8F4E, size: 0x8, addend: 0x0, symName: __ZNSt3__118basic_stringstreamIcNS_11char_traitsIcEENS_9allocatorIcEEED1Ev, symObjAddr: 0x39C, symBinAddr: 0x290C, symSize: 0x94 }
  - { offset: 0x90E1, size: 0x8, addend: 0x0, symName: __ZN6common5Timer4stopEv, symObjAddr: 0x430, symBinAddr: 0x29A0, symSize: 0x68 }
  - { offset: 0x923C, size: 0x8, addend: 0x0, symName: __ZThn16_NSt3__118basic_stringstreamIcNS_11char_traitsIcEENS_9allocatorIcEEED1Ev, symObjAddr: 0x4A8, symBinAddr: 0x2A18, symSize: 0x8C }
  - { offset: 0x93E4, size: 0x8, addend: 0x0, symName: __ZTv0_n24_NSt3__118basic_stringstreamIcNS_11char_traitsIcEENS_9allocatorIcEEED1Ev, symObjAddr: 0x534, symBinAddr: 0x2AA4, symSize: 0x94 }
  - { offset: 0x958A, size: 0x8, addend: 0x0, symName: __ZNSt3__118basic_stringstreamIcNS_11char_traitsIcEENS_9allocatorIcEEED0Ev, symObjAddr: 0x5C8, symBinAddr: 0x2B38, symSize: 0x94 }
  - { offset: 0x9755, size: 0x8, addend: 0x0, symName: __ZThn16_NSt3__118basic_stringstreamIcNS_11char_traitsIcEENS_9allocatorIcEEED0Ev, symObjAddr: 0x65C, symBinAddr: 0x2BCC, symSize: 0x94 }
  - { offset: 0x991B, size: 0x8, addend: 0x0, symName: __ZTv0_n24_NSt3__118basic_stringstreamIcNS_11char_traitsIcEENS_9allocatorIcEEED0Ev, symObjAddr: 0x6F0, symBinAddr: 0x2C60, symSize: 0x9C }
  - { offset: 0x9ADD, size: 0x8, addend: 0x0, symName: __ZNSt3__115basic_stringbufIcNS_11char_traitsIcEENS_9allocatorIcEEED1Ev, symObjAddr: 0x78C, symBinAddr: 0x2CFC, symSize: 0x50 }
  - { offset: 0x9C35, size: 0x8, addend: 0x0, symName: __ZNSt3__115basic_stringbufIcNS_11char_traitsIcEENS_9allocatorIcEEED0Ev, symObjAddr: 0x7DC, symBinAddr: 0x2D4C, symSize: 0x58 }
  - { offset: 0x9ED8, size: 0x8, addend: 0x0, symName: __ZNSt3__115basic_stringbufIcNS_11char_traitsIcEENS_9allocatorIcEEE7seekoffExNS_8ios_base7seekdirEj, symObjAddr: 0x834, symBinAddr: 0x2DA4, symSize: 0x124 }
  - { offset: 0xA102, size: 0x8, addend: 0x0, symName: __ZNSt3__115basic_stringbufIcNS_11char_traitsIcEENS_9allocatorIcEEE7seekposENS_4fposI11__mbstate_tEEj, symObjAddr: 0x958, symBinAddr: 0x2EC8, symSize: 0x18 }
  - { offset: 0xA1A1, size: 0x8, addend: 0x0, symName: __ZNSt3__115basic_stringbufIcNS_11char_traitsIcEENS_9allocatorIcEEE9underflowEv, symObjAddr: 0x970, symBinAddr: 0x2EE0, symSize: 0x50 }
  - { offset: 0xA245, size: 0x8, addend: 0x0, symName: __ZNSt3__115basic_stringbufIcNS_11char_traitsIcEENS_9allocatorIcEEE9pbackfailEi, symObjAddr: 0x9C0, symBinAddr: 0x2F30, symSize: 0x6C }
  - { offset: 0xA414, size: 0x8, addend: 0x0, symName: __ZNSt3__115basic_stringbufIcNS_11char_traitsIcEENS_9allocatorIcEEE8overflowEi, symObjAddr: 0xA2C, symBinAddr: 0x2F9C, symSize: 0x1BC }
  - { offset: 0xA8F6, size: 0x8, addend: 0x0, symName: __ZNKSt3__112basic_stringIcNS_11char_traitsIcEENS_9allocatorIcEEE20__throw_length_errorB8ne180100Ev, symObjAddr: 0xC74, symBinAddr: 0x31E4, symSize: 0x14 }
  - { offset: 0xA920, size: 0x8, addend: 0x0, symName: __ZNSt3__120__throw_length_errorB8ne180100EPKc, symObjAddr: 0xC88, symBinAddr: 0x31F8, symSize: 0x50 }
  - { offset: 0xA92B, size: 0x8, addend: 0x0, symName: __ZNSt12length_errorC1B8ne180100EPKc, symObjAddr: 0xCD8, symBinAddr: 0x3248, symSize: 0x24 }
  - { offset: 0x16619, size: 0x8, addend: 0x0, symName: __ZNSt3__16vectorIhNS_9allocatorIhEEE18__insert_with_sizeB8ne180100INS_11__wrap_iterIPKcEES8_EENS5_IPhEENS5_IPKhEET_T0_l, symObjAddr: 0x1558, symBinAddr: 0x3AF4, symSize: 0x420 }
  - { offset: 0x170DE, size: 0x8, addend: 0x0, symName: __ZNSt3__16vectorIhNS_9allocatorIhEEE18__insert_with_sizeB8ne180100INS_11__wrap_iterIPKhEES8_EENS5_IPhEES8_T_T0_l, symObjAddr: 0x1978, symBinAddr: 0x3F14, symSize: 0x3A0 }
  - { offset: 0x17191, size: 0x8, addend: 0x0, symName: __ZNSt3__16vectorIhNS_9allocatorIhEEE18__insert_with_sizeB8ne180100INS_11__wrap_iterIPKhEES8_EENS5_IPhEES8_T_T0_l, symObjAddr: 0x1978, symBinAddr: 0x3F14, symSize: 0x3A0 }
  - { offset: 0x17D55, size: 0x8, addend: 0x0, symName: __ZNSt3__16vectorIhNS_9allocatorIhEEE18__insert_with_sizeB8ne180100IPKhS6_EENS_11__wrap_iterIPhEENS7_IS6_EET_T0_l, symObjAddr: 0x1D18, symBinAddr: 0x42B4, symSize: 0x2BC }
  - { offset: 0x17DAB, size: 0x8, addend: 0x0, symName: __ZN6common6base647EncoderC1ERKNSt3__16vectorIhNS2_9allocatorIhEEEENS_13Base64Rfc46486OptionE, symObjAddr: 0x38C, symBinAddr: 0x37CC, symSize: 0xA4 }
  - { offset: 0x1813C, size: 0x8, addend: 0x0, symName: __ZNSt3__16vectorIhNS_9allocatorIhEEE18__insert_with_sizeB8ne180100IPKhS6_EENS_11__wrap_iterIPhEENS7_IS6_EET_T0_l, symObjAddr: 0x1D18, symBinAddr: 0x42B4, symSize: 0x2BC }
  - { offset: 0x18CBA, size: 0x8, addend: 0x0, symName: __ZNSt3__16vectorIcNS_9allocatorIcEEE8__appendEmRKc, symObjAddr: 0x1FD4, symBinAddr: 0x4570, symSize: 0x2BC }
  - { offset: 0x18FEE, size: 0x8, addend: 0x0, symName: __ZN6common6base647Encoder8toStringEv, symObjAddr: 0x6CC, symBinAddr: 0x3870, symSize: 0xF8 }
  - { offset: 0x1949B, size: 0x8, addend: 0x0, symName: __ZN6common6base647Encoder21internalEncodeProcessEv, symObjAddr: 0x7C4, symBinAddr: 0x3968, symSize: 0x178 }
  - { offset: 0x194AD, size: 0x8, addend: 0x0, symName: __ZN6common6base647Encoder21internalEncodeProcessEv, symObjAddr: 0x7C4, symBinAddr: 0x3968, symSize: 0x178 }
  - { offset: 0x19740, size: 0x8, addend: 0x0, symName: __ZNSt3__16vectorIcNS_9allocatorIcEEE8__appendEmRKc, symObjAddr: 0x1FD4, symBinAddr: 0x4570, symSize: 0x2BC }
  - { offset: 0x19D52, size: 0x8, addend: 0x0, symName: __ZNKSt3__16vectorIhNS_9allocatorIhEEE20__throw_length_errorB8ne180100Ev, symObjAddr: 0xEDC, symBinAddr: 0x3AE0, symSize: 0x14 }
  - { offset: 0x1D6F0, size: 0x8, addend: 0x0, symName: __ZN6common13Base64Rfc4648C2ENS0_6OptionE, symObjAddr: 0xB0, symBinAddr: 0x482C, symSize: 0x5C }
  - { offset: 0x2059D, size: 0x8, addend: 0x0, symName: __ZN6common3zip5entryrsERNS0_12input_readerERNS1_12extraField_tE, symObjAddr: 0x990, symBinAddr: 0x48AC, symSize: 0x14C }
  - { offset: 0x2D2FA, size: 0x8, addend: 0x0, symName: __ZSt28__throw_bad_array_new_lengthB8ne180100v, symObjAddr: 0x3A5C, symBinAddr: 0x69EC, symSize: 0x28 }
  - { offset: 0x2DF61, size: 0x8, addend: 0x0, symName: __ZNSt11range_errorC1B8ne180100EPKc, symObjAddr: 0x208, symBinAddr: 0x4888, symSize: 0x24 }
  - { offset: 0x2E7F5, size: 0x8, addend: 0x0, symName: __ZN6common3zip5entry10local_file6header7extractERNS0_12input_readerE, symObjAddr: 0xADC, symBinAddr: 0x49F8, symSize: 0x5F0 }
  - { offset: 0x30E76, size: 0x8, addend: 0x0, symName: __ZNSt3__16vectorINS_12basic_stringIcNS_11char_traitsIcEENS_9allocatorIcEEEENS4_IS6_EEE24__emplace_back_slow_pathIJRKNS_17basic_string_viewIcS3_EEEEEPS6_DpOT_, symObjAddr: 0x3A98, symBinAddr: 0x6A14, symSize: 0x228 }
  - { offset: 0x30E81, size: 0x8, addend: 0x0, symName: __ZN6common3zip5entry17central_directory11file_header7extractERNS0_12input_readerE, symObjAddr: 0x1314, symBinAddr: 0x4FE8, symSize: 0x818 }
  - { offset: 0x347C0, size: 0x8, addend: 0x0, symName: __ZN6common3zip5entry17central_directory7extractERNS0_12input_readerE, symObjAddr: 0x1B2C, symBinAddr: 0x5800, symSize: 0x3E0 }
  - { offset: 0x3602E, size: 0x8, addend: 0x0, symName: __ZN6common3zip11mapped_file12parseProcessEv, symObjAddr: 0x1F5C, symBinAddr: 0x5BE0, symSize: 0x634 }
  - { offset: 0x37FCA, size: 0x8, addend: 0x0, symName: __ZNSt3__16vectorIN6common3zip5entry17central_directory11file_headerENS_9allocatorIS5_EEE24__emplace_back_slow_pathIJS5_EEEPS5_DpOT_, symObjAddr: 0x3D4C, symBinAddr: 0x6CA0, symSize: 0x1C8 }
  - { offset: 0x38714, size: 0x8, addend: 0x0, symName: __ZNSt3__16vectorIN6common3zip11mapped_file10entry_fileENS_9allocatorIS4_EEE5clearB8ne180100Ev, symObjAddr: 0x2B94, symBinAddr: 0x62C0, symSize: 0x50 }
  - { offset: 0x3895E, size: 0x8, addend: 0x0, symName: __ZNSt3__16vectorIN6common3zip11mapped_file10entry_fileENS_9allocatorIS4_EEE7reserveEm, symObjAddr: 0x2BE4, symBinAddr: 0x6310, symSize: 0x120 }
  - { offset: 0x38F2F, size: 0x8, addend: 0x0, symName: __ZNSt3__16vectorIN6common3zip11mapped_file10entry_fileENS_9allocatorIS4_EEE24__emplace_back_slow_pathIJRKNS2_5entry17central_directory11file_headerEEEEPS4_DpOT_, symObjAddr: 0x3F3C, symBinAddr: 0x6E68, symSize: 0x1C0 }
  - { offset: 0x39694, size: 0x8, addend: 0x0, symName: __ZNSt3__16vectorIhNS_9allocatorIhEEE18__assign_with_sizeB8ne180100IPhS5_EEvT_T0_l, symObjAddr: 0x40FC, symBinAddr: 0x7028, symSize: 0x148 }
  - { offset: 0x396AA, size: 0x8, addend: 0x0, symName: __ZNSt3__16vectorIN6common3zip5entry17central_directory11file_headerENS_9allocatorIS5_EEED1B8ne180100Ev, symObjAddr: 0x2D10, symBinAddr: 0x6430, symSize: 0x70 }
  - { offset: 0x39E85, size: 0x8, addend: 0x0, symName: __ZNSt3__16vectorINS_12basic_stringIcNS_11char_traitsIcEENS_9allocatorIcEEEENS4_IS6_EEE24__emplace_back_slow_pathIJRKNS_17basic_string_viewIcS3_EEEEEPS6_DpOT_, symObjAddr: 0x3A98, symBinAddr: 0x6A14, symSize: 0x228 }
  - { offset: 0x3A82E, size: 0x8, addend: 0x0, symName: __ZNSt3__114__split_bufferINS_12basic_stringIcNS_11char_traitsIcEENS_9allocatorIcEEEERNS4_IS6_EEED1Ev, symObjAddr: 0x3CD4, symBinAddr: 0x6C3C, symSize: 0x64 }
  - { offset: 0x3A839, size: 0x8, addend: 0x0, symName: __ZNSt3__16vectorINS_12basic_stringIcNS_11char_traitsIcEENS_9allocatorIcEEEENS4_IS6_EEED1B8ne180100Ev, symObjAddr: 0x27D4, symBinAddr: 0x6214, symSize: 0x70 }
  - { offset: 0x3AD1E, size: 0x8, addend: 0x0, symName: __ZNK6common3zip11mapped_file10entry_file10decompressEv, symObjAddr: 0x2EF8, symBinAddr: 0x64A0, symSize: 0x164 }
  - { offset: 0x3B0D6, size: 0x8, addend: 0x0, symName: __ZNK6common3zip11mapped_file10entry_file16decompressedDataEv, symObjAddr: 0x28E4, symBinAddr: 0x6284, symSize: 0x2C }
  - { offset: 0x3B219, size: 0x8, addend: 0x0, symName: __ZNK6common3zip11mapped_file5beginEv, symObjAddr: 0x29F0, symBinAddr: 0x62B0, symSize: 0x8 }
  - { offset: 0x3B23D, size: 0x8, addend: 0x0, symName: __ZNK6common3zip11mapped_file5beginEv, symObjAddr: 0x29F0, symBinAddr: 0x62B0, symSize: 0x8 }
  - { offset: 0x3B272, size: 0x8, addend: 0x0, symName: __ZNK6common3zip11mapped_file3endEv, symObjAddr: 0x2A00, symBinAddr: 0x62B8, symSize: 0x8 }
  - { offset: 0x3B29E, size: 0x8, addend: 0x0, symName: __ZNK6common3zip11mapped_file3endEv, symObjAddr: 0x2A00, symBinAddr: 0x62B8, symSize: 0x8 }
  - { offset: 0x3B5BA, size: 0x8, addend: 0x0, symName: __ZNSt3__16vectorIN6common3zip11mapped_file10entry_fileENS_9allocatorIS4_EEE24__emplace_back_slow_pathIJRKNS2_5entry17central_directory11file_headerEEEEPS4_DpOT_, symObjAddr: 0x3F3C, symBinAddr: 0x6E68, symSize: 0x1C0 }
  - { offset: 0x3B7E0, size: 0x8, addend: 0x0, symName: __ZNSt3__16vectorIhNS_9allocatorIhEEE6assignEmRKh, symObjAddr: 0x3070, symBinAddr: 0x6604, symSize: 0x248 }
  - { offset: 0x3BF52, size: 0x8, addend: 0x0, symName: __ZN6common3zip4fileaSENS_4type4spanIKhLm18446744073709551615EEE, symObjAddr: 0x3440, symBinAddr: 0x684C, symSize: 0x114 }
  - { offset: 0x3CA17, size: 0x8, addend: 0x0, symName: __ZN6common3zip4fileC1EONSt3__16vectorIhNS2_9allocatorIhEEEE, symObjAddr: 0x3654, symBinAddr: 0x6960, symSize: 0x8C }
  - { offset: 0x3CCFE, size: 0x8, addend: 0x0, symName: __ZN6common3zip4fileC1EONSt3__16vectorIhNS2_9allocatorIhEEEE.cold.1, symObjAddr: 0x429C, symBinAddr: 0xC57B08, symSize: 0x68 }
  - { offset: 0x3D01B, size: 0x8, addend: 0x0, symName: __ZNSt3__16vectorIhNS_9allocatorIhEEE18__assign_with_sizeB8ne180100IPhS5_EEvT_T0_l, symObjAddr: 0x40FC, symBinAddr: 0x7028, symSize: 0x148 }
  - { offset: 0x3DE38, size: 0x8, addend: 0x0, symName: __ZNSt3__16vectorIN6common3zip5entry17central_directory11file_headerENS_9allocatorIS5_EEE24__emplace_back_slow_pathIJS5_EEEPS5_DpOT_, symObjAddr: 0x3D4C, symBinAddr: 0x6CA0, symSize: 0x1C8 }
  - { offset: 0x3DE43, size: 0x8, addend: 0x0, symName: __ZNSt3__114__split_bufferINS_12basic_stringIcNS_11char_traitsIcEENS_9allocatorIcEEEERNS4_IS6_EEED1Ev, symObjAddr: 0x3CD4, symBinAddr: 0x6C3C, symSize: 0x64 }
  - { offset: 0x3E2DA, size: 0x8, addend: 0x0, symName: _OUTLINED_FUNCTION_0, symObjAddr: 0x4304, symBinAddr: 0x7170, symSize: 0xC }
  - { offset: 0x401FC, size: 0x8, addend: 0x0, symName: __ZN7facesdk14LSessionParams14posConstNormalE, symObjAddr: 0x18EAC, symBinAddr: 0xEA8D98, symSize: 0x0 }
  - { offset: 0x406CD, size: 0x8, addend: 0x0, symName: __ZN7facesdk14LSessionParams12posConstNearE, symObjAddr: 0x18ECC, symBinAddr: 0xEA8DB8, symSize: 0x0 }
  - { offset: 0x6F205, size: 0x8, addend: 0x0, symName: __ZNSt3__119__allocator_destroyB8ne180100INS_9allocatorIN7facesdk6LStageEEENS_16reverse_iteratorIPS3_EES7_EEvRT_T0_T1_, symObjAddr: 0xE4A8, symBinAddr: 0x1527C, symSize: 0x144 }
  - { offset: 0x708DB, size: 0x8, addend: 0x0, symName: __ZNSt3__120__throw_out_of_rangeB8ne180100EPKc, symObjAddr: 0xE968, symBinAddr: 0x1573C, symSize: 0x50 }
  - { offset: 0x70D26, size: 0x8, addend: 0x0, symName: __ZNSt3__119__allocator_destroyB8ne180100INS_9allocatorIN7facesdk6LStageEEENS_16reverse_iteratorINS5_IPS3_EEEES8_EEvRT_T0_T1_, symObjAddr: 0xF048, symBinAddr: 0x15E1C, symSize: 0x158 }
  - { offset: 0x7181B, size: 0x8, addend: 0x0, symName: __ZNSt3__127__tree_balance_after_insertB8ne180100IPNS_16__tree_node_baseIPvEEEEvT_S5_, symObjAddr: 0xF834, symBinAddr: 0x16608, symSize: 0x1B4 }
  - { offset: 0x7B107, size: 0x8, addend: 0x0, symName: __ZN8nlohmann16json_abi_v3_11_26detail6concatINSt3__112basic_stringIcNS3_11char_traitsIcEENS3_9allocatorIcEEEEJRA29_KcPSA_EEET_DpOT0_, symObjAddr: 0xBC7C, symBinAddr: 0x12B7C, symSize: 0x84 }
  - { offset: 0x7B391, size: 0x8, addend: 0x0, symName: __ZN8nlohmann16json_abi_v3_11_26detail9from_jsonINS0_10basic_jsonINSt3__13mapENS4_6vectorENS4_12basic_stringIcNS4_11char_traitsIcEENS4_9allocatorIcEEEEbxydSA_NS0_14adl_serializerENS6_IhNSA_IhEEEEEEmLi0EEEvRKT_RT0_, symObjAddr: 0xB974, symBinAddr: 0x12874, symSize: 0x13C }
  - { offset: 0x7B57B, size: 0x8, addend: 0x0, symName: __ZN8nlohmann16json_abi_v3_11_26detail6concatINSt3__112basic_stringIcNS3_11char_traitsIcEENS3_9allocatorIcEEEEJRA22_KcPSA_EEET_DpOT0_, symObjAddr: 0x12028, symBinAddr: 0x18ACC, symSize: 0x84 }
  - { offset: 0x7B827, size: 0x8, addend: 0x0, symName: __ZN8nlohmann16json_abi_v3_11_26detail6concatINSt3__112basic_stringIcNS3_11char_traitsIcEENS3_9allocatorIcEEEEJRA6_KcS9_RA12_SA_EEET_DpOT0_, symObjAddr: 0x120AC, symBinAddr: 0x18B50, symSize: 0xC8 }
  - { offset: 0x7BCC8, size: 0x8, addend: 0x0, symName: __ZN8nlohmann16json_abi_v3_11_26detail6concatINSt3__112basic_stringIcNS3_11char_traitsIcEENS3_9allocatorIcEEEEJRA32_KcPSA_EEET_DpOT0_, symObjAddr: 0x12174, symBinAddr: 0x18C18, symSize: 0x84 }
  - { offset: 0x7BF74, size: 0x8, addend: 0x0, symName: __ZN8nlohmann16json_abi_v3_11_26detail9from_jsonINS0_10basic_jsonINSt3__13mapENS4_6vectorENS4_12basic_stringIcNS4_11char_traitsIcEENS4_9allocatorIcEEEEbxydSA_NS0_14adl_serializerENS6_IhNSA_IhEEEEEEEEvRKT_RNSH_8string_tE, symObjAddr: 0x13114, symBinAddr: 0x19BB8, symSize: 0xE0 }
  - { offset: 0x7C189, size: 0x8, addend: 0x0, symName: __ZN8nlohmann16json_abi_v3_11_26detail9from_jsonINS0_10basic_jsonINSt3__13mapENS4_6vectorENS4_12basic_stringIcNS4_11char_traitsIcEENS4_9allocatorIcEEEEbxydSA_NS0_14adl_serializerENS6_IhNSA_IhEEEEEEiLi0EEEvRKT_RT0_, symObjAddr: 0x16BE8, symBinAddr: 0x1D664, symSize: 0x13C }
  - { offset: 0x7C373, size: 0x8, addend: 0x0, symName: __ZN8nlohmann16json_abi_v3_11_26detail9from_jsonINS0_10basic_jsonINSt3__13mapENS4_6vectorENS4_12basic_stringIcNS4_11char_traitsIcEENS4_9allocatorIcEEEEbxydSA_NS0_14adl_serializerENS6_IhNSA_IhEEEEEENS6_IjNSA_IjEEEELi0EEEDTcmcmcl20from_json_array_implfp_fp0_tlNS1_12priority_tagILj3EEEEEcldtfp_3getINT0_10value_typeEEEcvv_EERKT_RSL_, symObjAddr: 0xC020, symBinAddr: 0x12F20, symSize: 0xD8 }
  - { offset: 0x7C5B2, size: 0x8, addend: 0x0, symName: __ZN8nlohmann16json_abi_v3_11_26detail20get_arithmetic_valueINS0_10basic_jsonINSt3__13mapENS4_6vectorENS4_12basic_stringIcNS4_11char_traitsIcEENS4_9allocatorIcEEEEbxydSA_NS0_14adl_serializerENS6_IhNSA_IhEEEEEEiLi0EEEvRKT_RT0_, symObjAddr: 0x13000, symBinAddr: 0x19AA4, symSize: 0x114 }
  - { offset: 0x7C797, size: 0x8, addend: 0x0, symName: __ZN8nlohmann16json_abi_v3_11_26detail6concatINSt3__112basic_stringIcNS3_11char_traitsIcEENS3_9allocatorIcEEEEJRA25_KcPSA_EEET_DpOT0_, symObjAddr: 0x12F7C, symBinAddr: 0x19A20, symSize: 0x84 }
  - { offset: 0x7CC44, size: 0x8, addend: 0x0, symName: __ZN8nlohmann16json_abi_v3_11_26detail9from_jsonINS0_10basic_jsonINSt3__13mapENS4_6vectorENS4_12basic_stringIcNS4_11char_traitsIcEENS4_9allocatorIcEEEEbxydSA_NS0_14adl_serializerENS6_IhNSA_IhEEEEEEfLi0EEEvRKT_RT0_, symObjAddr: 0x16D24, symBinAddr: 0x1D7A0, symSize: 0x170 }
  - { offset: 0x7CE2E, size: 0x8, addend: 0x0, symName: __ZN8nlohmann16json_abi_v3_11_26detail6concatINSt3__112basic_stringIcNS3_11char_traitsIcEENS3_9allocatorIcEEEEJRA17_KcRKS9_cS9_RA3_SA_EEET_DpOT0_, symObjAddr: 0xBE58, symBinAddr: 0x12D58, symSize: 0x128 }
  - { offset: 0x7D3C4, size: 0x8, addend: 0x0, symName: __ZN8nlohmann16json_abi_v3_11_26detail6concatINSt3__112basic_stringIcNS3_11char_traitsIcEENS3_9allocatorIcEEEEJS9_S9_RKS9_EEET_DpOT0_, symObjAddr: 0xBD58, symBinAddr: 0x12C58, symSize: 0x100 }
  - { offset: 0x7DD99, size: 0x8, addend: 0x0, symName: __ZN8nlohmann16json_abi_v3_11_26detail20from_json_array_implINS0_10basic_jsonINSt3__13mapENS4_6vectorENS4_12basic_stringIcNS4_11char_traitsIcEENS4_9allocatorIcEEEEbxydSA_NS0_14adl_serializerENS6_IhNSA_IhEEEEEENS6_IjNSA_IjEEEELi0EEEDTcmcmcldtfp0_7reserveclsr3stdE7declvalINT0_9size_typeEEEEcldtfp_3getINSJ_10value_typeEEEcvv_EERKT_RSJ_NS1_12priority_tagILj1EEE, symObjAddr: 0xC17C, symBinAddr: 0x1307C, symSize: 0x258 }
  - { offset: 0x7E828, size: 0x8, addend: 0x0, symName: __ZN8nlohmann16json_abi_v3_11_26detail6concatINSt3__112basic_stringIcNS3_11char_traitsIcEENS3_9allocatorIcEEEEJRA28_KcPSA_EEET_DpOT0_, symObjAddr: 0xC0F8, symBinAddr: 0x12FF8, symSize: 0x84 }
  - { offset: 0x7EB26, size: 0x8, addend: 0x0, symName: __ZN8nlohmann16json_abi_v3_11_26detail9from_jsonINS0_10basic_jsonINSt3__13mapENS4_6vectorENS4_12basic_stringIcNS4_11char_traitsIcEENS4_9allocatorIcEEEEbxydSA_NS0_14adl_serializerENS6_IhNSA_IhEEEEEEjLi0EEEvRKT_RT0_, symObjAddr: 0xC874, symBinAddr: 0x13774, symSize: 0x13C }
  - { offset: 0x7ED7F, size: 0x8, addend: 0x0, symName: __ZN8nlohmann16json_abi_v3_11_26detail6concatINSt3__112basic_stringIcNS3_11char_traitsIcEENS3_9allocatorIcEEEEJRA51_KcPSA_EEET_DpOT0_, symObjAddr: 0xF5DC, symBinAddr: 0x163B0, symSize: 0x84 }
  - { offset: 0x7EFF5, size: 0x8, addend: 0x0, symName: __ZN8nlohmann16json_abi_v3_11_26detail6concatINSt3__112basic_stringIcNS3_11char_traitsIcEENS3_9allocatorIcEEEEJRA61_KcPSA_EEET_DpOT0_, symObjAddr: 0x108C4, symBinAddr: 0x17624, symSize: 0x84 }
  - { offset: 0x7F2F3, size: 0x8, addend: 0x0, symName: __ZN8nlohmann16json_abi_v3_11_26detail6concatINSt3__112basic_stringIcNS3_11char_traitsIcEENS3_9allocatorIcEEEEJRA52_KcS9_RA2_SA_EEET_DpOT0_, symObjAddr: 0x11274, symBinAddr: 0x17FD4, symSize: 0xC8 }
  - { offset: 0x7F839, size: 0x8, addend: 0x0, symName: __ZN8nlohmann16json_abi_v3_11_26detail6concatINSt3__112basic_stringIcNS3_11char_traitsIcEENS3_9allocatorIcEEEEJRA16_KcS9_RA56_SA_EEET_DpOT0_, symObjAddr: 0x11A80, symBinAddr: 0x187E0, symSize: 0xC8 }
  - { offset: 0x7FF95, size: 0x8, addend: 0x0, symName: __ZN8nlohmann16json_abi_v3_11_26detail6concatINSt3__112basic_stringIcNS3_11char_traitsIcEENS3_9allocatorIcEEEEJRA52_KcPSA_EEET_DpOT0_, symObjAddr: 0x12A50, symBinAddr: 0x194F4, symSize: 0x84 }
  - { offset: 0x80380, size: 0x8, addend: 0x0, symName: __ZN8nlohmann16json_abi_v3_11_26detail6concatINSt3__112basic_stringIcNS3_11char_traitsIcEENS3_9allocatorIcEEEEJRA26_KcS9_cEEET_DpOT0_, symObjAddr: 0x16588, symBinAddr: 0x1D018, symSize: 0xB4 }
  - { offset: 0x80732, size: 0x8, addend: 0x0, symName: __ZN8nlohmann16json_abi_v3_11_26detail6concatINSt3__112basic_stringIcNS3_11char_traitsIcEENS3_9allocatorIcEEEEJS9_RA12_KcS9_RA3_SA_S9_RKS9_EEET_DpOT0_, symObjAddr: 0x16750, symBinAddr: 0x1D1CC, symSize: 0x190 }
  - { offset: 0x810EF, size: 0x8, addend: 0x0, symName: __ZN8nlohmann16json_abi_v3_11_26detail6concatINSt3__112basic_stringIcNS3_11char_traitsIcEENS3_9allocatorIcEEEEJPKcRA15_SA_S9_cEEET_DpOT0_, symObjAddr: 0x16B08, symBinAddr: 0x1D584, symSize: 0xE0 }
  - { offset: 0x819B9, size: 0x8, addend: 0x0, symName: __ZN8nlohmann16json_abi_v3_11_26detail6concatINSt3__112basic_stringIcNS3_11char_traitsIcEENS3_9allocatorIcEEEEJRA10_KcS9_SC_S9_EEET_DpOT0_, symObjAddr: 0x169C8, symBinAddr: 0x1D444, symSize: 0x10C }
  - { offset: 0x86459, size: 0x8, addend: 0x0, symName: __ZN7facesdk15LivenessSessionC2ERKNS_14LSessionParamsERKN8nlohmann16json_abi_v3_11_210basic_jsonINSt3__13mapENS7_6vectorENS7_12basic_stringIcNS7_11char_traitsIcEENS7_9allocatorIcEEEEbxydSD_NS5_14adl_serializerENS9_IhNSD_IhEEEEEE, symObjAddr: 0x0, symBinAddr: 0x717C, symSize: 0x544 }
  - { offset: 0x8842A, size: 0x8, addend: 0x0, symName: __ZN7facesdk14LSessionParamsC2ERKS0_, symObjAddr: 0xB340, symBinAddr: 0x12314, symSize: 0x2F4 }
  - { offset: 0x89108, size: 0x8, addend: 0x0, symName: __ZNSt3__16vectorIN7facesdk6LStageENS_9allocatorIS2_EEEC2B8ne180100ESt16initializer_listIS2_E, symObjAddr: 0xD890, symBinAddr: 0x146C8, symSize: 0x118 }
  - { offset: 0x894FB, size: 0x8, addend: 0x0, symName: __ZN8nlohmann16json_abi_v3_11_210basic_jsonINSt3__13mapENS2_6vectorENS2_12basic_stringIcNS2_11char_traitsIcEENS2_9allocatorIcEEEEbxydS8_NS0_14adl_serializerENS4_IhNS8_IhEEEEE10json_value7destroyENS0_6detail7value_tE, symObjAddr: 0xCDC4, symBinAddr: 0x13C24, symSize: 0x5EC }
  - { offset: 0x8B068, size: 0x8, addend: 0x0, symName: __ZNSt3__16vectorIfNS_9allocatorIfEEE8__appendEm, symObjAddr: 0xD6D8, symBinAddr: 0x14524, symSize: 0x1A4 }
  - { offset: 0x8B4CB, size: 0x8, addend: 0x0, symName: __ZN7facesdk15LivenessSession11initPackageERKN8nlohmann16json_abi_v3_11_210basic_jsonINSt3__13mapENS4_6vectorENS4_12basic_stringIcNS4_11char_traitsIcEENS4_9allocatorIcEEEEbxydSA_NS2_14adl_serializerENS6_IhNSA_IhEEEEEE, symObjAddr: 0x664, symBinAddr: 0x77E0, symSize: 0x17C }
  - { offset: 0x8BC38, size: 0x8, addend: 0x0, symName: __ZN7facesdk6LStageD1Ev, symObjAddr: 0x5F4, symBinAddr: 0x7770, symSize: 0x70 }
  - { offset: 0x8BF2D, size: 0x8, addend: 0x0, symName: __ZN8nlohmann16json_abi_v3_11_210basic_jsonINSt3__13mapENS2_6vectorENS2_12basic_stringIcNS2_11char_traitsIcEENS2_9allocatorIcEEEEbxydS8_NS0_14adl_serializerENS4_IhNS8_IhEEEEED1Ev, symObjAddr: 0x7E0, symBinAddr: 0x795C, symSize: 0x2C }
  - { offset: 0x8BF74, size: 0x8, addend: 0x0, symName: __ZNSt3__16vectorIN7facesdk6LStageENS_9allocatorIS2_EEED1B8ne180100Ev, symObjAddr: 0x80C, symBinAddr: 0x7988, symSize: 0x38 }
  - { offset: 0x8C0AB, size: 0x8, addend: 0x0, symName: __ZNSt3__15dequeIN7facesdk11eFL_MessageENS_9allocatorIS2_EEED2B8ne180100Ev, symObjAddr: 0xB8B0, symBinAddr: 0x127B0, symSize: 0xC4 }
  - { offset: 0x8C4C8, size: 0x8, addend: 0x0, symName: __ZN7facesdk14LSessionParamsD1Ev, symObjAddr: 0x844, symBinAddr: 0x79C0, symSize: 0xA4 }
  - { offset: 0x8CCC9, size: 0x8, addend: 0x0, symName: __ZNSt3__112basic_stringIcNS_11char_traitsIcEENS_9allocatorIcEEEC1B8ne180100ILi0EEEPKc, symObjAddr: 0x544, symBinAddr: 0x76C0, symSize: 0xB0 }
  - { offset: 0x8D076, size: 0x8, addend: 0x0, symName: __ZN7facesdk6LStageD1Ev, symObjAddr: 0x5F4, symBinAddr: 0x7770, symSize: 0x70 }
  - { offset: 0x8D0BD, size: 0x8, addend: 0x0, symName: __ZN7facesdk12LFrameResultD2Ev, symObjAddr: 0xB760, symBinAddr: 0x12660, symSize: 0xC0 }
  - { offset: 0x8D807, size: 0x8, addend: 0x0, symName: __ZN8nlohmann16json_abi_v3_11_210basic_jsonINSt3__13mapENS2_6vectorENS2_12basic_stringIcNS2_11char_traitsIcEENS2_9allocatorIcEEEEbxydS8_NS0_14adl_serializerENS4_IhNS8_IhEEEEEixIKcEERSE_PT_, symObjAddr: 0x3DD8, symBinAddr: 0xADAC, symSize: 0xF4 }
  - { offset: 0x8DE72, size: 0x8, addend: 0x0, symName: __ZNK8nlohmann16json_abi_v3_11_210basic_jsonINSt3__13mapENS2_6vectorENS2_12basic_stringIcNS2_11char_traitsIcEENS2_9allocatorIcEEEEbxydS8_NS0_14adl_serializerENS4_IhNS8_IhEEEEE2atIRA7_KcLi0EEERKSE_OT_, symObjAddr: 0x4FF4, symBinAddr: 0xBFC8, symSize: 0x1EC }
  - { offset: 0x8E4C7, size: 0x8, addend: 0x0, symName: __ZN8nlohmann16json_abi_v3_11_210basic_jsonINSt3__13mapENS2_6vectorENS2_12basic_stringIcNS2_11char_traitsIcEENS2_9allocatorIcEEEEbxydS8_NS0_14adl_serializerENS4_IhNS8_IhEEEEEC2ERKSE_, symObjAddr: 0xF9E8, symBinAddr: 0x167BC, symSize: 0x230 }
  - { offset: 0x8F277, size: 0x8, addend: 0x0, symName: __ZNSt3__16vectorIN7facesdk6LStageENS_9allocatorIS2_EEE22__base_destruct_at_endB8ne180100EPS2_, symObjAddr: 0xE5EC, symBinAddr: 0x153C0, symSize: 0x148 }
  - { offset: 0x8FE77, size: 0x8, addend: 0x0, symName: __ZN7facesdk15LivenessSessionC1ERKNS_14LSessionParamsERKN8nlohmann16json_abi_v3_11_210basic_jsonINSt3__13mapENS7_6vectorENS7_12basic_stringIcNS7_11char_traitsIcEENS7_9allocatorIcEEEEbxydSD_NS5_14adl_serializerENS9_IhNSD_IhEEEEEE, symObjAddr: 0x8E8, symBinAddr: 0x7A64, symSize: 0x4 }
  - { offset: 0x8FEC1, size: 0x8, addend: 0x0, symName: __ZN7facesdk15LivenessSessionC1ERKNS_14LSessionParamsERKN8nlohmann16json_abi_v3_11_210basic_jsonINSt3__13mapENS7_6vectorENS7_12basic_stringIcNS7_11char_traitsIcEENS7_9allocatorIcEEEEbxydSD_NS5_14adl_serializerENS9_IhNSD_IhEEEEEE, symObjAddr: 0x8E8, symBinAddr: 0x7A64, symSize: 0x4 }
  - { offset: 0x8FF37, size: 0x8, addend: 0x0, symName: __ZNK7facesdk15LivenessSession9frameSizeEv, symObjAddr: 0x8EC, symBinAddr: 0x7A68, symSize: 0xC }
  - { offset: 0x8FF60, size: 0x8, addend: 0x0, symName: __ZNK7facesdk15LivenessSession9frameSizeEv, symObjAddr: 0x8EC, symBinAddr: 0x7A68, symSize: 0xC }
  - { offset: 0x8FF82, size: 0x8, addend: 0x0, symName: __ZNK7facesdk15LivenessSession9frameSizeEv, symObjAddr: 0x8EC, symBinAddr: 0x7A68, symSize: 0xC }
  - { offset: 0x8FFA5, size: 0x8, addend: 0x0, symName: __ZNK7facesdk15LivenessSession11numChannelsEv, symObjAddr: 0x8F8, symBinAddr: 0x7A74, symSize: 0x8 }
  - { offset: 0x8FFCE, size: 0x8, addend: 0x0, symName: __ZNK7facesdk15LivenessSession13rotationAngleEv, symObjAddr: 0x900, symBinAddr: 0x7A7C, symSize: 0x8 }
  - { offset: 0x9005C, size: 0x8, addend: 0x0, symName: __ZN7facesdk15LivenessSession6statusEv, symObjAddr: 0x908, symBinAddr: 0x7A84, symSize: 0x94 }
  - { offset: 0x900D7, size: 0x8, addend: 0x0, symName: __ZN7facesdk15LivenessSession7messageEv, symObjAddr: 0xA18, symBinAddr: 0x7B18, symSize: 0xE4 }
  - { offset: 0x9014B, size: 0x8, addend: 0x0, symName: __ZNK7facesdk15LivenessSession15processingStageEv, symObjAddr: 0xAFC, symBinAddr: 0x7BFC, symSize: 0xC }
  - { offset: 0x9016F, size: 0x8, addend: 0x0, symName: __ZNK7facesdk15LivenessSession15processingStageEv, symObjAddr: 0xAFC, symBinAddr: 0x7BFC, symSize: 0xC }
  - { offset: 0x9018C, size: 0x8, addend: 0x0, symName: __ZNK7facesdk15LivenessSession14processingTimeEv, symObjAddr: 0xB08, symBinAddr: 0x7C08, symSize: 0x8 }
  - { offset: 0x901AE, size: 0x8, addend: 0x0, symName: __ZNK7facesdk15LivenessSession6paramsEv, symObjAddr: 0xB10, symBinAddr: 0x7C10, symSize: 0x4 }
  - { offset: 0x90352, size: 0x8, addend: 0x0, symName: __ZN7facesdk15LivenessSession13startNewFrameEv, symObjAddr: 0xB14, symBinAddr: 0x7C14, symSize: 0xB0 }
  - { offset: 0x904E0, size: 0x8, addend: 0x0, symName: __ZNSt3__16vectorIN7facesdk12LFrameResultENS_9allocatorIS2_EEE24__emplace_back_slow_pathIJEEEPS2_DpOT_, symObjAddr: 0xE734, symBinAddr: 0x15508, symSize: 0x1D0 }
  - { offset: 0x90B85, size: 0x8, addend: 0x0, symName: __ZN7facesdk15LivenessSession5abortEv, symObjAddr: 0xBC4, symBinAddr: 0x7CC4, symSize: 0x58 }
  - { offset: 0x90C9E, size: 0x8, addend: 0x0, symName: __ZN7facesdk15LivenessSession15faceDetectionOkERKNSt3__16vectorIN2cv5Rect_IiEENS1_9allocatorIS5_EEEERKNS2_INS2_INS3_6Point_IiEENS6_ISC_EEEENS6_ISE_EEEERKNS2_INS2_IfNS6_IfEEEENS6_ISK_EEEE, symObjAddr: 0xC1C, symBinAddr: 0x7D1C, symSize: 0xB8 }
  - { offset: 0x90EB2, size: 0x8, addend: 0x0, symName: __ZN7facesdk15LivenessSession20facePositionNormalOkERNS_12LFrameResultE, symObjAddr: 0xD0C, symBinAddr: 0x7DD4, symSize: 0x194 }
  - { offset: 0x91170, size: 0x8, addend: 0x0, symName: __ZN7facesdk15LivenessSession18facePositionNearOkERNS_12LFrameResultE, symObjAddr: 0xEA0, symBinAddr: 0x7F68, symSize: 0xF4 }
  - { offset: 0x91277, size: 0x8, addend: 0x0, symName: __ZN7facesdk15LivenessSession17faceOrientationOkERNS_12LFrameResultERbRKN2cv6Point_IiEE, symObjAddr: 0xF94, symBinAddr: 0x805C, symSize: 0x90 }
  - { offset: 0x91427, size: 0x8, addend: 0x0, symName: __ZN7facesdk15LivenessSession21faceOrientationNearOkERNS_12LFrameResultERKN2cv6Point_IiEE, symObjAddr: 0x1158, symBinAddr: 0x8220, symSize: 0x180 }
  - { offset: 0x91588, size: 0x8, addend: 0x0, symName: __ZN7facesdk15LivenessSession23faceOrientationNormalOkERNS_12LFrameResultERb, symObjAddr: 0x1024, symBinAddr: 0x80EC, symSize: 0x134 }
  - { offset: 0x9177B, size: 0x8, addend: 0x0, symName: __ZN7facesdk15LivenessSession12brightnessOkEf, symObjAddr: 0x1394, symBinAddr: 0x83A0, symSize: 0x50 }
  - { offset: 0x917EF, size: 0x8, addend: 0x0, symName: __ZN7facesdk15LivenessSession12flawDetectedENS_11eFL_MessageERKNSt3__16vectorIfNS2_9allocatorIfEEEE, symObjAddr: 0x13E4, symBinAddr: 0x83F0, symSize: 0x64 }
  - { offset: 0x918B4, size: 0x8, addend: 0x0, symName: __ZN7facesdk15LivenessSession22needInjectionCheckDataERNS_12LFrameResultERKN2cv3MatE, symObjAddr: 0x1448, symBinAddr: 0x8454, symSize: 0x208 }
  - { offset: 0x918BF, size: 0x8, addend: 0x0, symName: __ZNKSt3__16vectorIfNS_9allocatorIfEEE20__throw_out_of_rangeB8ne180100Ev, symObjAddr: 0xE954, symBinAddr: 0x15728, symSize: 0x14 }
  - { offset: 0x918E9, size: 0x8, addend: 0x0, symName: __ZNSt3__120__throw_out_of_rangeB8ne180100EPKc, symObjAddr: 0xE968, symBinAddr: 0x1573C, symSize: 0x50 }
  - { offset: 0x91B36, size: 0x8, addend: 0x0, symName: __ZN7facesdk15LivenessSession22needInjectionCheckDataERNS_12LFrameResultERKN2cv3MatE, symObjAddr: 0x1448, symBinAddr: 0x8454, symSize: 0x208 }
  - { offset: 0x9209B, size: 0x8, addend: 0x0, symName: __ZN7facesdk15LivenessSession13blinkDetectedEN6common4type4spanIKN2cv6Point_IiEELm18446744073709551615EEES8_, symObjAddr: 0x1650, symBinAddr: 0x865C, symSize: 0x20C }
  - { offset: 0x9240E, size: 0x8, addend: 0x0, symName: __ZN7facesdk15LivenessSession20blinkDetectionNeededEv, symObjAddr: 0x185C, symBinAddr: 0x8868, symSize: 0x30 }
  - { offset: 0x92474, size: 0x8, addend: 0x0, symName: __ZN7facesdk15LivenessSession23holdStillTimeoutReachedEv, symObjAddr: 0x188C, symBinAddr: 0x8898, symSize: 0xD8 }
  - { offset: 0x92830, size: 0x8, addend: 0x0, symName: __ZN7facesdk15LivenessSession16saveStageResultsERKN2cv3MatERKNS_5LFaceE, symObjAddr: 0x1964, symBinAddr: 0x8970, symSize: 0x178 }
  - { offset: 0x92C6C, size: 0x8, addend: 0x0, symName: __ZNSt3__16vectorIN2cv6Point_IiEENS_9allocatorIS3_EEE18__assign_with_sizeB8ne180100IPS3_S8_EEvT_T0_l, symObjAddr: 0xE9DC, symBinAddr: 0x157B0, symSize: 0x410 }
  - { offset: 0x93457, size: 0x8, addend: 0x0, symName: __ZNSt3__16vectorIN7facesdk6LStageENS_9allocatorIS2_EEE24__emplace_back_slow_pathIJEEEPS2_DpOT_, symObjAddr: 0xEDEC, symBinAddr: 0x15BC0, symSize: 0x228 }
  - { offset: 0x9349C, size: 0x8, addend: 0x0, symName: __ZNK7facesdk15LivenessSession17stageResultsSavedEv, symObjAddr: 0x1ADC, symBinAddr: 0x8AE8, symSize: 0x44 }
  - { offset: 0x93689, size: 0x8, addend: 0x0, symName: __ZN7facesdk15LivenessSession23finalizeProcessingStageEv, symObjAddr: 0x1B20, symBinAddr: 0x8B2C, symSize: 0x214 }
  - { offset: 0x93948, size: 0x8, addend: 0x0, symName: __ZNSt3__16vectorIN7facesdk6LStageENS_9allocatorIS2_EEE24__emplace_back_slow_pathIJEEEPS2_DpOT_, symObjAddr: 0xEDEC, symBinAddr: 0x15BC0, symSize: 0x228 }
  - { offset: 0x94059, size: 0x8, addend: 0x0, symName: __ZNK7facesdk15LivenessSession13currentTargetEv, symObjAddr: 0x1D34, symBinAddr: 0x8D40, symSize: 0x14 }
  - { offset: 0x94083, size: 0x8, addend: 0x0, symName: __ZNK7facesdk15LivenessSession13currentTargetEv, symObjAddr: 0x1D34, symBinAddr: 0x8D40, symSize: 0x14 }
  - { offset: 0x940A9, size: 0x8, addend: 0x0, symName: __ZNK7facesdk15LivenessSession13currentTargetEv, symObjAddr: 0x1D34, symBinAddr: 0x8D40, symSize: 0x14 }
  - { offset: 0x940CE, size: 0x8, addend: 0x0, symName: __ZNK7facesdk15LivenessSession13currentTargetEv, symObjAddr: 0x1D34, symBinAddr: 0x8D40, symSize: 0x14 }
  - { offset: 0x940F3, size: 0x8, addend: 0x0, symName: __ZNK7facesdk15LivenessSession13currentTargetEv, symObjAddr: 0x1D34, symBinAddr: 0x8D40, symSize: 0x14 }
  - { offset: 0x9411B, size: 0x8, addend: 0x0, symName: __ZNK7facesdk15LivenessSession12targetSectorEv, symObjAddr: 0x1D48, symBinAddr: 0x8D54, symSize: 0x20 }
  - { offset: 0x9416C, size: 0x8, addend: 0x0, symName: __ZNK7facesdk15LivenessSession14targetExposureEv, symObjAddr: 0x1D68, symBinAddr: 0x8D74, symSize: 0x20 }
  - { offset: 0x94198, size: 0x8, addend: 0x0, symName: __ZNK7facesdk15LivenessSession14targetExposureEv, symObjAddr: 0x1D68, symBinAddr: 0x8D74, symSize: 0x20 }
  - { offset: 0x941F5, size: 0x8, addend: 0x0, symName: __ZNK7facesdk15LivenessSession7resultsEv, symObjAddr: 0x1D88, symBinAddr: 0x8D94, symSize: 0x8 }
  - { offset: 0x9626E, size: 0x8, addend: 0x0, symName: __ZN7facesdk15LivenessSession15finalizePackageEv, symObjAddr: 0x1DC8, symBinAddr: 0x8D9C, symSize: 0x1C90 }
  - { offset: 0x9DD0A, size: 0x8, addend: 0x0, symName: __ZN7facesdk15LivenessSession16finalizeMetadataEv, symObjAddr: 0x3A58, symBinAddr: 0xAA2C, symSize: 0x380 }
  - { offset: 0x9EC43, size: 0x8, addend: 0x0, symName: __ZN8nlohmann16json_abi_v3_11_210basic_jsonINSt3__13mapENS2_6vectorENS2_12basic_stringIcNS2_11char_traitsIcEENS2_9allocatorIcEEEEbxydS8_NS0_14adl_serializerENS4_IhNS8_IhEEEEE10json_value7destroyENS0_6detail7value_tE, symObjAddr: 0xCDC4, symBinAddr: 0x13C24, symSize: 0x5EC }
  - { offset: 0x9EC7B, size: 0x8, addend: 0x0, symName: __ZN8nlohmann16json_abi_v3_11_210basic_jsonINSt3__13mapENS2_6vectorENS2_12basic_stringIcNS2_11char_traitsIcEENS2_9allocatorIcEEEEbxydS8_NS0_14adl_serializerENS4_IhNS8_IhEEEEE9push_backERKSE_, symObjAddr: 0x402C, symBinAddr: 0xB000, symSize: 0x164 }
  - { offset: 0x9F103, size: 0x8, addend: 0x0, symName: __ZN8nlohmann16json_abi_v3_11_210basic_jsonINSt3__13mapENS2_6vectorENS2_12basic_stringIcNS2_11char_traitsIcEENS2_9allocatorIcEEEEbxydS8_NS0_14adl_serializerENS4_IhNS8_IhEEEEE9push_backEOSE_, symObjAddr: 0x3ECC, symBinAddr: 0xAEA0, symSize: 0x160 }
  - { offset: 0x9F531, size: 0x8, addend: 0x0, symName: __ZN8nlohmann16json_abi_v3_11_210basic_jsonINSt3__13mapENS2_6vectorENS2_12basic_stringIcNS2_11char_traitsIcEENS2_9allocatorIcEEEEbxydS8_NS0_14adl_serializerENS4_IhNS8_IhEEEEE7to_bsonERKSE_, symObjAddr: 0x4190, symBinAddr: 0xB164, symSize: 0xD0 }
  - { offset: 0x9F9BD, size: 0x8, addend: 0x0, symName: __ZN8nlohmann16json_abi_v3_11_26detail10type_error6createIPNS0_10basic_jsonINSt3__13mapENS5_6vectorENS5_12basic_stringIcNS5_11char_traitsIcEENS5_9allocatorIcEEEEbxydSB_NS0_14adl_serializerENS7_IhNSB_IhEEEEEELi0EEES2_iRKSD_T_, symObjAddr: 0xF410, symBinAddr: 0x161E4, symSize: 0x1CC }
  - { offset: 0xA07E2, size: 0x8, addend: 0x0, symName: __ZNSt3__114__split_bufferIN8nlohmann16json_abi_v3_11_210basic_jsonINS_3mapENS_6vectorENS_12basic_stringIcNS_11char_traitsIcEENS_9allocatorIcEEEEbxydS9_NS2_14adl_serializerENS5_IhNS9_IhEEEEEERNS9_ISF_EEED1Ev, symObjAddr: 0xD49C, symBinAddr: 0x142E8, symSize: 0x54 }
  - { offset: 0xA0DB3, size: 0x8, addend: 0x0, symName: __ZN8nlohmann16json_abi_v3_11_210basic_jsonINSt3__13mapENS2_6vectorENS2_12basic_stringIcNS2_11char_traitsIcEENS2_9allocatorIcEEEEbxydS8_NS0_14adl_serializerENS4_IhNS8_IhEEEEE2atIRKPKcLi0EEERSE_OT_, symObjAddr: 0x5338, symBinAddr: 0xC30C, symSize: 0x1F0 }
  - { offset: 0xA1408, size: 0x8, addend: 0x0, symName: __ZN8nlohmann16json_abi_v3_11_210basic_jsonINSt3__13mapENS2_6vectorENS2_12basic_stringIcNS2_11char_traitsIcEENS2_9allocatorIcEEEEbxydS8_NS0_14adl_serializerENS4_IhNS8_IhEEEEEC2ESt16initializer_listINS0_6detail8json_refISE_EEEbNSG_7value_tE, symObjAddr: 0x1251C, symBinAddr: 0x18FC0, symSize: 0x288 }
  - { offset: 0xA1D1E, size: 0x8, addend: 0x0, symName: __ZN8nlohmann16json_abi_v3_11_26detail20external_constructorILNS1_7value_tE3EE9constructINS0_10basic_jsonINSt3__13mapENS7_6vectorENS7_12basic_stringIcNS7_11char_traitsIcEENS7_9allocatorIcEEEEbxydSD_NS0_14adl_serializerENS9_IhNSD_IhEEEEEEA4_cLi0EEEvRT_RKT0_, symObjAddr: 0x12D90, symBinAddr: 0x19834, symSize: 0xEC }
  - { offset: 0xA2335, size: 0x8, addend: 0x0, symName: __ZN8nlohmann16json_abi_v3_11_210basic_jsonINSt3__13mapENS2_6vectorENS2_12basic_stringIcNS2_11char_traitsIcEENS2_9allocatorIcEEEEbxydS8_NS0_14adl_serializerENS4_IhNS8_IhEEEEEixESA_, symObjAddr: 0xF2F0, symBinAddr: 0x160C4, symSize: 0x120 }
  - { offset: 0xA2723, size: 0x8, addend: 0x0, symName: __ZNSt3__16vectorIN8nlohmann16json_abi_v3_11_210basic_jsonINS_3mapES0_NS_12basic_stringIcNS_11char_traitsIcEENS_9allocatorIcEEEEbxydS8_NS2_14adl_serializerENS0_IhNS8_IhEEEEEENS8_ISE_EEE21__push_back_slow_pathISE_EEPSE_OT_, symObjAddr: 0xD4F0, symBinAddr: 0x1433C, symSize: 0x114 }
  - { offset: 0xA2C04, size: 0x8, addend: 0x0, symName: __ZNK8nlohmann16json_abi_v3_11_210basic_jsonINSt3__13mapENS2_6vectorENS2_12basic_stringIcNS2_11char_traitsIcEENS2_9allocatorIcEEEEbxydS8_NS0_14adl_serializerENS4_IhNS8_IhEEEEE9type_nameEv, symObjAddr: 0xBD00, symBinAddr: 0x12C00, symSize: 0x28 }
  - { offset: 0xA2D4A, size: 0x8, addend: 0x0, symName: __ZNSt3__16vectorIN8nlohmann16json_abi_v3_11_210basic_jsonINS_3mapES0_NS_12basic_stringIcNS_11char_traitsIcEENS_9allocatorIcEEEEbxydS8_NS2_14adl_serializerENS0_IhNS8_IhEEEEEENS8_ISE_EEE21__push_back_slow_pathIRKSE_EEPSE_OT_, symObjAddr: 0x10324, symBinAddr: 0x170E4, symSize: 0x154 }
  - { offset: 0xA378F, size: 0x8, addend: 0x0, symName: __ZN8nlohmann16json_abi_v3_11_210basic_jsonINSt3__13mapENS2_6vectorENS2_12basic_stringIcNS2_11char_traitsIcEENS2_9allocatorIcEEEEbxydS8_NS0_14adl_serializerENS4_IhNS8_IhEEEEE7to_bsonERKSE_NS0_6detail14output_adapterIhNS5_IhNS6_IhEESC_EEEE, symObjAddr: 0x10478, symBinAddr: 0x17238, symSize: 0xE0 }
  - { offset: 0xA3AB6, size: 0x8, addend: 0x0, symName: __ZN8nlohmann16json_abi_v3_11_26detail14output_adapterIhNSt3__112basic_stringIhNS3_11char_traitsIhEENS3_9allocatorIhEEEEED1Ev, symObjAddr: 0x10558, symBinAddr: 0x17318, symSize: 0x60 }
  - { offset: 0xA3D60, size: 0x8, addend: 0x0, symName: __ZN7facesdk15LivenessSession16addDataToPackageEPKhRKN8nlohmann16json_abi_v3_11_210basic_jsonINSt3__13mapENS6_6vectorENS6_12basic_stringIcNS6_11char_traitsIcEENS6_9allocatorIcEEEEbxydSC_NS4_14adl_serializerENS8_IhNSC_IhEEEEEE, symObjAddr: 0x4260, symBinAddr: 0xB234, symSize: 0xE8 }
  - { offset: 0xA3FD4, size: 0x8, addend: 0x0, symName: __ZN7facesdk15LivenessSession12saveDepthMapEPKhRKN8nlohmann16json_abi_v3_11_210basic_jsonINSt3__13mapENS6_6vectorENS6_12basic_stringIcNS6_11char_traitsIcEENS6_9allocatorIcEEEEbxydSC_NS4_14adl_serializerENS8_IhNSC_IhEEEEEE, symObjAddr: 0x4348, symBinAddr: 0xB31C, symSize: 0x4E8 }
  - { offset: 0xA50EC, size: 0x8, addend: 0x0, symName: __ZN7facesdk15LivenessSession14saveCustomDataEPKhRKN8nlohmann16json_abi_v3_11_210basic_jsonINSt3__13mapENS6_6vectorENS6_12basic_stringIcNS6_11char_traitsIcEENS6_9allocatorIcEEEEbxydSC_NS4_14adl_serializerENS8_IhNSC_IhEEEEEE, symObjAddr: 0x4830, symBinAddr: 0xB804, symSize: 0x200 }
  - { offset: 0xA6144, size: 0x8, addend: 0x0, symName: __ZNK8nlohmann16json_abi_v3_11_210basic_jsonINSt3__13mapENS2_6vectorENS2_12basic_stringIcNS2_11char_traitsIcEENS2_9allocatorIcEEEEbxydS8_NS0_14adl_serializerENS4_IhNS8_IhEEEEE2atIRA9_KcLi0EEERKSE_OT_, symObjAddr: 0x4A30, symBinAddr: 0xBA04, symSize: 0x1EC }
  - { offset: 0xA67B2, size: 0x8, addend: 0x0, symName: __ZNK8nlohmann16json_abi_v3_11_210basic_jsonINSt3__13mapENS2_6vectorENS2_12basic_stringIcNS2_11char_traitsIcEENS2_9allocatorIcEEEEbxydS8_NS0_14adl_serializerENS4_IhNS8_IhEEEEE2atIRA10_KcLi0EEERKSE_OT_, symObjAddr: 0x4C1C, symBinAddr: 0xBBF0, symSize: 0x1EC }
  - { offset: 0xA6E20, size: 0x8, addend: 0x0, symName: __ZNK8nlohmann16json_abi_v3_11_210basic_jsonINSt3__13mapENS2_6vectorENS2_12basic_stringIcNS2_11char_traitsIcEENS2_9allocatorIcEEEEbxydS8_NS0_14adl_serializerENS4_IhNS8_IhEEEEE2atIRA6_KcLi0EEERKSE_OT_, symObjAddr: 0x4E08, symBinAddr: 0xBDDC, symSize: 0x1EC }
  - { offset: 0xA7498, size: 0x8, addend: 0x0, symName: __ZNSt3__119__allocator_destroyB8ne180100INS_9allocatorIN7facesdk6LStageEEENS_16reverse_iteratorIPS3_EES7_EEvRT_T0_T1_, symObjAddr: 0xE4A8, symBinAddr: 0x1527C, symSize: 0x144 }
  - { offset: 0xA771D, size: 0x8, addend: 0x0, symName: __ZN8nlohmann16json_abi_v3_11_210basic_jsonINSt3__13mapENS2_6vectorENS2_12basic_stringIcNS2_11char_traitsIcEENS2_9allocatorIcEEEEbxydS8_NS0_14adl_serializerENS4_IhNS8_IhEEEEE12emplace_backIJRKSE_EEERSE_DpOT_, symObjAddr: 0x51E0, symBinAddr: 0xC1B4, symSize: 0x158 }
  - { offset: 0xA7BE7, size: 0x8, addend: 0x0, symName: __ZNSt3__16vectorIN8nlohmann16json_abi_v3_11_210basic_jsonINS_3mapES0_NS_12basic_stringIcNS_11char_traitsIcEENS_9allocatorIcEEEEbxydS8_NS2_14adl_serializerENS0_IhNS8_IhEEEEEENS8_ISE_EEE21__push_back_slow_pathIRKSE_EEPSE_OT_, symObjAddr: 0x10324, symBinAddr: 0x170E4, symSize: 0x154 }
  - { offset: 0xA7BF2, size: 0x8, addend: 0x0, symName: __ZN8nlohmann16json_abi_v3_11_26detail10type_error6createIPKNS0_10basic_jsonINSt3__13mapENS5_6vectorENS5_12basic_stringIcNS5_11char_traitsIcEENS5_9allocatorIcEEEEbxydSB_NS0_14adl_serializerENS7_IhNSB_IhEEEEEELi0EEES2_iRKSD_T_, symObjAddr: 0xBAB0, symBinAddr: 0x129B0, symSize: 0x1CC }
  - { offset: 0xA8A04, size: 0x8, addend: 0x0, symName: __ZN8nlohmann16json_abi_v3_11_26detail12out_of_range6createIPKNS0_10basic_jsonINSt3__13mapENS5_6vectorENS5_12basic_stringIcNS5_11char_traitsIcEENS5_9allocatorIcEEEEbxydSB_NS0_14adl_serializerENS7_IhNSB_IhEEEEEELi0EEES2_iRKSD_T_, symObjAddr: 0x110A4, symBinAddr: 0x17E04, symSize: 0x1D0 }
  - { offset: 0xA9D39, size: 0x8, addend: 0x0, symName: __ZNSt3__16vectorIN8nlohmann16json_abi_v3_11_210basic_jsonINS_3mapES0_NS_12basic_stringIcNS_11char_traitsIcEENS_9allocatorIcEEEEbxydS8_NS2_14adl_serializerENS0_IhNS8_IhEEEEEENS8_ISE_EEE24__emplace_back_slow_pathIJRKSE_EEEPSE_DpOT_, symObjAddr: 0x121F8, symBinAddr: 0x18C9C, symSize: 0x154 }
  - { offset: 0xAA30A, size: 0x8, addend: 0x0, symName: __ZN8nlohmann16json_abi_v3_11_26detail12out_of_range6createIPNS0_10basic_jsonINSt3__13mapENS5_6vectorENS5_12basic_stringIcNS5_11char_traitsIcEENS5_9allocatorIcEEEEbxydSB_NS0_14adl_serializerENS7_IhNSB_IhEEEEEELi0EEES2_iRKSD_T_, symObjAddr: 0x1234C, symBinAddr: 0x18DF0, symSize: 0x1D0 }
  - { offset: 0xAB78C, size: 0x8, addend: 0x0, symName: __ZN7facesdk14LSessionParamsC2ERKN8nlohmann16json_abi_v3_11_210basic_jsonINSt3__13mapENS4_6vectorENS4_12basic_stringIcNS4_11char_traitsIcEENS4_9allocatorIcEEEEbxydSA_NS2_14adl_serializerENS6_IhNSA_IhEEEEEE, symObjAddr: 0x5528, symBinAddr: 0xC4FC, symSize: 0xEB0 }
  - { offset: 0xADE61, size: 0x8, addend: 0x0, symName: __ZNK8nlohmann16json_abi_v3_11_210basic_jsonINSt3__13mapENS2_6vectorENS2_12basic_stringIcNS2_11char_traitsIcEENS2_9allocatorIcEEEEbxydS8_NS0_14adl_serializerENS4_IhNS8_IhEEEEE5valueIN7facesdk12eFL_ScenarioERA9_KcSH_Li0EEET1_OT0_OT_, symObjAddr: 0x63D8, symBinAddr: 0xD3AC, symSize: 0x1F0 }
  - { offset: 0xAE5B8, size: 0x8, addend: 0x0, symName: __ZNK8nlohmann16json_abi_v3_11_210basic_jsonINSt3__13mapENS2_6vectorENS2_12basic_stringIcNS2_11char_traitsIcEENS2_9allocatorIcEEEEbxydS8_NS0_14adl_serializerENS4_IhNS8_IhEEEEE2atIRA14_KcLi0EEERKSE_OT_, symObjAddr: 0x65C8, symBinAddr: 0xD59C, symSize: 0x1EC }
  - { offset: 0xAEC31, size: 0x8, addend: 0x0, symName: __ZNK8nlohmann16json_abi_v3_11_210basic_jsonINSt3__13mapENS2_6vectorENS2_12basic_stringIcNS2_11char_traitsIcEENS2_9allocatorIcEEEEbxydS8_NS0_14adl_serializerENS4_IhNS8_IhEEEEE5valueIRA41_KcRA16_SG_SA_Li0EEET1_OT0_OT_, symObjAddr: 0x67B4, symBinAddr: 0xD788, symSize: 0x280 }
  - { offset: 0xAF8BD, size: 0x8, addend: 0x0, symName: __ZNK8nlohmann16json_abi_v3_11_210basic_jsonINSt3__13mapENS2_6vectorENS2_12basic_stringIcNS2_11char_traitsIcEENS2_9allocatorIcEEEEbxydS8_NS0_14adl_serializerENS4_IhNS8_IhEEEEE5valueIRA7_KcRA19_SG_SA_Li0EEET1_OT0_OT_, symObjAddr: 0x6A34, symBinAddr: 0xDA08, symSize: 0x280 }
  - { offset: 0xB0530, size: 0x8, addend: 0x0, symName: __ZN8nlohmann16json_abi_v3_11_210basic_jsonINSt3__13mapENS2_6vectorENS2_12basic_stringIcNS2_11char_traitsIcEENS2_9allocatorIcEEEEbxydS8_NS0_14adl_serializerENS4_IhNS8_IhEEEEE6acceptIRSA_EEbOT_b, symObjAddr: 0x6CB4, symBinAddr: 0xDC88, symSize: 0x1D0 }
  - { offset: 0xB0DF4, size: 0x8, addend: 0x0, symName: __ZNK8nlohmann16json_abi_v3_11_210basic_jsonINSt3__13mapENS2_6vectorENS2_12basic_stringIcNS2_11char_traitsIcEENS2_9allocatorIcEEEEbxydS8_NS0_14adl_serializerENS4_IhNS8_IhEEEEE2atIRA11_KcLi0EEERKSE_OT_, symObjAddr: 0x6E84, symBinAddr: 0xDE58, symSize: 0x1EC }
  - { offset: 0xB1462, size: 0x8, addend: 0x0, symName: __ZNK8nlohmann16json_abi_v3_11_210basic_jsonINSt3__13mapENS2_6vectorENS2_12basic_stringIcNS2_11char_traitsIcEENS2_9allocatorIcEEEEbxydS8_NS0_14adl_serializerENS4_IhNS8_IhEEEEE2atIRA12_KcLi0EEERKSE_OT_, symObjAddr: 0x7070, symBinAddr: 0xE044, symSize: 0x1EC }
  - { offset: 0xB1AB7, size: 0x8, addend: 0x0, symName: __ZNK8nlohmann16json_abi_v3_11_210basic_jsonINSt3__13mapENS2_6vectorENS2_12basic_stringIcNS2_11char_traitsIcEENS2_9allocatorIcEEEEbxydS8_NS0_14adl_serializerENS4_IhNS8_IhEEEEE5valueIiRA14_KciLi0EEET1_OT0_OT_, symObjAddr: 0x725C, symBinAddr: 0xE230, symSize: 0x1F4 }
  - { offset: 0xB21F8, size: 0x8, addend: 0x0, symName: __ZNK8nlohmann16json_abi_v3_11_210basic_jsonINSt3__13mapENS2_6vectorENS2_12basic_stringIcNS2_11char_traitsIcEENS2_9allocatorIcEEEEbxydS8_NS0_14adl_serializerENS4_IhNS8_IhEEEEE5valueIfRA4_KcfLi0EEET1_OT0_OT_, symObjAddr: 0x7450, symBinAddr: 0xE424, symSize: 0x1F4 }
  - { offset: 0xB2918, size: 0x8, addend: 0x0, symName: __ZNK8nlohmann16json_abi_v3_11_210basic_jsonINSt3__13mapENS2_6vectorENS2_12basic_stringIcNS2_11char_traitsIcEENS2_9allocatorIcEEEEbxydS8_NS0_14adl_serializerENS4_IhNS8_IhEEEEE5valueIfRA12_KcfLi0EEET1_OT0_OT_, symObjAddr: 0x7644, symBinAddr: 0xE618, symSize: 0x1F4 }
  - { offset: 0xB305C, size: 0x8, addend: 0x0, symName: __ZNK8nlohmann16json_abi_v3_11_210basic_jsonINSt3__13mapENS2_6vectorENS2_12basic_stringIcNS2_11char_traitsIcEENS2_9allocatorIcEEEEbxydS8_NS0_14adl_serializerENS4_IhNS8_IhEEEEE5valueIiRA18_KciLi0EEET1_OT0_OT_, symObjAddr: 0x7838, symBinAddr: 0xE80C, symSize: 0x1F4 }
  - { offset: 0xB377C, size: 0x8, addend: 0x0, symName: __ZNK8nlohmann16json_abi_v3_11_210basic_jsonINSt3__13mapENS2_6vectorENS2_12basic_stringIcNS2_11char_traitsIcEENS2_9allocatorIcEEEEbxydS8_NS0_14adl_serializerENS4_IhNS8_IhEEEEE5valueIiRA19_KciLi0EEET1_OT0_OT_, symObjAddr: 0x7A2C, symBinAddr: 0xEA00, symSize: 0x1F4 }
  - { offset: 0xB3E9C, size: 0x8, addend: 0x0, symName: __ZNK8nlohmann16json_abi_v3_11_210basic_jsonINSt3__13mapENS2_6vectorENS2_12basic_stringIcNS2_11char_traitsIcEENS2_9allocatorIcEEEEbxydS8_NS0_14adl_serializerENS4_IhNS8_IhEEEEE5valueIiRA16_KciLi0EEET1_OT0_OT_, symObjAddr: 0x7C20, symBinAddr: 0xEBF4, symSize: 0x1F4 }
  - { offset: 0xB45D5, size: 0x8, addend: 0x0, symName: __ZNK8nlohmann16json_abi_v3_11_210basic_jsonINSt3__13mapENS2_6vectorENS2_12basic_stringIcNS2_11char_traitsIcEENS2_9allocatorIcEEEEbxydS8_NS0_14adl_serializerENS4_IhNS8_IhEEEEE5valueIiRA25_KciLi0EEET1_OT0_OT_, symObjAddr: 0x7E14, symBinAddr: 0xEDE8, symSize: 0x1F4 }
  - { offset: 0xB4D0E, size: 0x8, addend: 0x0, symName: __ZNK8nlohmann16json_abi_v3_11_210basic_jsonINSt3__13mapENS2_6vectorENS2_12basic_stringIcNS2_11char_traitsIcEENS2_9allocatorIcEEEEbxydS8_NS0_14adl_serializerENS4_IhNS8_IhEEEEE5valueIiRA23_KciLi0EEET1_OT0_OT_, symObjAddr: 0x8008, symBinAddr: 0xEFDC, symSize: 0x1F4 }
  - { offset: 0xB5447, size: 0x8, addend: 0x0, symName: __ZNK8nlohmann16json_abi_v3_11_210basic_jsonINSt3__13mapENS2_6vectorENS2_12basic_stringIcNS2_11char_traitsIcEENS2_9allocatorIcEEEEbxydS8_NS0_14adl_serializerENS4_IhNS8_IhEEEEE5valueIiRA27_KciLi0EEET1_OT0_OT_, symObjAddr: 0x81FC, symBinAddr: 0xF1D0, symSize: 0x1F4 }
  - { offset: 0xB5B80, size: 0x8, addend: 0x0, symName: __ZNK8nlohmann16json_abi_v3_11_210basic_jsonINSt3__13mapENS2_6vectorENS2_12basic_stringIcNS2_11char_traitsIcEENS2_9allocatorIcEEEEbxydS8_NS0_14adl_serializerENS4_IhNS8_IhEEEEE5valueIiRA22_KciLi0EEET1_OT0_OT_, symObjAddr: 0x83F0, symBinAddr: 0xF3C4, symSize: 0x1F4 }
  - { offset: 0xB62A0, size: 0x8, addend: 0x0, symName: __ZNK8nlohmann16json_abi_v3_11_210basic_jsonINSt3__13mapENS2_6vectorENS2_12basic_stringIcNS2_11char_traitsIcEENS2_9allocatorIcEEEEbxydS8_NS0_14adl_serializerENS4_IhNS8_IhEEEEE5valueIfRA16_KcfLi0EEET1_OT0_OT_, symObjAddr: 0x85E4, symBinAddr: 0xF5B8, symSize: 0x1F4 }
  - { offset: 0xB69C0, size: 0x8, addend: 0x0, symName: __ZNK8nlohmann16json_abi_v3_11_210basic_jsonINSt3__13mapENS2_6vectorENS2_12basic_stringIcNS2_11char_traitsIcEENS2_9allocatorIcEEEEbxydS8_NS0_14adl_serializerENS4_IhNS8_IhEEEEE5valueIfRA19_KcfLi0EEET1_OT0_OT_, symObjAddr: 0x87D8, symBinAddr: 0xF7AC, symSize: 0x1F4 }
  - { offset: 0xB70F9, size: 0x8, addend: 0x0, symName: __ZNK8nlohmann16json_abi_v3_11_210basic_jsonINSt3__13mapENS2_6vectorENS2_12basic_stringIcNS2_11char_traitsIcEENS2_9allocatorIcEEEEbxydS8_NS0_14adl_serializerENS4_IhNS8_IhEEEEE5valueIfRA17_KcfLi0EEET1_OT0_OT_, symObjAddr: 0x89CC, symBinAddr: 0xF9A0, symSize: 0x1F4 }
  - { offset: 0xB7832, size: 0x8, addend: 0x0, symName: __ZNK8nlohmann16json_abi_v3_11_210basic_jsonINSt3__13mapENS2_6vectorENS2_12basic_stringIcNS2_11char_traitsIcEENS2_9allocatorIcEEEEbxydS8_NS0_14adl_serializerENS4_IhNS8_IhEEEEE5valueIfRA20_KcfLi0EEET1_OT0_OT_, symObjAddr: 0x8BC0, symBinAddr: 0xFB94, symSize: 0x1F4 }
  - { offset: 0xB7F52, size: 0x8, addend: 0x0, symName: __ZNK8nlohmann16json_abi_v3_11_210basic_jsonINSt3__13mapENS2_6vectorENS2_12basic_stringIcNS2_11char_traitsIcEENS2_9allocatorIcEEEEbxydS8_NS0_14adl_serializerENS4_IhNS8_IhEEEEE5valueIfRA11_KcfLi0EEET1_OT0_OT_, symObjAddr: 0x8DB4, symBinAddr: 0xFD88, symSize: 0x1F4 }
  - { offset: 0xB868B, size: 0x8, addend: 0x0, symName: __ZNK8nlohmann16json_abi_v3_11_210basic_jsonINSt3__13mapENS2_6vectorENS2_12basic_stringIcNS2_11char_traitsIcEENS2_9allocatorIcEEEEbxydS8_NS0_14adl_serializerENS4_IhNS8_IhEEEEE5valueIfRA13_KcfLi0EEET1_OT0_OT_, symObjAddr: 0x8FA8, symBinAddr: 0xFF7C, symSize: 0x1F4 }
  - { offset: 0xB8DC4, size: 0x8, addend: 0x0, symName: __ZNK8nlohmann16json_abi_v3_11_210basic_jsonINSt3__13mapENS2_6vectorENS2_12basic_stringIcNS2_11char_traitsIcEENS2_9allocatorIcEEEEbxydS8_NS0_14adl_serializerENS4_IhNS8_IhEEEEE5valueIfRA21_KcfLi0EEET1_OT0_OT_, symObjAddr: 0x919C, symBinAddr: 0x10170, symSize: 0x1F4 }
  - { offset: 0xB94FD, size: 0x8, addend: 0x0, symName: __ZNK8nlohmann16json_abi_v3_11_210basic_jsonINSt3__13mapENS2_6vectorENS2_12basic_stringIcNS2_11char_traitsIcEENS2_9allocatorIcEEEEbxydS8_NS0_14adl_serializerENS4_IhNS8_IhEEEEE5valueIfRA15_KcfLi0EEET1_OT0_OT_, symObjAddr: 0x9390, symBinAddr: 0x10364, symSize: 0x1F4 }
  - { offset: 0xB9C1D, size: 0x8, addend: 0x0, symName: __ZNK8nlohmann16json_abi_v3_11_210basic_jsonINSt3__13mapENS2_6vectorENS2_12basic_stringIcNS2_11char_traitsIcEENS2_9allocatorIcEEEEbxydS8_NS0_14adl_serializerENS4_IhNS8_IhEEEEE5valueIfRA23_KcfLi0EEET1_OT0_OT_, symObjAddr: 0x9584, symBinAddr: 0x10558, symSize: 0x1F4 }
  - { offset: 0xBA33D, size: 0x8, addend: 0x0, symName: __ZNK8nlohmann16json_abi_v3_11_210basic_jsonINSt3__13mapENS2_6vectorENS2_12basic_stringIcNS2_11char_traitsIcEENS2_9allocatorIcEEEEbxydS8_NS0_14adl_serializerENS4_IhNS8_IhEEEEE5valueIfRA22_KcfLi0EEET1_OT0_OT_, symObjAddr: 0x9778, symBinAddr: 0x1074C, symSize: 0x1F4 }
  - { offset: 0xBAA5D, size: 0x8, addend: 0x0, symName: __ZNK8nlohmann16json_abi_v3_11_210basic_jsonINSt3__13mapENS2_6vectorENS2_12basic_stringIcNS2_11char_traitsIcEENS2_9allocatorIcEEEEbxydS8_NS0_14adl_serializerENS4_IhNS8_IhEEEEE5valueIfRA14_KcfLi0EEET1_OT0_OT_, symObjAddr: 0x996C, symBinAddr: 0x10940, symSize: 0x1F4 }
  - { offset: 0xBB183, size: 0x8, addend: 0x0, symName: __ZNK8nlohmann16json_abi_v3_11_210basic_jsonINSt3__13mapENS2_6vectorENS2_12basic_stringIcNS2_11char_traitsIcEENS2_9allocatorIcEEEEbxydS8_NS0_14adl_serializerENS4_IhNS8_IhEEEEE5valueIbRA14_KcbLi0EEET1_OT0_OT_, symObjAddr: 0x9B60, symBinAddr: 0x10B34, symSize: 0x1F0 }
  - { offset: 0xBB82C, size: 0x8, addend: 0x0, symName: __ZNK8nlohmann16json_abi_v3_11_210basic_jsonINSt3__13mapENS2_6vectorENS2_12basic_stringIcNS2_11char_traitsIcEENS2_9allocatorIcEEEEbxydS8_NS0_14adl_serializerENS4_IhNS8_IhEEEEE5valueIbRA12_KcbLi0EEET1_OT0_OT_, symObjAddr: 0x9D50, symBinAddr: 0x10D24, symSize: 0x1F0 }
  - { offset: 0xBBED5, size: 0x8, addend: 0x0, symName: __ZNK8nlohmann16json_abi_v3_11_210basic_jsonINSt3__13mapENS2_6vectorENS2_12basic_stringIcNS2_11char_traitsIcEENS2_9allocatorIcEEEEbxydS8_NS0_14adl_serializerENS4_IhNS8_IhEEEEE5valueIbRA16_KcbLi0EEET1_OT0_OT_, symObjAddr: 0x9F40, symBinAddr: 0x10F14, symSize: 0x1F0 }
  - { offset: 0xBC57E, size: 0x8, addend: 0x0, symName: __ZNK8nlohmann16json_abi_v3_11_210basic_jsonINSt3__13mapENS2_6vectorENS2_12basic_stringIcNS2_11char_traitsIcEENS2_9allocatorIcEEEEbxydS8_NS0_14adl_serializerENS4_IhNS8_IhEEEEE5valueIbRA17_KcbLi0EEET1_OT0_OT_, symObjAddr: 0xA130, symBinAddr: 0x11104, symSize: 0x1F0 }
  - { offset: 0xBCC27, size: 0x8, addend: 0x0, symName: __ZNK8nlohmann16json_abi_v3_11_210basic_jsonINSt3__13mapENS2_6vectorENS2_12basic_stringIcNS2_11char_traitsIcEENS2_9allocatorIcEEEEbxydS8_NS0_14adl_serializerENS4_IhNS8_IhEEEEE5valueIbRA25_KcbLi0EEET1_OT0_OT_, symObjAddr: 0xA320, symBinAddr: 0x112F4, symSize: 0x1F0 }
  - { offset: 0xBD2E9, size: 0x8, addend: 0x0, symName: __ZNK8nlohmann16json_abi_v3_11_210basic_jsonINSt3__13mapENS2_6vectorENS2_12basic_stringIcNS2_11char_traitsIcEENS2_9allocatorIcEEEEbxydS8_NS0_14adl_serializerENS4_IhNS8_IhEEEEE5valueIbRA26_KcbLi0EEET1_OT0_OT_, symObjAddr: 0xA510, symBinAddr: 0x114E4, symSize: 0x1F0 }
  - { offset: 0xBD992, size: 0x8, addend: 0x0, symName: __ZNK8nlohmann16json_abi_v3_11_210basic_jsonINSt3__13mapENS2_6vectorENS2_12basic_stringIcNS2_11char_traitsIcEENS2_9allocatorIcEEEEbxydS8_NS0_14adl_serializerENS4_IhNS8_IhEEEEE5valueIiRA13_KciLi0EEET1_OT0_OT_, symObjAddr: 0xA700, symBinAddr: 0x116D4, symSize: 0x1F4 }
  - { offset: 0xBE0B2, size: 0x8, addend: 0x0, symName: __ZNK8nlohmann16json_abi_v3_11_210basic_jsonINSt3__13mapENS2_6vectorENS2_12basic_stringIcNS2_11char_traitsIcEENS2_9allocatorIcEEEEbxydS8_NS0_14adl_serializerENS4_IhNS8_IhEEEEE5valueIiRA17_KciLi0EEET1_OT0_OT_, symObjAddr: 0xA8F4, symBinAddr: 0x118C8, symSize: 0x1F4 }
  - { offset: 0xBE7D2, size: 0x8, addend: 0x0, symName: __ZNK8nlohmann16json_abi_v3_11_210basic_jsonINSt3__13mapENS2_6vectorENS2_12basic_stringIcNS2_11char_traitsIcEENS2_9allocatorIcEEEEbxydS8_NS0_14adl_serializerENS4_IhNS8_IhEEEEE5valueIiRA11_KciLi0EEET1_OT0_OT_, symObjAddr: 0xAAE8, symBinAddr: 0x11ABC, symSize: 0x1F4 }
  - { offset: 0xBEF0B, size: 0x8, addend: 0x0, symName: __ZNK8nlohmann16json_abi_v3_11_210basic_jsonINSt3__13mapENS2_6vectorENS2_12basic_stringIcNS2_11char_traitsIcEENS2_9allocatorIcEEEEbxydS8_NS0_14adl_serializerENS4_IhNS8_IhEEEEE5valueIRA5_KcRA15_SG_SA_Li0EEET1_OT0_OT_, symObjAddr: 0xACDC, symBinAddr: 0x11CB0, symSize: 0x280 }
  - { offset: 0xBFB7E, size: 0x8, addend: 0x0, symName: __ZNK8nlohmann16json_abi_v3_11_210basic_jsonINSt3__13mapENS2_6vectorENS2_12basic_stringIcNS2_11char_traitsIcEENS2_9allocatorIcEEEEbxydS8_NS0_14adl_serializerENS4_IhNS8_IhEEEEE5valueIiRA15_KciLi0EEET1_OT0_OT_, symObjAddr: 0xAF5C, symBinAddr: 0x11F30, symSize: 0x1F4 }
  - { offset: 0xC029E, size: 0x8, addend: 0x0, symName: __ZNK8nlohmann16json_abi_v3_11_210basic_jsonINSt3__13mapENS2_6vectorENS2_12basic_stringIcNS2_11char_traitsIcEENS2_9allocatorIcEEEEbxydS8_NS0_14adl_serializerENS4_IhNS8_IhEEEEE2atIRA4_KcLi0EEERKSE_OT_, symObjAddr: 0xB150, symBinAddr: 0x12124, symSize: 0x1EC }
  - { offset: 0xC0B48, size: 0x8, addend: 0x0, symName: __ZNK8nlohmann16json_abi_v3_11_26detail9iter_implIKNS0_10basic_jsonINSt3__13mapENS4_6vectorENS4_12basic_stringIcNS4_11char_traitsIcEENS4_9allocatorIcEEEEbxydSA_NS0_14adl_serializerENS6_IhNSA_IhEEEEEEEeqISI_LDn0EEEbRKT_, symObjAddr: 0xC544, symBinAddr: 0x13444, symSize: 0x108 }
  - { offset: 0xC0D9C, size: 0x8, addend: 0x0, symName: __ZNK8nlohmann16json_abi_v3_11_26detail9iter_implIKNS0_10basic_jsonINSt3__13mapENS4_6vectorENS4_12basic_stringIcNS4_11char_traitsIcEENS4_9allocatorIcEEEEbxydSA_NS0_14adl_serializerENS6_IhNSA_IhEEEEEEEptEv, symObjAddr: 0x12E7C, symBinAddr: 0x19920, symSize: 0x100 }
  - { offset: 0xC18A0, size: 0x8, addend: 0x0, symName: __ZN8nlohmann16json_abi_v3_11_26detail6parserINS0_10basic_jsonINSt3__13mapENS4_6vectorENS4_12basic_stringIcNS4_11char_traitsIcEENS4_9allocatorIcEEEEbxydSA_NS0_14adl_serializerENS6_IhNSA_IhEEEEEENS1_22iterator_input_adapterINS4_11__wrap_iterIPKcEEEEEC2EOSM_NS4_8functionIFbiNS1_13parse_event_tERSG_EEEbb, symObjAddr: 0x1326C, symBinAddr: 0x19D10, symSize: 0x134 }
  - { offset: 0xC1AE0, size: 0x8, addend: 0x0, symName: __ZN8nlohmann16json_abi_v3_11_26detail6parserINS0_10basic_jsonINSt3__13mapENS4_6vectorENS4_12basic_stringIcNS4_11char_traitsIcEENS4_9allocatorIcEEEEbxydSA_NS0_14adl_serializerENS6_IhNSA_IhEEEEEENS1_22iterator_input_adapterINS4_11__wrap_iterIPKcEEEEE9sax_parseINS1_17json_sax_acceptorISG_EEEEbPT_b, symObjAddr: 0x15180, symBinAddr: 0x1BC10, symSize: 0x22C }
  - { offset: 0xC2504, size: 0x8, addend: 0x0, symName: __ZN8nlohmann16json_abi_v3_11_26detail6parserINS0_10basic_jsonINSt3__13mapENS4_6vectorENS4_12basic_stringIcNS4_11char_traitsIcEENS4_9allocatorIcEEEEbxydSA_NS0_14adl_serializerENS6_IhNSA_IhEEEEEENS1_22iterator_input_adapterINS4_11__wrap_iterIPKcEEEEED1Ev, symObjAddr: 0x131F4, symBinAddr: 0x19C98, symSize: 0x78 }
  - { offset: 0xC414E, size: 0x8, addend: 0x0, symName: __ZNK8nlohmann16json_abi_v3_11_210basic_jsonINSt3__13mapENS2_6vectorENS2_12basic_stringIcNS2_11char_traitsIcEENS2_9allocatorIcEEEEbxydS8_NS0_14adl_serializerENS4_IhNS8_IhEEEEE8get_implIbLi0EEET_NS0_6detail12priority_tagILj0EEE, symObjAddr: 0x16E94, symBinAddr: 0x1D910, symSize: 0x124 }
  - { offset: 0xC479A, size: 0x8, addend: 0x0, symName: __ZN7facesdk14LSessionParamsC1ERKN8nlohmann16json_abi_v3_11_210basic_jsonINSt3__13mapENS4_6vectorENS4_12basic_stringIcNS4_11char_traitsIcEENS4_9allocatorIcEEEEbxydSA_NS2_14adl_serializerENS6_IhNSA_IhEEEEEE, symObjAddr: 0xB33C, symBinAddr: 0x12310, symSize: 0x4 }
  - { offset: 0xC47D8, size: 0x8, addend: 0x0, symName: __ZN7facesdk14LSessionParamsC1ERKN8nlohmann16json_abi_v3_11_210basic_jsonINSt3__13mapENS4_6vectorENS4_12basic_stringIcNS4_11char_traitsIcEENS4_9allocatorIcEEEEbxydSA_NS2_14adl_serializerENS6_IhNSA_IhEEEEEE, symObjAddr: 0xB33C, symBinAddr: 0x12310, symSize: 0x4 }
  - { offset: 0xC4C63, size: 0x8, addend: 0x0, symName: __ZNSt3__16vectorIN7facesdk12LFrameResultENS_9allocatorIS2_EEED1B8ne180100Ev, symObjAddr: 0xB708, symBinAddr: 0x12608, symSize: 0x58 }
  - { offset: 0xC4CD2, size: 0x8, addend: 0x0, symName: __ZNSt3__16vectorIN7facesdk12LFrameResultENS_9allocatorIS2_EEED1B8ne180100Ev, symObjAddr: 0xB708, symBinAddr: 0x12608, symSize: 0x58 }
  - { offset: 0xC4E73, size: 0x8, addend: 0x0, symName: __ZNSt3__16vectorIN7facesdk5LFaceENS_9allocatorIS2_EEED1B8ne180100Ev, symObjAddr: 0xB820, symBinAddr: 0x12720, symSize: 0x90 }
  - { offset: 0xC5764, size: 0x8, addend: 0x0, symName: __ZN8nlohmann16json_abi_v3_11_26detail10type_errorD1Ev, symObjAddr: 0xBD28, symBinAddr: 0x12C28, symSize: 0x30 }
  - { offset: 0xC5841, size: 0x8, addend: 0x0, symName: __ZN8nlohmann16json_abi_v3_11_26detail10type_errorD0Ev, symObjAddr: 0xBF80, symBinAddr: 0x12E80, symSize: 0x34 }
  - { offset: 0xC58C2, size: 0x8, addend: 0x0, symName: __ZNK8nlohmann16json_abi_v3_11_26detail9exception4whatEv, symObjAddr: 0xBFB4, symBinAddr: 0x12EB4, symSize: 0x8 }
  - { offset: 0xC58E9, size: 0x8, addend: 0x0, symName: __ZN8nlohmann16json_abi_v3_11_26detail9exceptionD1Ev, symObjAddr: 0xBFBC, symBinAddr: 0x12EBC, symSize: 0x30 }
  - { offset: 0xC5945, size: 0x8, addend: 0x0, symName: __ZN8nlohmann16json_abi_v3_11_26detail9exceptionD0Ev, symObjAddr: 0xBFEC, symBinAddr: 0x12EEC, symSize: 0x34 }
  - { offset: 0xC5D8E, size: 0x8, addend: 0x0, symName: __ZNK8nlohmann16json_abi_v3_11_26detail9iter_implIKNS0_10basic_jsonINSt3__13mapENS4_6vectorENS4_12basic_stringIcNS4_11char_traitsIcEENS4_9allocatorIcEEEEbxydSA_NS0_14adl_serializerENS6_IhNSA_IhEEEEEEEdeEv, symObjAddr: 0xC3D4, symBinAddr: 0x132D4, symSize: 0x170 }
  - { offset: 0xC6020, size: 0x8, addend: 0x0, symName: __ZNSt3__16vectorIjNS_9allocatorIjEEE6insertENS_11__wrap_iterIPKjEEOj, symObjAddr: 0xC9B0, symBinAddr: 0x138B0, symSize: 0x374 }
  - { offset: 0xC6AD5, size: 0x8, addend: 0x0, symName: __ZN8nlohmann16json_abi_v3_11_26detail16invalid_iterator6createIPKNS0_10basic_jsonINSt3__13mapENS5_6vectorENS5_12basic_stringIcNS5_11char_traitsIcEENS5_9allocatorIcEEEEbxydSB_NS0_14adl_serializerENS7_IhNSB_IhEEEEEELi0EEES2_iRKSD_T_, symObjAddr: 0xC64C, symBinAddr: 0x1354C, symSize: 0x1C4 }
  - { offset: 0xC7944, size: 0x8, addend: 0x0, symName: __ZN8nlohmann16json_abi_v3_11_26detail16invalid_iteratorD1Ev, symObjAddr: 0xC810, symBinAddr: 0x13710, symSize: 0x30 }
  - { offset: 0xC79BE, size: 0x8, addend: 0x0, symName: __ZN8nlohmann16json_abi_v3_11_26detail16invalid_iteratorD0Ev, symObjAddr: 0xC840, symBinAddr: 0x13740, symSize: 0x34 }
  - { offset: 0xC819A, size: 0x8, addend: 0x0, symName: __ZNSt3__16vectorIN8nlohmann16json_abi_v3_11_210basic_jsonINS_3mapES0_NS_12basic_stringIcNS_11char_traitsIcEENS_9allocatorIcEEEEbxydS8_NS2_14adl_serializerENS0_IhNS8_IhEEEEEENS8_ISE_EEE7reserveEm, symObjAddr: 0xD3B0, symBinAddr: 0x14210, symSize: 0xD8 }
  - { offset: 0xC85AE, size: 0x8, addend: 0x0, symName: __ZNSt3__16__treeINS_12__value_typeINS_12basic_stringIcNS_11char_traitsIcEENS_9allocatorIcEEEEN8nlohmann16json_abi_v3_11_210basic_jsonINS_3mapENS_6vectorES7_bxydS5_NS9_14adl_serializerENSC_IhNS5_IhEEEEEEEENS_19__map_value_compareIS7_SH_NS_4lessIvEELb1EEENS5_ISH_EEE7destroyEPNS_11__tree_nodeISH_PvEE, symObjAddr: 0xD604, symBinAddr: 0x14450, symSize: 0x78 }
  - { offset: 0xC886E, size: 0x8, addend: 0x0, symName: __ZNSt3__16vectorIN8nlohmann16json_abi_v3_11_210basic_jsonINS_3mapES0_NS_12basic_stringIcNS_11char_traitsIcEENS_9allocatorIcEEEEbxydS8_NS2_14adl_serializerENS0_IhNS8_IhEEEEEENS8_ISE_EEED2B8ne180100Ev, symObjAddr: 0xD67C, symBinAddr: 0x144C8, symSize: 0x5C }
  - { offset: 0xC89E4, size: 0x8, addend: 0x0, symName: __ZNSt3__114__split_bufferIN8nlohmann16json_abi_v3_11_210basic_jsonINS_3mapENS_6vectorENS_12basic_stringIcNS_11char_traitsIcEENS_9allocatorIcEEEEbxydS9_NS2_14adl_serializerENS5_IhNS9_IhEEEEEERNS9_ISF_EEED1Ev, symObjAddr: 0xD49C, symBinAddr: 0x142E8, symSize: 0x54 }
  - { offset: 0xC8FA6, size: 0x8, addend: 0x0, symName: __ZNSt3__16vectorIN7facesdk6LStageENS_9allocatorIS2_EEEC2B8ne180100ESt16initializer_listIS2_E, symObjAddr: 0xD890, symBinAddr: 0x146C8, symSize: 0x118 }
  - { offset: 0xC9213, size: 0x8, addend: 0x0, symName: __ZN7facesdk6LStageC2ERKS0_, symObjAddr: 0xDA10, symBinAddr: 0x14834, symSize: 0x1D8 }
  - { offset: 0xC96BA, size: 0x8, addend: 0x0, symName: __ZN7facesdk6LStageC2ERKS0_, symObjAddr: 0xDA10, symBinAddr: 0x14834, symSize: 0x1D8 }
  - { offset: 0xC96C5, size: 0x8, addend: 0x0, symName: __ZNSt3__128__exception_guard_exceptionsINS_6vectorIN7facesdk6LStageENS_9allocatorIS3_EEE16__destroy_vectorEED1B8ne180100Ev, symObjAddr: 0xD9A8, symBinAddr: 0x147E0, symSize: 0x54 }
  - { offset: 0xC9AA4, size: 0x8, addend: 0x0, symName: __ZNSt3__16vectorIN7facesdk12LFrameResultENS_9allocatorIS2_EEE16__init_with_sizeB8ne180100IPS2_S7_EEvT_T0_m, symObjAddr: 0xDBE8, symBinAddr: 0x14A0C, symSize: 0x104 }
  - { offset: 0xCA1A4, size: 0x8, addend: 0x0, symName: __ZN7facesdk12LFrameResultC2ERKS0_, symObjAddr: 0xDD84, symBinAddr: 0x14B94, symSize: 0x158 }
  - { offset: 0xCA648, size: 0x8, addend: 0x0, symName: __ZN7facesdk12LFrameResultC2ERKS0_, symObjAddr: 0xDD84, symBinAddr: 0x14B94, symSize: 0x158 }
  - { offset: 0xCA653, size: 0x8, addend: 0x0, symName: __ZNSt3__128__exception_guard_exceptionsINS_6vectorIN7facesdk12LFrameResultENS_9allocatorIS3_EEE16__destroy_vectorEED1B8ne180100Ev, symObjAddr: 0xDCEC, symBinAddr: 0x14B10, symSize: 0x84 }
  - { offset: 0xCA9EF, size: 0x8, addend: 0x0, symName: __ZNSt3__16vectorIN7facesdk5LFaceENS_9allocatorIS2_EEE16__init_with_sizeB8ne180100IPS2_S7_EEvT_T0_m, symObjAddr: 0xDEDC, symBinAddr: 0x14CEC, symSize: 0xFC }
  - { offset: 0xCB0D7, size: 0x8, addend: 0x0, symName: __ZN7facesdk5LFaceC2ERKS0_, symObjAddr: 0xE0A0, symBinAddr: 0x14E9C, symSize: 0x3E0 }
  - { offset: 0xCBAD9, size: 0x8, addend: 0x0, symName: __ZN7facesdk5LFaceC2ERKS0_, symObjAddr: 0xE0A0, symBinAddr: 0x14E9C, symSize: 0x3E0 }
  - { offset: 0xCBAE4, size: 0x8, addend: 0x0, symName: __ZNSt3__128__exception_guard_exceptionsINS_6vectorIN7facesdk5LFaceENS_9allocatorIS3_EEE16__destroy_vectorEED1B8ne180100Ev, symObjAddr: 0xDFD8, symBinAddr: 0x14DE8, symSize: 0xB4 }
  - { offset: 0xCC05C, size: 0x8, addend: 0x0, symName: __ZNSt3__16vectorIN7facesdk5LFaceENS_9allocatorIS2_EEE16__init_with_sizeB8ne180100IPS2_S7_EEvT_T0_m.cold.1, symObjAddr: 0x16FB8, symBinAddr: 0xC57B70, symSize: 0x5C }
  - { offset: 0xCC641, size: 0x8, addend: 0x0, symName: __ZNSt3__114__split_bufferIN7facesdk12LFrameResultERNS_9allocatorIS2_EEED1Ev, symObjAddr: 0xE904, symBinAddr: 0x156D8, symSize: 0x50 }
  - { offset: 0xCC7DD, size: 0x8, addend: 0x0, symName: __ZNSt12out_of_rangeC1B8ne180100EPKc, symObjAddr: 0xE9B8, symBinAddr: 0x1578C, symSize: 0x24 }
  - { offset: 0xCCC1E, size: 0x8, addend: 0x0, symName: __ZNSt3__114__split_bufferIN7facesdk6LStageERNS_9allocatorIS2_EEE17__destruct_at_endB8ne180100EPS2_NS_17integral_constantIbLb0EEE, symObjAddr: 0xF1A0, symBinAddr: 0x15F74, symSize: 0x150 }
  - { offset: 0xCD5FE, size: 0x8, addend: 0x0, symName: __ZNSt3__114__split_bufferIN7facesdk6LStageERNS_9allocatorIS2_EEED1Ev, symObjAddr: 0xF014, symBinAddr: 0x15DE8, symSize: 0x34 }
  - { offset: 0xCD77A, size: 0x8, addend: 0x0, symName: __ZNSt3__16__treeINS_12__value_typeINS_12basic_stringIcNS_11char_traitsIcEENS_9allocatorIcEEEEN8nlohmann16json_abi_v3_11_210basic_jsonINS_3mapENS_6vectorES7_bxydS5_NS9_14adl_serializerENSC_IhNS5_IhEEEEEEEENS_19__map_value_compareIS7_SH_NS_4lessIvEELb1EEENS5_ISH_EEE25__emplace_unique_key_argsIS7_JS7_DnEEENS_4pairINS_15__tree_iteratorISH_PNS_11__tree_nodeISH_PvEElEEbEERKT_DpOT0_, symObjAddr: 0xF660, symBinAddr: 0x16434, symSize: 0x178 }
  - { offset: 0xCDDA4, size: 0x8, addend: 0x0, symName: __ZNSt3__110unique_ptrINS_11__tree_nodeINS_12__value_typeINS_12basic_stringIcNS_11char_traitsIcEENS_9allocatorIcEEEEN8nlohmann16json_abi_v3_11_210basic_jsonINS_3mapENS_6vectorES8_bxydS6_NSA_14adl_serializerENSD_IhNS6_IhEEEEEEEEPvEENS_22__tree_node_destructorINS6_ISK_EEEEED1B8ne180100Ev, symObjAddr: 0xF7D8, symBinAddr: 0x165AC, symSize: 0x5C }
  - { offset: 0xCEA3A, size: 0x8, addend: 0x0, symName: __ZNSt3__16__treeINS_12__value_typeINS_12basic_stringIcNS_11char_traitsIcEENS_9allocatorIcEEEEN8nlohmann16json_abi_v3_11_210basic_jsonINS_3mapENS_6vectorES7_bxydS5_NS9_14adl_serializerENSC_IhNS5_IhEEEEEEEENS_19__map_value_compareIS7_SH_NS_4lessIvEELb1EEENS5_ISH_EEE30__emplace_hint_unique_key_argsIS7_JRKNS_4pairIKS7_SG_EEEEENSP_INS_15__tree_iteratorISH_PNS_11__tree_nodeISH_PvEElEEbEENS_21__tree_const_iteratorISH_SY_lEERKT_DpOT0_, symObjAddr: 0xFC18, symBinAddr: 0x169EC, symSize: 0x128 }
  - { offset: 0xCEF8C, size: 0x8, addend: 0x0, symName: __ZNSt3__16vectorIN8nlohmann16json_abi_v3_11_210basic_jsonINS_3mapES0_NS_12basic_stringIcNS_11char_traitsIcEENS_9allocatorIcEEEEbxydS8_NS2_14adl_serializerENS0_IhNS8_IhEEEEEENS8_ISE_EEE16__init_with_sizeB8ne180100IPSE_SI_EEvT_T0_m, symObjAddr: 0x10138, symBinAddr: 0x16F0C, symSize: 0x100 }
  - { offset: 0xCF5D1, size: 0x8, addend: 0x0, symName: __ZNSt3__16__treeINS_12__value_typeINS_12basic_stringIcNS_11char_traitsIcEENS_9allocatorIcEEEEN8nlohmann16json_abi_v3_11_210basic_jsonINS_3mapENS_6vectorES7_bxydS5_NS9_14adl_serializerENSC_IhNS5_IhEEEEEEEENS_19__map_value_compareIS7_SH_NS_4lessIvEELb1EEENS5_ISH_EEE12__find_equalIS7_EERPNS_16__tree_node_baseIPvEENS_21__tree_const_iteratorISH_PNS_11__tree_nodeISH_SQ_EElEERPNS_15__tree_end_nodeISS_EEST_RKT_, symObjAddr: 0xFD40, symBinAddr: 0x16B14, symSize: 0x3F8 }
  - { offset: 0xD039D, size: 0x8, addend: 0x0, symName: __ZNSt3__128__exception_guard_exceptionsINS_6vectorIN8nlohmann16json_abi_v3_11_210basic_jsonINS_3mapES1_NS_12basic_stringIcNS_11char_traitsIcEENS_9allocatorIcEEEEbxydS9_NS3_14adl_serializerENS1_IhNS9_IhEEEEEENS9_ISF_EEE16__destroy_vectorEED1B8ne180100Ev, symObjAddr: 0x10238, symBinAddr: 0x1700C, symSize: 0x80 }
  - { offset: 0xD053C, size: 0x8, addend: 0x0, symName: __ZNSt3__128__exception_guard_exceptionsINS_29_AllocatorDestroyRangeReverseINS_9allocatorIN8nlohmann16json_abi_v3_11_210basic_jsonINS_3mapENS_6vectorENS_12basic_stringIcNS_11char_traitsIcEENS2_IcEEEEbxydS2_NS4_14adl_serializerENS7_IhNS2_IhEEEEEEEEPSG_EEED1B8ne180100Ev, symObjAddr: 0x102B8, symBinAddr: 0x1708C, symSize: 0x58 }
  - { offset: 0xD08AC, size: 0x8, addend: 0x0, symName: __ZN8nlohmann16json_abi_v3_11_26detail13binary_writerINS0_10basic_jsonINSt3__13mapENS4_6vectorENS4_12basic_stringIcNS4_11char_traitsIcEENS4_9allocatorIcEEEEbxydSA_NS0_14adl_serializerENS6_IhNSA_IhEEEEEEhE10write_bsonERKSG_, symObjAddr: 0x105B8, symBinAddr: 0x17378, symSize: 0xDC }
  - { offset: 0xD0A84, size: 0x8, addend: 0x0, symName: __ZN8nlohmann16json_abi_v3_11_26detail13binary_writerINS0_10basic_jsonINSt3__13mapENS4_6vectorENS4_12basic_stringIcNS4_11char_traitsIcEENS4_9allocatorIcEEEEbxydSA_NS0_14adl_serializerENS6_IhNSA_IhEEEEEEhED1Ev, symObjAddr: 0x10694, symBinAddr: 0x17454, symSize: 0x60 }
  - { offset: 0xD0BC1, size: 0x8, addend: 0x0, symName: __ZN8nlohmann16json_abi_v3_11_26detail13binary_writerINS0_10basic_jsonINSt3__13mapENS4_6vectorENS4_12basic_stringIcNS4_11char_traitsIcEENS4_9allocatorIcEEEEbxydSA_NS0_14adl_serializerENS6_IhNSA_IhEEEEEEhE17write_bson_objectERKNS5_ISC_SG_NS4_4lessIvEENSA_INS4_4pairIKSC_SG_EEEEEE, symObjAddr: 0x10754, symBinAddr: 0x174B4, symSize: 0x170 }
  - { offset: 0xD114A, size: 0x8, addend: 0x0, symName: __ZN8nlohmann16json_abi_v3_11_26detail13binary_writerINS0_10basic_jsonINSt3__13mapENS4_6vectorENS4_12basic_stringIcNS4_11char_traitsIcEENS4_9allocatorIcEEEEbxydSA_NS0_14adl_serializerENS6_IhNSA_IhEEEEEEhE22calc_bson_element_sizeERKSC_RKSG_, symObjAddr: 0x10D94, symBinAddr: 0x17AF4, symSize: 0x1E4 }
  - { offset: 0xD1759, size: 0x8, addend: 0x0, symName: __ZN8nlohmann16json_abi_v3_11_26detail13binary_writerINS0_10basic_jsonINSt3__13mapENS4_6vectorENS4_12basic_stringIcNS4_11char_traitsIcEENS4_9allocatorIcEEEEbxydSA_NS0_14adl_serializerENS6_IhNSA_IhEEEEEEhE18write_bson_elementERKSC_RKSG_, symObjAddr: 0x10948, symBinAddr: 0x176A8, symSize: 0x44C }
  - { offset: 0xD2284, size: 0x8, addend: 0x0, symName: __ZN8nlohmann16json_abi_v3_11_26detail13binary_writerINS0_10basic_jsonINSt3__13mapENS4_6vectorENS4_12basic_stringIcNS4_11char_traitsIcEENS4_9allocatorIcEEEEbxydSA_NS0_14adl_serializerENS6_IhNSA_IhEEEEEEhE16write_bson_arrayERKSC_RKNS6_ISG_NSA_ISG_EEEE, symObjAddr: 0x113A0, symBinAddr: 0x18100, symSize: 0x1D0 }
  - { offset: 0xD294B, size: 0x8, addend: 0x0, symName: __ZN8nlohmann16json_abi_v3_11_26detail13binary_writerINS0_10basic_jsonINSt3__13mapENS4_6vectorENS4_12basic_stringIcNS4_11char_traitsIcEENS4_9allocatorIcEEEEbxydSA_NS0_14adl_serializerENS6_IhNSA_IhEEEEEEhE18write_bson_integerERKSC_x, symObjAddr: 0x11684, symBinAddr: 0x183E4, symSize: 0x17C }
  - { offset: 0xD2D73, size: 0x8, addend: 0x0, symName: __ZN8nlohmann16json_abi_v3_11_26detail13binary_writerINS0_10basic_jsonINSt3__13mapENS4_6vectorENS4_12basic_stringIcNS4_11char_traitsIcEENS4_9allocatorIcEEEEbxydSA_NS0_14adl_serializerENS6_IhNSA_IhEEEEEEhE19write_bson_unsignedERKSC_RKSG_, symObjAddr: 0x11800, symBinAddr: 0x18560, symSize: 0x280 }
  - { offset: 0xD348E, size: 0x8, addend: 0x0, symName: __ZN8nlohmann16json_abi_v3_11_26detail13binary_writerINS0_10basic_jsonINSt3__13mapENS4_6vectorENS4_12basic_stringIcNS4_11char_traitsIcEENS4_9allocatorIcEEEEbxydSA_NS0_14adl_serializerENS6_IhNSA_IhEEEEEEhE17write_bson_binaryERKSC_RKNS0_27byte_container_with_subtypeISF_EE, symObjAddr: 0x11570, symBinAddr: 0x182D0, symSize: 0x114 }
  - { offset: 0xD3939, size: 0x8, addend: 0x0, symName: __ZN8nlohmann16json_abi_v3_11_26detail13binary_writerINS0_10basic_jsonINSt3__13mapENS4_6vectorENS4_12basic_stringIcNS4_11char_traitsIcEENS4_9allocatorIcEEEEbxydSA_NS0_14adl_serializerENS6_IhNSA_IhEEEEEEhE27calc_bson_entry_header_sizeERKSC_RKSG_, symObjAddr: 0x10F78, symBinAddr: 0x17CD8, symSize: 0x12C }
  - { offset: 0xD3CD4, size: 0x8, addend: 0x0, symName: __ZN8nlohmann16json_abi_v3_11_26detail12out_of_rangeD1Ev, symObjAddr: 0x1133C, symBinAddr: 0x1809C, symSize: 0x30 }
  - { offset: 0xD3D4E, size: 0x8, addend: 0x0, symName: __ZN8nlohmann16json_abi_v3_11_26detail12out_of_rangeD0Ev, symObjAddr: 0x1136C, symBinAddr: 0x180CC, symSize: 0x34 }
  - { offset: 0xD3EB6, size: 0x8, addend: 0x0, symName: __ZNSt3__120__shared_ptr_emplaceIN8nlohmann16json_abi_v3_11_26detail21output_vector_adapterIhNS_9allocatorIhEEEENS5_IS7_EEED1Ev, symObjAddr: 0x11B48, symBinAddr: 0x188A8, symSize: 0x10 }
  - { offset: 0xD3ED8, size: 0x8, addend: 0x0, symName: __ZNSt3__120__shared_ptr_emplaceIN8nlohmann16json_abi_v3_11_26detail21output_vector_adapterIhNS_9allocatorIhEEEENS5_IS7_EEED1Ev, symObjAddr: 0x11B48, symBinAddr: 0x188A8, symSize: 0x10 }
  - { offset: 0xD3F0E, size: 0x8, addend: 0x0, symName: __ZNSt3__120__shared_ptr_emplaceIN8nlohmann16json_abi_v3_11_26detail21output_vector_adapterIhNS_9allocatorIhEEEENS5_IS7_EEED0Ev, symObjAddr: 0x11B58, symBinAddr: 0x188B8, symSize: 0x20 }
  - { offset: 0xD3FFA, size: 0x8, addend: 0x0, symName: __ZNSt3__120__shared_ptr_emplaceIN8nlohmann16json_abi_v3_11_26detail21output_vector_adapterIhNS_9allocatorIhEEEENS5_IS7_EEE16__on_zero_sharedEv, symObjAddr: 0x11B78, symBinAddr: 0x188D8, symSize: 0xC }
  - { offset: 0xD4023, size: 0x8, addend: 0x0, symName: __ZNSt3__120__shared_ptr_emplaceIN8nlohmann16json_abi_v3_11_26detail21output_vector_adapterIhNS_9allocatorIhEEEENS5_IS7_EEE16__on_zero_sharedEv, symObjAddr: 0x11B78, symBinAddr: 0x188D8, symSize: 0xC }
  - { offset: 0xD4041, size: 0x8, addend: 0x0, symName: __ZNSt3__120__shared_ptr_emplaceIN8nlohmann16json_abi_v3_11_26detail21output_vector_adapterIhNS_9allocatorIhEEEENS5_IS7_EEE16__on_zero_sharedEv, symObjAddr: 0x11B78, symBinAddr: 0x188D8, symSize: 0xC }
  - { offset: 0xD405F, size: 0x8, addend: 0x0, symName: __ZNSt3__120__shared_ptr_emplaceIN8nlohmann16json_abi_v3_11_26detail21output_vector_adapterIhNS_9allocatorIhEEEENS5_IS7_EEE16__on_zero_sharedEv, symObjAddr: 0x11B78, symBinAddr: 0x188D8, symSize: 0xC }
  - { offset: 0xD40E2, size: 0x8, addend: 0x0, symName: __ZNSt3__120__shared_ptr_emplaceIN8nlohmann16json_abi_v3_11_26detail21output_vector_adapterIhNS_9allocatorIhEEEENS5_IS7_EEE21__on_zero_shared_weakEv, symObjAddr: 0x11B84, symBinAddr: 0x188E4, symSize: 0x4 }
  - { offset: 0xD4115, size: 0x8, addend: 0x0, symName: __ZNSt3__120__shared_ptr_emplaceIN8nlohmann16json_abi_v3_11_26detail21output_vector_adapterIhNS_9allocatorIhEEEENS5_IS7_EEE21__on_zero_shared_weakEv, symObjAddr: 0x11B84, symBinAddr: 0x188E4, symSize: 0x4 }
  - { offset: 0xD4137, size: 0x8, addend: 0x0, symName: __ZNSt3__120__shared_ptr_emplaceIN8nlohmann16json_abi_v3_11_26detail21output_vector_adapterIhNS_9allocatorIhEEEENS5_IS7_EEE21__on_zero_shared_weakEv, symObjAddr: 0x11B84, symBinAddr: 0x188E4, symSize: 0x4 }
  - { offset: 0xD4159, size: 0x8, addend: 0x0, symName: __ZNSt3__120__shared_ptr_emplaceIN8nlohmann16json_abi_v3_11_26detail21output_vector_adapterIhNS_9allocatorIhEEEENS5_IS7_EEE21__on_zero_shared_weakEv, symObjAddr: 0x11B84, symBinAddr: 0x188E4, symSize: 0x4 }
  - { offset: 0xD4185, size: 0x8, addend: 0x0, symName: __ZNSt3__120__shared_ptr_emplaceIN8nlohmann16json_abi_v3_11_26detail21output_vector_adapterIhNS_9allocatorIhEEEENS5_IS7_EEE21__on_zero_shared_weakEv, symObjAddr: 0x11B84, symBinAddr: 0x188E4, symSize: 0x4 }
  - { offset: 0xD41AC, size: 0x8, addend: 0x0, symName: __ZNSt3__120__shared_ptr_emplaceIN8nlohmann16json_abi_v3_11_26detail21output_vector_adapterIhNS_9allocatorIhEEEENS5_IS7_EEE21__on_zero_shared_weakEv, symObjAddr: 0x11B84, symBinAddr: 0x188E4, symSize: 0x4 }
  - { offset: 0xD4499, size: 0x8, addend: 0x0, symName: __ZN8nlohmann16json_abi_v3_11_26detail21output_vector_adapterIhNSt3__19allocatorIhEEE15write_characterEh, symObjAddr: 0x11B88, symBinAddr: 0x188E8, symSize: 0x1C4 }
  - { offset: 0xD487E, size: 0x8, addend: 0x0, symName: __ZN8nlohmann16json_abi_v3_11_26detail21output_vector_adapterIhNSt3__19allocatorIhEEE16write_charactersEPKhm, symObjAddr: 0x11D4C, symBinAddr: 0x18AAC, symSize: 0x18 }
  - { offset: 0xD48F3, size: 0x8, addend: 0x0, symName: __ZN8nlohmann16json_abi_v3_11_26detail21output_vector_adapterIhNSt3__19allocatorIhEEE16write_charactersEPKhm, symObjAddr: 0x11D4C, symBinAddr: 0x18AAC, symSize: 0x18 }
  - { offset: 0xD5102, size: 0x8, addend: 0x0, symName: __ZN8nlohmann16json_abi_v3_11_26detail6concatINSt3__112basic_stringIcNS3_11char_traitsIcEENS3_9allocatorIcEEEEJRA22_KcPSA_EEET_DpOT0_, symObjAddr: 0x12028, symBinAddr: 0x18ACC, symSize: 0x84 }
  - { offset: 0xD5125, size: 0x8, addend: 0x0, symName: __ZN8nlohmann16json_abi_v3_11_26detail21output_vector_adapterIhNSt3__19allocatorIhEEED1Ev, symObjAddr: 0x11D64, symBinAddr: 0x18AC4, symSize: 0x4 }
  - { offset: 0xD5150, size: 0x8, addend: 0x0, symName: __ZN8nlohmann16json_abi_v3_11_26detail21output_vector_adapterIhNSt3__19allocatorIhEEED0Ev, symObjAddr: 0x11D68, symBinAddr: 0x18AC8, symSize: 0x4 }
  - { offset: 0xD580D, size: 0x8, addend: 0x0, symName: __ZNK8nlohmann16json_abi_v3_11_210basic_jsonINSt3__13mapENS2_6vectorENS2_12basic_stringIcNS2_11char_traitsIcEENS2_9allocatorIcEEEEbxydS8_NS0_14adl_serializerENS4_IhNS8_IhEEEEEixEm, symObjAddr: 0x12970, symBinAddr: 0x19414, symSize: 0xE0 }
  - { offset: 0xD5A00, size: 0x8, addend: 0x0, symName: __ZNSt3__16__treeINS_12__value_typeINS_12basic_stringIcNS_11char_traitsIcEENS_9allocatorIcEEEEN8nlohmann16json_abi_v3_11_210basic_jsonINS_3mapENS_6vectorES7_bxydS5_NS9_14adl_serializerENSC_IhNS5_IhEEEEEEEENS_19__map_value_compareIS7_SH_NS_4lessIvEELb1EEENS5_ISH_EEE25__emplace_unique_key_argsIS7_JS7_SG_EEENS_4pairINS_15__tree_iteratorISH_PNS_11__tree_nodeISH_PvEElEEbEERKT_DpOT0_, symObjAddr: 0x12AD4, symBinAddr: 0x19578, symSize: 0x194 }
  - { offset: 0xD5FC1, size: 0x8, addend: 0x0, symName: __ZNSt3__16vectorIN8nlohmann16json_abi_v3_11_210basic_jsonINS_3mapES0_NS_12basic_stringIcNS_11char_traitsIcEENS_9allocatorIcEEEEbxydS8_NS2_14adl_serializerENS0_IhNS8_IhEEEEEENS8_ISE_EEE16__init_with_sizeB8ne180100IPKNS2_6detail8json_refISE_EESM_EEvT_T0_m, symObjAddr: 0x12C68, symBinAddr: 0x1970C, symSize: 0x128 }
  - { offset: 0xD64C4, size: 0x8, addend: 0x0, symName: __ZN8nlohmann16json_abi_v3_11_26detail10type_error6createIDnLi0EEES2_iRKNSt3__112basic_stringIcNS4_11char_traitsIcEENS4_9allocatorIcEEEET_, symObjAddr: 0x127A4, symBinAddr: 0x19248, symSize: 0x1CC }
  - { offset: 0xD7953, size: 0x8, addend: 0x0, symName: __ZN8nlohmann16json_abi_v3_11_26detail5lexerINS0_10basic_jsonINSt3__13mapENS4_6vectorENS4_12basic_stringIcNS4_11char_traitsIcEENS4_9allocatorIcEEEEbxydSA_NS0_14adl_serializerENS6_IhNSA_IhEEEEEENS1_22iterator_input_adapterINS4_11__wrap_iterIPKcEEEEE4scanEv, symObjAddr: 0x133EC, symBinAddr: 0x19E90, symSize: 0x28C }
  - { offset: 0xD7C64, size: 0x8, addend: 0x0, symName: __ZN8nlohmann16json_abi_v3_11_26detail5lexerINS0_10basic_jsonINSt3__13mapENS4_6vectorENS4_12basic_stringIcNS4_11char_traitsIcEENS4_9allocatorIcEEEEbxydSA_NS0_14adl_serializerENS6_IhNSA_IhEEEEEENS1_22iterator_input_adapterINS4_11__wrap_iterIPKcEEEEED1Ev, symObjAddr: 0x133A0, symBinAddr: 0x19E44, symSize: 0x4C }
  - { offset: 0xD7F80, size: 0x8, addend: 0x0, symName: __ZN8nlohmann16json_abi_v3_11_26detail5lexerINS0_10basic_jsonINSt3__13mapENS4_6vectorENS4_12basic_stringIcNS4_11char_traitsIcEENS4_9allocatorIcEEEEbxydSA_NS0_14adl_serializerENS6_IhNSA_IhEEEEEENS1_22iterator_input_adapterINS4_11__wrap_iterIPKcEEEEE3getEv, symObjAddr: 0x14D68, symBinAddr: 0x1B80C, symSize: 0x258 }
  - { offset: 0xD8431, size: 0x8, addend: 0x0, symName: __ZN8nlohmann16json_abi_v3_11_26detail5lexerINS0_10basic_jsonINSt3__13mapENS4_6vectorENS4_12basic_stringIcNS4_11char_traitsIcEENS4_9allocatorIcEEEEbxydSA_NS0_14adl_serializerENS6_IhNSA_IhEEEEEENS1_22iterator_input_adapterINS4_11__wrap_iterIPKcEEEEE15skip_whitespaceEv, symObjAddr: 0x13678, symBinAddr: 0x1A11C, symSize: 0x274 }
  - { offset: 0xD892A, size: 0x8, addend: 0x0, symName: __ZN8nlohmann16json_abi_v3_11_26detail5lexerINS0_10basic_jsonINSt3__13mapENS4_6vectorENS4_12basic_stringIcNS4_11char_traitsIcEENS4_9allocatorIcEEEEbxydSA_NS0_14adl_serializerENS6_IhNSA_IhEEEEEENS1_22iterator_input_adapterINS4_11__wrap_iterIPKcEEEEE12scan_commentEv, symObjAddr: 0x138EC, symBinAddr: 0x1A390, symSize: 0x120 }
  - { offset: 0xD893C, size: 0x8, addend: 0x0, symName: __ZN8nlohmann16json_abi_v3_11_26detail5lexerINS0_10basic_jsonINSt3__13mapENS4_6vectorENS4_12basic_stringIcNS4_11char_traitsIcEENS4_9allocatorIcEEEEbxydSA_NS0_14adl_serializerENS6_IhNSA_IhEEEEEENS1_22iterator_input_adapterINS4_11__wrap_iterIPKcEEEEE12scan_commentEv, symObjAddr: 0x138EC, symBinAddr: 0x1A390, symSize: 0x120 }
  - { offset: 0xD8A3C, size: 0x8, addend: 0x0, symName: __ZN8nlohmann16json_abi_v3_11_26detail5lexerINS0_10basic_jsonINSt3__13mapENS4_6vectorENS4_12basic_stringIcNS4_11char_traitsIcEENS4_9allocatorIcEEEEbxydSA_NS0_14adl_serializerENS6_IhNSA_IhEEEEEENS1_22iterator_input_adapterINS4_11__wrap_iterIPKcEEEEE11scan_numberEv, symObjAddr: 0x14764, symBinAddr: 0x1B208, symSize: 0x604 }
  - { offset: 0xD9859, size: 0x8, addend: 0x0, symName: __ZN8nlohmann16json_abi_v3_11_26detail5lexerINS0_10basic_jsonINSt3__13mapENS4_6vectorENS4_12basic_stringIcNS4_11char_traitsIcEENS4_9allocatorIcEEEEbxydSA_NS0_14adl_serializerENS6_IhNSA_IhEEEEEENS1_22iterator_input_adapterINS4_11__wrap_iterIPKcEEEEE11scan_stringEv, symObjAddr: 0x13A0C, symBinAddr: 0x1A4B0, symSize: 0xD58 }
  - { offset: 0xDB2D1, size: 0x8, addend: 0x0, symName: __ZN8nlohmann16json_abi_v3_11_26detail5lexerINS0_10basic_jsonINSt3__13mapENS4_6vectorENS4_12basic_stringIcNS4_11char_traitsIcEENS4_9allocatorIcEEEEbxydSA_NS0_14adl_serializerENS6_IhNSA_IhEEEEEENS1_22iterator_input_adapterINS4_11__wrap_iterIPKcEEEEE13get_codepointEv, symObjAddr: 0x14FD4, symBinAddr: 0x1BA64, symSize: 0x1AC }
  - { offset: 0xDB3AA, size: 0x8, addend: 0x0, symName: __ZN8nlohmann16json_abi_v3_11_26detail5lexerINS0_10basic_jsonINSt3__13mapENS4_6vectorENS4_12basic_stringIcNS4_11char_traitsIcEENS4_9allocatorIcEEEEbxydSA_NS0_14adl_serializerENS6_IhNSA_IhEEEEEENS1_22iterator_input_adapterINS4_11__wrap_iterIPKcEEEEE13get_codepointEv, symObjAddr: 0x14FD4, symBinAddr: 0x1BA64, symSize: 0x1AC }
  - { offset: 0xDB6E7, size: 0x8, addend: 0x0, symName: __ZN8nlohmann16json_abi_v3_11_26detail6parserINS0_10basic_jsonINSt3__13mapENS4_6vectorENS4_12basic_stringIcNS4_11char_traitsIcEENS4_9allocatorIcEEEEbxydSA_NS0_14adl_serializerENS6_IhNSA_IhEEEEEENS1_22iterator_input_adapterINS4_11__wrap_iterIPKcEEEEE18sax_parse_internalINS1_17json_sax_acceptorISG_EEEEbPT_, symObjAddr: 0x153AC, symBinAddr: 0x1BE3C, symSize: 0x8E4 }
  - { offset: 0xDCE5B, size: 0x8, addend: 0x0, symName: __ZN8nlohmann16json_abi_v3_11_26detail6parserINS0_10basic_jsonINSt3__13mapENS4_6vectorENS4_12basic_stringIcNS4_11char_traitsIcEENS4_9allocatorIcEEEEbxydSA_NS0_14adl_serializerENS6_IhNSA_IhEEEEEENS1_22iterator_input_adapterINS4_11__wrap_iterIPKcEEEEE17exception_messageENS1_10lexer_baseISG_E10token_typeERKSC_, symObjAddr: 0x15FBC, symBinAddr: 0x1CA4C, symSize: 0x3CC }
  - { offset: 0xDE169, size: 0x8, addend: 0x0, symName: __ZN8nlohmann16json_abi_v3_11_26detail11parse_error6createIDnLi0EEES2_iRKNS1_10position_tERKNSt3__112basic_stringIcNS7_11char_traitsIcEENS7_9allocatorIcEEEET_, symObjAddr: 0x15D74, symBinAddr: 0x1C804, symSize: 0x248 }
  - { offset: 0xDF3D0, size: 0x8, addend: 0x0, symName: __ZNSt3__16vectorIbNS_9allocatorIbEEE7reserveEm, symObjAddr: 0x1663C, symBinAddr: 0x1D0CC, symSize: 0x100 }
  - { offset: 0xDF7BA, size: 0x8, addend: 0x0, symName: __ZNK8nlohmann16json_abi_v3_11_26detail5lexerINS0_10basic_jsonINSt3__13mapENS4_6vectorENS4_12basic_stringIcNS4_11char_traitsIcEENS4_9allocatorIcEEEEbxydSA_NS0_14adl_serializerENS6_IhNSA_IhEEEEEENS1_22iterator_input_adapterINS4_11__wrap_iterIPKcEEEEE16get_token_stringEv, symObjAddr: 0x15C90, symBinAddr: 0x1C720, symSize: 0xE4 }
  - { offset: 0xDFA43, size: 0x8, addend: 0x0, symName: __ZN8nlohmann16json_abi_v3_11_26detail12out_of_range6createIDnLi0EEES2_iRKNSt3__112basic_stringIcNS4_11char_traitsIcEENS4_9allocatorIcEEEET_, symObjAddr: 0x163B8, symBinAddr: 0x1CE48, symSize: 0x1D0 }
  - { offset: 0xE086E, size: 0x8, addend: 0x0, symName: __ZN8nlohmann16json_abi_v3_11_26detail6concatINSt3__112basic_stringIcNS3_11char_traitsIcEENS3_9allocatorIcEEEEJS9_RA12_KcS9_RA3_SA_S9_RKS9_EEET_DpOT0_, symObjAddr: 0x16750, symBinAddr: 0x1D1CC, symSize: 0x190 }
  - { offset: 0xE08EF, size: 0x8, addend: 0x0, symName: __ZN8nlohmann16json_abi_v3_11_26detail11parse_error15position_stringERKNS1_10position_tE, symObjAddr: 0x168E0, symBinAddr: 0x1D35C, symSize: 0xE8 }
  - { offset: 0xE0DE0, size: 0x8, addend: 0x0, symName: __ZN8nlohmann16json_abi_v3_11_26detail11parse_errorD1Ev, symObjAddr: 0x16388, symBinAddr: 0x1CE18, symSize: 0x30 }
  - { offset: 0xE104E, size: 0x8, addend: 0x0, symName: __ZN8nlohmann16json_abi_v3_11_26detail11parse_errorD0Ev, symObjAddr: 0x16AD4, symBinAddr: 0x1D550, symSize: 0x34 }
  - { offset: 0xE2FF5, size: 0x8, addend: 0x0, symName: __ZN7facesdk6Logger9setStatusEb, symObjAddr: 0x0, symBinAddr: 0x1DA34, symSize: 0x8 }
  - { offset: 0xEB69D, size: 0x8, addend: 0x0, symName: __ZN7facesdk6Logger9setStatusEb, symObjAddr: 0x0, symBinAddr: 0x1DA34, symSize: 0x8 }
  - { offset: 0xF37F4, size: 0x8, addend: 0x0, symName: __ZNSt3__125__throw_bad_function_callB8ne180100Ev, symObjAddr: 0x11E4, symBinAddr: 0x1E754, symSize: 0x34 }
  - { offset: 0xF5F59, size: 0x8, addend: 0x0, symName: __ZN7facesdk12MessageQueueC1Em, symObjAddr: 0xA4, symBinAddr: 0x1DA3C, symSize: 0xA4 }
  - { offset: 0xF62D0, size: 0x8, addend: 0x0, symName: __ZN7facesdk12MessageQueue4pushENS_11eFL_MessageE, symObjAddr: 0x148, symBinAddr: 0x1DAE0, symSize: 0xCC }
  - { offset: 0xF6601, size: 0x8, addend: 0x0, symName: __ZNSt3__15dequeIN7facesdk11eFL_MessageENS_9allocatorIS2_EEE19__add_back_capacityEv, symObjAddr: 0x8DC, symBinAddr: 0x1DE74, symSize: 0x5BC }
  - { offset: 0xF788B, size: 0x8, addend: 0x0, symName: __ZN7facesdk12MessageQueue5clearEv, symObjAddr: 0x228, symBinAddr: 0x1DBAC, symSize: 0x74 }
  - { offset: 0xF7DBA, size: 0x8, addend: 0x0, symName: __ZNK7facesdk12MessageQueue17prevailingMessageEv, symObjAddr: 0x4D0, symBinAddr: 0x1DC20, symSize: 0x17C }
  - { offset: 0xF8658, size: 0x8, addend: 0x0, symName: __ZNSt3__112__hash_tableINS_17__hash_value_typeIN7facesdk11eFL_MessageEmEENS_22__unordered_map_hasherIS3_S4_NS_4hashIS3_EENS_8equal_toIS3_EELb1EEENS_21__unordered_map_equalIS3_S4_S9_S7_Lb1EEENS_9allocatorIS4_EEE25__emplace_unique_key_argsIS3_JRKNS_21piecewise_construct_tENS_5tupleIJRKS3_EEENSK_IJEEEEEENS_4pairINS_15__hash_iteratorIPNS_11__hash_nodeIS4_PvEEEEbEERKT_DpOT0_, symObjAddr: 0x1230, symBinAddr: 0x1E7A0, symSize: 0x328 }
  - { offset: 0xF8DAC, size: 0x8, addend: 0x0, symName: __ZNSt3__113unordered_mapIN7facesdk11eFL_MessageEmNS_4hashIS2_EENS_8equal_toIS2_EENS_9allocatorINS_4pairIKS2_mEEEEED1B8ne180100Ev, symObjAddr: 0x740, symBinAddr: 0x1DD9C, symSize: 0x48 }
  - { offset: 0xF9081, size: 0x8, addend: 0x0, symName: __ZNK7facesdk12MessageQueue15messageFractionENS_11eFL_MessageE, symObjAddr: 0x788, symBinAddr: 0x1DDE4, symSize: 0x90 }
  - { offset: 0xF90D3, size: 0x8, addend: 0x0, symName: __ZNK7facesdk12MessageQueue15messageFractionENS_11eFL_MessageE, symObjAddr: 0x788, symBinAddr: 0x1DDE4, symSize: 0x90 }
  - { offset: 0xF90F0, size: 0x8, addend: 0x0, symName: __ZNK7facesdk12MessageQueue15messageFractionENS_11eFL_MessageE, symObjAddr: 0x788, symBinAddr: 0x1DDE4, symSize: 0x90 }
  - { offset: 0xF9117, size: 0x8, addend: 0x0, symName: __ZNK7facesdk12MessageQueue15messageFractionENS_11eFL_MessageE, symObjAddr: 0x788, symBinAddr: 0x1DDE4, symSize: 0x90 }
  - { offset: 0xF98A9, size: 0x8, addend: 0x0, symName: __ZNSt3__114__split_bufferIPN7facesdk11eFL_MessageENS_9allocatorIS3_EEE9push_backEOS3_, symObjAddr: 0xE98, symBinAddr: 0x1E430, symSize: 0x18C }
  - { offset: 0xF9D45, size: 0x8, addend: 0x0, symName: __ZNSt3__114__split_bufferIPN7facesdk11eFL_MessageENS_9allocatorIS3_EEE10push_frontEOS3_, symObjAddr: 0x1024, symBinAddr: 0x1E5BC, symSize: 0x198 }
  - { offset: 0xF9D50, size: 0x8, addend: 0x0, symName: __ZNSt3__114__split_bufferIPN7facesdk11eFL_MessageENS_9allocatorIS3_EEE10push_frontEOS3_, symObjAddr: 0x1024, symBinAddr: 0x1E5BC, symSize: 0x198 }
  - { offset: 0xFA237, size: 0x8, addend: 0x0, symName: __ZNSt3__117bad_function_callD1Ev, symObjAddr: 0x1218, symBinAddr: 0x1E788, symSize: 0x4 }
  - { offset: 0xFA259, size: 0x8, addend: 0x0, symName: __ZNSt3__117bad_function_callD1Ev, symObjAddr: 0x1218, symBinAddr: 0x1E788, symSize: 0x4 }
  - { offset: 0xFA28D, size: 0x8, addend: 0x0, symName: __ZNSt3__117bad_function_callD0Ev, symObjAddr: 0x121C, symBinAddr: 0x1E78C, symSize: 0x14 }
  - { offset: 0xFA813, size: 0x8, addend: 0x0, symName: __ZNSt3__112__hash_tableINS_17__hash_value_typeIN7facesdk11eFL_MessageEmEENS_22__unordered_map_hasherIS3_S4_NS_4hashIS3_EENS_8equal_toIS3_EELb1EEENS_21__unordered_map_equalIS3_S4_S9_S7_Lb1EEENS_9allocatorIS4_EEE11__do_rehashILb1EEEvm, symObjAddr: 0x1558, symBinAddr: 0x1EAC8, symSize: 0x1AC }
  - { offset: 0xFCBE5, size: 0x8, addend: 0x0, symName: '+[RGLLivenessCore process:inputData:inputJSON:outputData:outputJSON:]', symObjAddr: 0x0, symBinAddr: 0x1EC74, symSize: 0xF4 }
  - { offset: 0xFD89B, size: 0x8, addend: 0x0, symName: '+[RGLLivenessCore process:inputData:inputJSON:outputData:outputJSON:]', symObjAddr: 0x0, symBinAddr: 0x1EC74, symSize: 0xF4 }
  - { offset: 0xFDAC0, size: 0x8, addend: 0x0, symName: '+[RGLLivenessCore process:inputBufferParams:inputJSON:outputData:outputJSON:]', symObjAddr: 0xF4, symBinAddr: 0x1ED68, symSize: 0x418 }
  - { offset: 0xFE07C, size: 0x8, addend: 0x0, symName: '+[RGLLivenessCore addPackage:inputBufferParams:inputJSON:outputData:outputJSON:]', symObjAddr: 0x50C, symBinAddr: 0x1F180, symSize: 0x214 }
  - { offset: 0xFE1AE, size: 0x8, addend: 0x0, symName: '+[RGLLivenessCore process:]', symObjAddr: 0x720, symBinAddr: 0x1F394, symSize: 0x2C8 }
  - { offset: 0x10B3D2, size: 0x8, addend: 0x0, symName: __ZN7facesdk8ResourceC1ERKNSt3__112basic_stringIcNS1_11char_traitsIcEENS1_9allocatorIcEEEE, symObjAddr: 0x6C, symBinAddr: 0x1F65C, symSize: 0x6C }
  - { offset: 0x10B6EC, size: 0x8, addend: 0x0, symName: __ZNK7facesdk8Resource7getFileERKNSt3__112basic_stringIcNS1_11char_traitsIcEENS1_9allocatorIcEEEE, symObjAddr: 0x190, symBinAddr: 0x1F6C8, symSize: 0xFC }
  - { offset: 0x10DDE0, size: 0x8, addend: 0x0, symName: __MergedGlobals, symObjAddr: 0x65BF40, symBinAddr: 0xEB3350, symSize: 0x0 }
  - { offset: 0x119DE4, size: 0x8, addend: 0x0, symName: __ZN5Eigen8internal26call_dense_assignment_loopINS_6MatrixIfLin1ELin1ELi0ELin1ELin1EEENS_13CwiseBinaryOpINS0_13scalar_sum_opIffEEKNS_12ArrayWrapperIKNS_5BlockIKNS_3MapIKNS2_IfLin1ELin1ELi1ELin1ELin1EEELi0ENS_6StrideILi0ELi0EEEEELin1ELin1ELb0EEEEEKNS4_INS0_17scalar_product_opIffEEKNS4_ISL_SJ_KNS_14CwiseNullaryOpINS0_18scalar_constant_opIfEEKNS_5ArrayIfLin1ELin1ELi1ELin1ELin1EEEEEEESJ_EEEENS0_9assign_opIffEEEEvRT_RKT0_RKT1_, symObjAddr: 0x1A4EC, symBinAddr: 0x35428, symSize: 0x338 }
  - { offset: 0x11A9A1, size: 0x8, addend: 0x0, symName: __ZN5Eigen8internal26call_dense_assignment_loopINS_6MatrixIfLin1ELin1ELi0ELin1ELin1EEENS_13CwiseBinaryOpINS0_20scalar_difference_opIffEEKNS_12ArrayWrapperIS3_EEKNS4_INS0_18scalar_quotient_opIffEES9_KNS_14CwiseNullaryOpINS0_18scalar_constant_opIfEEKNS_5ArrayIfLin1ELin1ELi0ELin1ELin1EEEEEEEEENS0_9assign_opIffEEEEvRT_RKT0_RKT1_, symObjAddr: 0x1A8B4, symBinAddr: 0x35760, symSize: 0x1CC }
  - { offset: 0x11B375, size: 0x8, addend: 0x0, symName: __ZN5Eigen8internal26call_dense_assignment_loopINS_6MatrixIfLin1ELin1ELi0ELin1ELin1EEENS_13CwiseBinaryOpINS0_13scalar_sum_opIffEEKNS_12ArrayWrapperIS3_EES9_EENS0_9assign_opIffEEEEvRT_RKT0_RKT1_, symObjAddr: 0x1AA80, symBinAddr: 0x3592C, symSize: 0x19C }
  - { offset: 0x11CB1A, size: 0x8, addend: 0x0, symName: __MergedGlobals, symObjAddr: 0x65BF40, symBinAddr: 0xEB3350, symSize: 0x0 }
  - { offset: 0x11CB36, size: 0x8, addend: 0x0, symName: __MergedGlobals, symObjAddr: 0x65BF40, symBinAddr: 0xEB3350, symSize: 0x0 }
  - { offset: 0x1794C3, size: 0x8, addend: 0x0, symName: __ZNSt3__119piecewise_constructE, symObjAddr: 0x1EAE6, symBinAddr: 0xDC7BAE, symSize: 0x0 }
  - { offset: 0x193E00, size: 0x8, addend: 0x0, symName: __ZNSt3__135__uninitialized_allocator_copy_implB8ne180100INS_9allocatorINS_6vectorIiNS1_IiEEEEEEPKS4_S7_PS4_EET2_RT_T0_T1_S9_, symObjAddr: 0x149AC, symBinAddr: 0x2F9B8, symSize: 0x100 }
  - { offset: 0x197173, size: 0x8, addend: 0x0, symName: __ZNSt3__113__tree_removeB8ne180100IPNS_16__tree_node_baseIPvEEEEvT_S5_, symObjAddr: 0xE9E8, symBinAddr: 0x2A5D4, symSize: 0x3C4 }
  - { offset: 0x19924B, size: 0x8, addend: 0x0, symName: __ZNSt3__135__uninitialized_allocator_copy_implB8ne180100INS_9allocatorINS_6vectorIfNS1_IfEEEEEEPKS4_S7_PS4_EET2_RT_T0_T1_S9_, symObjAddr: 0x18D74, symBinAddr: 0x33D44, symSize: 0x100 }
  - { offset: 0x1998FC, size: 0x8, addend: 0x0, symName: __ZNSt3__135__uninitialized_allocator_copy_implB8ne180100INS_9allocatorINS_6vectorIiNS1_IiEEEEEEPS4_S6_S6_EET2_RT_T0_T1_S7_, symObjAddr: 0x1749C, symBinAddr: 0x32494, symSize: 0x100 }
  - { offset: 0x19B8A6, size: 0x8, addend: 0x0, symName: __ZNSt3__135__uninitialized_allocator_copy_implB8ne180100INS_9allocatorINS_6vectorIhNS1_IhEEEEEEPKS4_S7_PS4_EET2_RT_T0_T1_S9_, symObjAddr: 0x1C0FC, symBinAddr: 0x36E78, symSize: 0xFC }
  - { offset: 0x1A1527, size: 0x8, addend: 0x0, symName: __MergedGlobals, symObjAddr: 0x65BF40, symBinAddr: 0xEB3350, symSize: 0x0 }
  - { offset: 0x1A15A3, size: 0x8, addend: 0x0, symName: __MergedGlobals, symObjAddr: 0x65BF40, symBinAddr: 0xEB3350, symSize: 0x0 }
  - { offset: 0x1A161A, size: 0x8, addend: 0x0, symName: __MergedGlobals, symObjAddr: 0x65BF40, symBinAddr: 0xEB3350, symSize: 0x0 }
  - { offset: 0x1A168C, size: 0x8, addend: 0x0, symName: __MergedGlobals, symObjAddr: 0x65BF40, symBinAddr: 0xEB3350, symSize: 0x0 }
  - { offset: 0x1A239A, size: 0x8, addend: 0x0, symName: __MergedGlobals, symObjAddr: 0x65BF40, symBinAddr: 0xEB3350, symSize: 0x0 }
  - { offset: 0x1A241A, size: 0x8, addend: 0x0, symName: __MergedGlobals, symObjAddr: 0x65BF40, symBinAddr: 0xEB3350, symSize: 0x0 }
  - { offset: 0x1A2436, size: 0x8, addend: 0x0, symName: __MergedGlobals, symObjAddr: 0x65BF40, symBinAddr: 0xEB3350, symSize: 0x0 }
  - { offset: 0x1A2452, size: 0x8, addend: 0x0, symName: __ZN7facesdkL6loggerE, symObjAddr: 0x65BF30, symBinAddr: 0xEB3340, symSize: 0x0 }
  - { offset: 0x1A298F, size: 0x8, addend: 0x0, symName: __ZN7facesdk7processEiPvPcPS0_PS1_, symObjAddr: 0x1A0, symBinAddr: 0x1F964, symSize: 0x150 }
  - { offset: 0x1A2C08, size: 0x8, addend: 0x0, symName: __ZN7facesdk7cmdInitEPKvPKcPPc, symObjAddr: 0x348, symBinAddr: 0x1FAB4, symSize: 0x53C }
  - { offset: 0x1A3EE8, size: 0x8, addend: 0x0, symName: __ZN7facesdk18cmdStartNewSessionEPKcPPc, symObjAddr: 0x89C, symBinAddr: 0x1FFF0, symSize: 0x4D4 }
  - { offset: 0x1A51AB, size: 0x8, addend: 0x0, symName: __ZN7facesdk10cmdProcessEPvPKcPPc, symObjAddr: 0xD70, symBinAddr: 0x204C4, symSize: 0x390 }
  - { offset: 0x1A5E2B, size: 0x8, addend: 0x0, symName: __ZN7facesdk12freeLivenessEv, symObjAddr: 0x232C, symBinAddr: 0x21A20, symSize: 0x148 }
  - { offset: 0x1A664D, size: 0x8, addend: 0x0, symName: __ZN7facesdk19cmdAddDataToPackageEPKvPKc, symObjAddr: 0x1100, symBinAddr: 0x20854, symSize: 0x190 }
  - { offset: 0x1A6A9B, size: 0x8, addend: 0x0, symName: __ZN7facesdk18cmdFinalizePackageEPPvPPc, symObjAddr: 0x1290, symBinAddr: 0x209E4, symSize: 0x84C }
  - { offset: 0x1AAAC3, size: 0x8, addend: 0x0, symName: __ZN7facesdk11setUpLoggerEPKc, symObjAddr: 0x1B10, symBinAddr: 0x21230, symSize: 0x150 }
  - { offset: 0x1AAD96, size: 0x8, addend: 0x0, symName: __ZN7facesdk12initLivenessEPKhRKN8nlohmann16json_abi_v3_11_210basic_jsonINSt3__13mapENS5_6vectorENS5_12basic_stringIcNS5_11char_traitsIcEENS5_9allocatorIcEEEEbxydSB_NS3_14adl_serializerENS7_IhNSB_IhEEEEEE, symObjAddr: 0x1F24, symBinAddr: 0x21618, symSize: 0xF0 }
  - { offset: 0x1AB42D, size: 0x8, addend: 0x0, symName: __ZN7facesdk15LivenessProcessERKN2cv3MatERKN8nlohmann16json_abi_v3_11_210basic_jsonINSt3__13mapENS7_6vectorENS7_12basic_stringIcNS7_11char_traitsIcEENS7_9allocatorIcEEEEbxydSD_NS5_14adl_serializerENS9_IhNSD_IhEEEEEE, symObjAddr: 0x28F0, symBinAddr: 0x21B68, symSize: 0x7E0 }
  - { offset: 0x1AD121, size: 0x8, addend: 0x0, symName: __ZN7facesdk12initResourceEPKhRKN8nlohmann16json_abi_v3_11_210basic_jsonINSt3__13mapENS5_6vectorENS5_12basic_stringIcNS5_11char_traitsIcEENS5_9allocatorIcEEEEbxydSB_NS3_14adl_serializerENS7_IhNSB_IhEEEEEE, symObjAddr: 0x371C, symBinAddr: 0x22990, symSize: 0x2BC }
  - { offset: 0x1AE41C, size: 0x8, addend: 0x0, symName: __ZN7facesdk16initFaceDetectorEv, symObjAddr: 0x39D8, symBinAddr: 0x22C4C, symSize: 0x984 }
  - { offset: 0x1B393D, size: 0x8, addend: 0x0, symName: __ZN7facesdk21initOcclusionDetectorEv, symObjAddr: 0x435C, symBinAddr: 0x235D0, symSize: 0x450 }
  - { offset: 0x1B621A, size: 0x8, addend: 0x0, symName: __ZN7facesdk23initEyeLandmarkDetectorEv, symObjAddr: 0x47AC, symBinAddr: 0x23A20, symSize: 0x574 }
  - { offset: 0x1B9660, size: 0x8, addend: 0x0, symName: __ZN7facesdk18detectEyeLandmarksERKN2cv3MatERKNS0_5Rect_IiEERNSt3__16vectorINS0_6Point_IiEENS8_9allocatorISB_EEEE, symObjAddr: 0x5114, symBinAddr: 0x240EC, symSize: 0x10C }
  - { offset: 0x1B97AD, size: 0x8, addend: 0x0, symName: __ZN7facesdk15createOrtRunnerERKNSt3__112basic_stringIcNS0_11char_traitsIcEENS0_9allocatorIcEEEERKN9inference21InferenceRunnerParamsE, symObjAddr: 0x349C, symBinAddr: 0x22710, symSize: 0x280 }
  - { offset: 0x1C0FA6, size: 0x8, addend: 0x0, symName: __ZN8nlohmann16json_abi_v3_11_26detail9dtoa_impl6grisu2IdEEvPcRiS5_T_, symObjAddr: 0x13A68, symBinAddr: 0x2F0FC, symSize: 0x1F0 }
  - { offset: 0x1C1636, size: 0x8, addend: 0x0, symName: __ZN8nlohmann16json_abi_v3_11_26detail9dtoa_impl16grisu2_digit_genEPcRiS4_NS2_5diyfpES5_S5_, symObjAddr: 0x13C58, symBinAddr: 0x2F2EC, symSize: 0x2E0 }
  - { offset: 0x1C511D, size: 0x8, addend: 0x0, symName: __ZN8nlohmann16json_abi_v3_11_26detail6concatINSt3__112basic_stringIcNS3_11char_traitsIcEENS3_9allocatorIcEEEEJRA24_KcS9_EEET_DpOT0_, symObjAddr: 0xDD48, symBinAddr: 0x29C7C, symSize: 0xA0 }
  - { offset: 0x1C546E, size: 0x8, addend: 0x0, symName: __ZN8nlohmann16json_abi_v3_11_26detail6concatINSt3__112basic_stringIcNS3_11char_traitsIcEENS3_9allocatorIcEEEEJRA23_KcS9_EEET_DpOT0_, symObjAddr: 0xEF4C, symBinAddr: 0x2AB38, symSize: 0xA0 }
  - { offset: 0x1C659E, size: 0x8, addend: 0x0, symName: __ZN8nlohmann16json_abi_v3_11_26detail8to_charsIdEEPcS3_PKcT_, symObjAddr: 0x137FC, symBinAddr: 0x2EE90, symSize: 0x26C }
  - { offset: 0x1C66CA, size: 0x8, addend: 0x0, symName: __ZN8nlohmann16json_abi_v3_11_26detail6concatINSt3__112basic_stringIcNS3_11char_traitsIcEENS3_9allocatorIcEEEEJRA29_KcS9_RA5_SA_S9_EEET_DpOT0_, symObjAddr: 0x13650, symBinAddr: 0x2ECE4, symSize: 0x10C }
  - { offset: 0x1C6BCE, size: 0x8, addend: 0x0, symName: __ZN8nlohmann16json_abi_v3_11_26detail6concatINSt3__112basic_stringIcNS3_11char_traitsIcEENS3_9allocatorIcEEEEJRA39_KcS9_EEET_DpOT0_, symObjAddr: 0x1375C, symBinAddr: 0x2EDF0, symSize: 0xA0 }
  - { offset: 0x1C733A, size: 0x8, addend: 0x0, symName: __ZN8nlohmann16json_abi_v3_11_26detail6concatINSt3__112basic_stringIcNS3_11char_traitsIcEENS3_9allocatorIcEEEEJRA6_KcRKS9_RA12_SA_EEET_DpOT0_, symObjAddr: 0x146D8, symBinAddr: 0x2F7FC, symSize: 0xC8 }
  - { offset: 0x1CA16B, size: 0x8, addend: 0x0, symName: __ZN3Ort6GlobalIvE4api_E, symObjAddr: 0x227A0, symBinAddr: 0xEA8DD8, symSize: 0x0 }
  - { offset: 0x1CDF8B, size: 0x8, addend: 0x0, symName: __ZN3Ort12ThrowOnErrorEP9OrtStatus, symObjAddr: 0x197F8, symBinAddr: 0x3475C, symSize: 0x13C }
  - { offset: 0x1D16B9, size: 0x8, addend: 0x0, symName: __ZN8nlohmann16json_abi_v3_11_26detail10serializerINS0_10basic_jsonINSt3__13mapENS4_6vectorENS4_12basic_stringIcNS4_11char_traitsIcEENS4_9allocatorIcEEEEbxydSA_NS0_14adl_serializerENS6_IhNSA_IhEEEEEEE12dump_integerIxLi0EEEvT_, symObjAddr: 0x13404, symBinAddr: 0x2EA98, symSize: 0x24C }
  - { offset: 0x1D16DE, size: 0x8, addend: 0x0, symName: __ZZN8nlohmann16json_abi_v3_11_26detail10serializerINS0_10basic_jsonINSt3__13mapENS4_6vectorENS4_12basic_stringIcNS4_11char_traitsIcEENS4_9allocatorIcEEEEbxydSA_NS0_14adl_serializerENS6_IhNSA_IhEEEEEEE12dump_integerIxLi0EEEvT_E12digits_to_99, symObjAddr: 0x1EF9C, symBinAddr: 0xDC8034, symSize: 0x0 }
  - { offset: 0x1D532E, size: 0x8, addend: 0x0, symName: __ZN5Eigen8internal21dense_assignment_loopINS0_31generic_dense_assignment_kernelINS0_9evaluatorINS_5BlockINS_6MatrixIfLin1ELin1ELi0ELin1ELin1EEELin1ELin1ELb0EEEEENS3_IS6_EENS0_9assign_opIffEELi0EEELi4ELi0EE3runERSC_, symObjAddr: 0x1AC1C, symBinAddr: 0x35AC8, symSize: 0x380 }
  - { offset: 0x1D53DD, size: 0x8, addend: 0x0, symName: __ZN5Eigen8internal21dense_assignment_loopINS0_31generic_dense_assignment_kernelINS0_9evaluatorINS_5BlockINS_6MatrixIfLin1ELin1ELi0ELin1ELin1EEELin1ELin1ELb0EEEEENS3_IS6_EENS0_9assign_opIffEELi0EEELi4ELi0EE3runERSC_, symObjAddr: 0x1AC1C, symBinAddr: 0x35AC8, symSize: 0x380 }
  - { offset: 0x1D6627, size: 0x8, addend: 0x0, symName: __ZN9inference7convertIfEEvRKNSt3__16vectorIN2cv3MatENS1_9allocatorIS4_EEEERNS2_IT_NS5_ISA_EEEEb, symObjAddr: 0x176A8, symBinAddr: 0x326A0, symSize: 0x688 }
  - { offset: 0x1D7B0F, size: 0x8, addend: 0x0, symName: __ZN9inference7convertIhEEvRKNSt3__16vectorIN2cv3MatENS1_9allocatorIS4_EEEERNS2_IT_NS5_ISA_EEEEb, symObjAddr: 0x1B940, symBinAddr: 0x36730, symSize: 0x69C }
  - { offset: 0x1DCB68, size: 0x8, addend: 0x0, symName: __ZNSt3__110unique_ptrIN7facesdk12FaceDetectorENS_14default_deleteIS2_EEED1B8ne180100Ev, symObjAddr: 0x0, symBinAddr: 0x1F7C4, symSize: 0x38 }
  - { offset: 0x1DCC7D, size: 0x8, addend: 0x0, symName: __ZNSt3__110unique_ptrIN7facesdk14ClassifierBaseENS_14default_deleteIS2_EEED1B8ne180100Ev, symObjAddr: 0x38, symBinAddr: 0x1F7FC, symSize: 0x38 }
  - { offset: 0x1DCD92, size: 0x8, addend: 0x0, symName: __ZNSt3__110unique_ptrIN7facesdk23EyeLandmarkDetectorBaseENS_14default_deleteIS2_EEED1B8ne180100Ev, symObjAddr: 0x70, symBinAddr: 0x1F834, symSize: 0x38 }
  - { offset: 0x1DCEC3, size: 0x8, addend: 0x0, symName: __ZNSt3__110unique_ptrIN7facesdk15LivenessSessionENS_14default_deleteIS2_EEED1B8ne180100Ev, symObjAddr: 0xA8, symBinAddr: 0x1F86C, symSize: 0x34 }
  - { offset: 0x1DCF83, size: 0x8, addend: 0x0, symName: __ZN7facesdk15LivenessSessionD2Ev, symObjAddr: 0x6EBC, symBinAddr: 0x24964, symSize: 0x178 }
  - { offset: 0x1DE50D, size: 0x8, addend: 0x0, symName: __ZNSt3__110unique_ptrIN7facesdk8ResourceENS_14default_deleteIS2_EEED1B8ne180100Ev, symObjAddr: 0xDC, symBinAddr: 0x1F8A0, symSize: 0x94 }
  - { offset: 0x1DEA3E, size: 0x8, addend: 0x0, symName: __ZNSt3__16vectorIhNS_9allocatorIhEEED1B8ne180100Ev, symObjAddr: 0x170, symBinAddr: 0x1F934, symSize: 0x30 }
  - { offset: 0x1DEC7C, size: 0x8, addend: 0x0, symName: __ZN7facesdk7processEiPvPcPS0_PS1_.cold.1, symObjAddr: 0x1E2FC, symBinAddr: 0xC57BCC, symSize: 0x1C }
  - { offset: 0x1DF9CA, size: 0x8, addend: 0x0, symName: __ZN8nlohmann16json_abi_v3_11_210basic_jsonINSt3__13mapENS2_6vectorENS2_12basic_stringIcNS2_11char_traitsIcEENS2_9allocatorIcEEEEbxydS8_NS0_14adl_serializerENS4_IhNS8_IhEEEEE5parseIRPKcEESE_OT_NS2_8functionIFbiNS0_6detail13parse_event_tERSE_EEEbb, symObjAddr: 0x1C60, symBinAddr: 0x21380, symSize: 0x298 }
  - { offset: 0x1E146C, size: 0x8, addend: 0x0, symName: __ZN8nlohmann16json_abi_v3_11_26detail20external_constructorILNS1_7value_tE3EE9constructINS0_10basic_jsonINSt3__13mapENS7_6vectorENS7_12basic_stringIcNS7_11char_traitsIcEENS7_9allocatorIcEEEEbxydSD_NS0_14adl_serializerENS9_IhNSD_IhEEEEEEA9_cLi0EEEvRT_RKT0_, symObjAddr: 0x11A40, symBinAddr: 0x2D194, symSize: 0xEC }
  - { offset: 0x1E1A7D, size: 0x8, addend: 0x0, symName: __ZN8nlohmann16json_abi_v3_11_26detail20external_constructorILNS1_7value_tE3EE9constructINS0_10basic_jsonINSt3__13mapENS7_6vectorENS7_12basic_stringIcNS7_11char_traitsIcEENS7_9allocatorIcEEEEbxydSD_NS0_14adl_serializerENS9_IhNSD_IhEEEEEEA6_cLi0EEEvRT_RKT0_, symObjAddr: 0x11B2C, symBinAddr: 0x2D280, symSize: 0xEC }
  - { offset: 0x1E208E, size: 0x8, addend: 0x0, symName: __ZN8nlohmann16json_abi_v3_11_26detail20external_constructorILNS1_7value_tE3EE9constructINS0_10basic_jsonINSt3__13mapENS7_6vectorENS7_12basic_stringIcNS7_11char_traitsIcEENS7_9allocatorIcEEEEbxydSD_NS0_14adl_serializerENS9_IhNSD_IhEEEEEEA12_cLi0EEEvRT_RKT0_, symObjAddr: 0x11C18, symBinAddr: 0x2D36C, symSize: 0xEC }
  - { offset: 0x1E269F, size: 0x8, addend: 0x0, symName: __ZNK8nlohmann16json_abi_v3_11_210basic_jsonINSt3__13mapENS2_6vectorENS2_12basic_stringIcNS2_11char_traitsIcEENS2_9allocatorIcEEEEbxydS8_NS0_14adl_serializerENS4_IhNS8_IhEEEEE4dumpEicbNS0_6detail15error_handler_tE, symObjAddr: 0x2040, symBinAddr: 0x21734, symSize: 0x2EC }
  - { offset: 0x1E32E6, size: 0x8, addend: 0x0, symName: __ZN8nlohmann16json_abi_v3_11_26detail8json_refINS0_10basic_jsonINSt3__13mapENS4_6vectorENS4_12basic_stringIcNS4_11char_traitsIcEENS4_9allocatorIcEEEEbxydSA_NS0_14adl_serializerENS6_IhNSA_IhEEEEEEED1Ev, symObjAddr: 0x2014, symBinAddr: 0x21708, symSize: 0x2C }
  - { offset: 0x1E45FD, size: 0x8, addend: 0x0, symName: __ZNK8nlohmann16json_abi_v3_11_210basic_jsonINSt3__13mapENS2_6vectorENS2_12basic_stringIcNS2_11char_traitsIcEENS2_9allocatorIcEEEEbxydS8_NS0_14adl_serializerENS4_IhNS8_IhEEEEE2atERKSA_, symObjAddr: 0x14254, symBinAddr: 0x2F5CC, symSize: 0x230 }
  - { offset: 0x1E5EA3, size: 0x8, addend: 0x0, symName: __ZN13EncryptionKeyIL7KeyType0EE10FromStringERKNSt3__112basic_stringIcNS2_11char_traitsIcEENS2_9allocatorIcEEEE, symObjAddr: 0x30D0, symBinAddr: 0x22348, symSize: 0x304 }
  - { offset: 0x1E6DDF, size: 0x8, addend: 0x0, symName: __ZN12SharedSecretD1Ev, symObjAddr: 0x33D4, symBinAddr: 0x2264C, symSize: 0x40 }
  - { offset: 0x1E707D, size: 0x8, addend: 0x0, symName: __ZN8Security15DoubleEncryptorD1Ev, symObjAddr: 0x3414, symBinAddr: 0x2268C, symSize: 0x84 }
  - { offset: 0x1E7D7D, size: 0x8, addend: 0x0, symName: __ZN8nlohmann16json_abi_v3_11_26detail6parserINS0_10basic_jsonINSt3__13mapENS4_6vectorENS4_12basic_stringIcNS4_11char_traitsIcEENS4_9allocatorIcEEEEbxydSA_NS0_14adl_serializerENS6_IhNSA_IhEEEEEENS1_22iterator_input_adapterIPKcEEEC2EOSK_NS4_8functionIFbiNS1_13parse_event_tERSG_EEEbb, symObjAddr: 0x865C, symBinAddr: 0x25324, symSize: 0x134 }
  - { offset: 0x1E7FB8, size: 0x8, addend: 0x0, symName: __ZN8nlohmann16json_abi_v3_11_26detail6parserINS0_10basic_jsonINSt3__13mapENS4_6vectorENS4_12basic_stringIcNS4_11char_traitsIcEENS4_9allocatorIcEEEEbxydSA_NS0_14adl_serializerENS6_IhNSA_IhEEEEEENS1_22iterator_input_adapterIPKcEEE5parseEbRSG_, symObjAddr: 0x7E94, symBinAddr: 0x24BD4, symSize: 0x750 }
  - { offset: 0x1EA907, size: 0x8, addend: 0x0, symName: __ZN8nlohmann16json_abi_v3_11_26detail10serializerINS0_10basic_jsonINSt3__13mapENS4_6vectorENS4_12basic_stringIcNS4_11char_traitsIcEENS4_9allocatorIcEEEEbxydSA_NS0_14adl_serializerENS6_IhNSA_IhEEEEEEE4dumpERKSG_bbjj, symObjAddr: 0x11DC4, symBinAddr: 0x2D458, symSize: 0x1024 }
  - { offset: 0x1EC758, size: 0x8, addend: 0x0, symName: __ZN8nlohmann16json_abi_v3_11_26detail10serializerINS0_10basic_jsonINSt3__13mapENS4_6vectorENS4_12basic_stringIcNS4_11char_traitsIcEENS4_9allocatorIcEEEEbxydSA_NS0_14adl_serializerENS6_IhNSA_IhEEEEEEED1Ev, symObjAddr: 0x12DE8, symBinAddr: 0x2E47C, symSize: 0x78 }
  - { offset: 0x1EC93E, size: 0x8, addend: 0x0, symName: __ZNK8nlohmann16json_abi_v3_11_210basic_jsonINSt3__13mapENS2_6vectorENS2_12basic_stringIcNS2_11char_traitsIcEENS2_9allocatorIcEEEEbxydS8_NS0_14adl_serializerENS4_IhNS8_IhEEEEE4dumpEicbNS0_6detail15error_handler_tE.cold.1, symObjAddr: 0x1E318, symBinAddr: 0xC57BE8, symSize: 0x2C }
  - { offset: 0x1EDFB5, size: 0x8, addend: 0x0, symName: __ZN7facesdk15LivenessProcessERKN2cv3MatERKN8nlohmann16json_abi_v3_11_210basic_jsonINSt3__13mapENS7_6vectorENS7_12basic_stringIcNS7_11char_traitsIcEENS7_9allocatorIcEEEEbxydSD_NS5_14adl_serializerENS9_IhNSD_IhEEEEEE, symObjAddr: 0x28F0, symBinAddr: 0x21B68, symSize: 0x7E0 }
  - { offset: 0x1EED43, size: 0x8, addend: 0x0, symName: __ZNK8nlohmann16json_abi_v3_11_210basic_jsonINSt3__13mapENS2_6vectorENS2_12basic_stringIcNS2_11char_traitsIcEENS2_9allocatorIcEEEEbxydS8_NS0_14adl_serializerENS4_IhNS8_IhEEEEE2atIRKPKcLi0EEERKSE_OT_, symObjAddr: 0x52D8, symBinAddr: 0x242B0, symSize: 0x1F0 }
  - { offset: 0x1EF850, size: 0x8, addend: 0x0, symName: __ZNK8nlohmann16json_abi_v3_11_210basic_jsonINSt3__13mapENS2_6vectorENS2_12basic_stringIcNS2_11char_traitsIcEENS2_9allocatorIcEEEEbxydS8_NS0_14adl_serializerENS4_IhNS8_IhEEEEE5valueIfRA6_KcfLi0EEET1_OT0_OT_, symObjAddr: 0x56BC, symBinAddr: 0x244A0, symSize: 0x1F4 }
  - { offset: 0x1EFF89, size: 0x8, addend: 0x0, symName: __ZNK8nlohmann16json_abi_v3_11_210basic_jsonINSt3__13mapENS2_6vectorENS2_12basic_stringIcNS2_11char_traitsIcEENS2_9allocatorIcEEEEbxydS8_NS0_14adl_serializerENS4_IhNS8_IhEEEEE5valueIfRA5_KcfLi0EEET1_OT0_OT_, symObjAddr: 0x58B0, symBinAddr: 0x24694, symSize: 0x1F4 }
  - { offset: 0x1F0EF9, size: 0x8, addend: 0x0, symName: __ZNK8nlohmann16json_abi_v3_11_210basic_jsonINSt3__13mapENS2_6vectorENS2_12basic_stringIcNS2_11char_traitsIcEENS2_9allocatorIcEEEEbxydS8_NS0_14adl_serializerENS4_IhNS8_IhEEEEE8containsIRKPKcLi0EEEbOT_, symObjAddr: 0x5220, symBinAddr: 0x241F8, symSize: 0xB8 }
  - { offset: 0x1F116B, size: 0x8, addend: 0x0, symName: __ZNSt3__16vectorIN7facesdk5LFaceENS_9allocatorIS2_EEE24__emplace_back_slow_pathIJEEEPS2_DpOT_, symObjAddr: 0x1DBEC, symBinAddr: 0x37CE0, symSize: 0x20C }
  - { offset: 0x1F3810, size: 0x8, addend: 0x0, symName: __ZN9inference21InferenceRunnerParams11inout_paramIxEC2ERKNSt3__112basic_stringIcNS3_11char_traitsIcEENS3_9allocatorIcEEEERKNS3_6vectorIxNS7_IxEEEE, symObjAddr: 0x148A4, symBinAddr: 0x2F8C4, symSize: 0xF4 }
  - { offset: 0x1F3D2F, size: 0x8, addend: 0x0, symName: __ZN7facesdk18FaceDetectorRetinaIN9inference18InferenceRunnerORTEEC2ERKNS_18FaceDetectorParamsENSt3__110unique_ptrINS1_15InferenceRunnerIS2_EENS7_14default_deleteISA_EEEERKNS_12PriorsConfigE, symObjAddr: 0x14B2C, symBinAddr: 0x2FB24, symSize: 0x190 }
  - { offset: 0x1F473D, size: 0x8, addend: 0x0, symName: __ZN7facesdk12PriorsConfigD1Ev, symObjAddr: 0x4FE0, symBinAddr: 0x24058, symSize: 0x94 }
  - { offset: 0x1F4C5F, size: 0x8, addend: 0x0, symName: __ZNSt3__16vectorINS0_IiNS_9allocatorIiEEEENS1_IS3_EEED1B8ne180100Ev, symObjAddr: 0x4F6C, symBinAddr: 0x23FE4, symSize: 0x74 }
  - { offset: 0x1F4EF9, size: 0x8, addend: 0x0, symName: __ZN7facesdk16initFaceDetectorEv.cold.1, symObjAddr: 0x1E344, symBinAddr: 0xC57C14, symSize: 0x40 }
  - { offset: 0x1F5042, size: 0x8, addend: 0x0, symName: __ZN9inference21InferenceRunnerParamsD2Ev, symObjAddr: 0x6250, symBinAddr: 0x2488C, symSize: 0xD8 }
  - { offset: 0x1F584C, size: 0x8, addend: 0x0, symName: __ZN9inference21InferenceRunnerParams11inout_paramIxED1Ev, symObjAddr: 0x4F1C, symBinAddr: 0x23F94, symSize: 0x50 }
  - { offset: 0x1F5E21, size: 0x8, addend: 0x0, symName: __ZN7facesdk21initOcclusionDetectorEv.cold.1, symObjAddr: 0x1E384, symBinAddr: 0xC57C54, symSize: 0x40 }
  - { offset: 0x1F7C16, size: 0x8, addend: 0x0, symName: _process, symObjAddr: 0x5B8C, symBinAddr: 0x24888, symSize: 0x4 }
  - { offset: 0x1F7C80, size: 0x8, addend: 0x0, symName: _process, symObjAddr: 0x5B8C, symBinAddr: 0x24888, symSize: 0x4 }
  - { offset: 0x1FB957, size: 0x8, addend: 0x0, symName: __ZN8nlohmann16json_abi_v3_11_210basic_jsonINSt3__13mapENS2_6vectorENS2_12basic_stringIcNS2_11char_traitsIcEENS2_9allocatorIcEEEEbxydS8_NS0_14adl_serializerENS4_IhNS8_IhEEEEE10json_valueC2ENS0_6detail7value_tE, symObjAddr: 0x77F8, symBinAddr: 0x24ADC, symSize: 0xF8 }
  - { offset: 0x1FCE44, size: 0x8, addend: 0x0, symName: __ZN8nlohmann16json_abi_v3_11_26detail6parserINS0_10basic_jsonINSt3__13mapENS4_6vectorENS4_12basic_stringIcNS4_11char_traitsIcEENS4_9allocatorIcEEEEbxydSA_NS0_14adl_serializerENS6_IhNSA_IhEEEEEENS1_22iterator_input_adapterIPKcEEE18sax_parse_internalINS1_19json_sax_dom_parserISG_EEEEbPT_, symObjAddr: 0xB950, symBinAddr: 0x27E1C, symSize: 0xC74 }
  - { offset: 0x1FECFE, size: 0x8, addend: 0x0, symName: __ZN8nlohmann16json_abi_v3_11_26detail5lexerINS0_10basic_jsonINSt3__13mapENS4_6vectorENS4_12basic_stringIcNS4_11char_traitsIcEENS4_9allocatorIcEEEEbxydSA_NS0_14adl_serializerENS6_IhNSA_IhEEEEEENS1_22iterator_input_adapterIPKcEEE4scanEv, symObjAddr: 0x87DC, symBinAddr: 0x25458, symSize: 0x28C }
  - { offset: 0x1FF02E, size: 0x8, addend: 0x0, symName: __ZN8nlohmann16json_abi_v3_11_26detail28json_sax_dom_callback_parserINS0_10basic_jsonINSt3__13mapENS4_6vectorENS4_12basic_stringIcNS4_11char_traitsIcEENS4_9allocatorIcEEEEbxydSA_NS0_14adl_serializerENS6_IhNSA_IhEEEEEEEC2ERSG_NS4_8functionIFbiNS1_13parse_event_tESI_EEEb, symObjAddr: 0xC618, symBinAddr: 0x28AE4, symSize: 0x1C4 }
  - { offset: 0x1FF601, size: 0x8, addend: 0x0, symName: __ZN8nlohmann16json_abi_v3_11_26detail6parserINS0_10basic_jsonINSt3__13mapENS4_6vectorENS4_12basic_stringIcNS4_11char_traitsIcEENS4_9allocatorIcEEEEbxydSA_NS0_14adl_serializerENS6_IhNSA_IhEEEEEENS1_22iterator_input_adapterIPKcEEE18sax_parse_internalINS1_28json_sax_dom_callback_parserISG_EEEEbPT_, symObjAddr: 0xA570, symBinAddr: 0x26CB4, symSize: 0xC64 }
  - { offset: 0x201445, size: 0x8, addend: 0x0, symName: __ZN8nlohmann16json_abi_v3_11_26detail6parserINS0_10basic_jsonINSt3__13mapENS4_6vectorENS4_12basic_stringIcNS4_11char_traitsIcEENS4_9allocatorIcEEEEbxydSA_NS0_14adl_serializerENS6_IhNSA_IhEEEEEENS1_22iterator_input_adapterIPKcEEE17exception_messageENS1_10lexer_baseISG_E10token_typeERKSC_, symObjAddr: 0xB554, symBinAddr: 0x27A50, symSize: 0x3CC }
  - { offset: 0x203152, size: 0x8, addend: 0x0, symName: __ZN8nlohmann16json_abi_v3_11_26detail28json_sax_dom_callback_parserINS0_10basic_jsonINSt3__13mapENS4_6vectorENS4_12basic_stringIcNS4_11char_traitsIcEENS4_9allocatorIcEEEEbxydSA_NS0_14adl_serializerENS6_IhNSA_IhEEEEEEED2Ev, symObjAddr: 0x101D4, symBinAddr: 0x2B928, symSize: 0x88 }
  - { offset: 0x203AB7, size: 0x8, addend: 0x0, symName: __ZN8nlohmann16json_abi_v3_11_26detail5lexerINS0_10basic_jsonINSt3__13mapENS4_6vectorENS4_12basic_stringIcNS4_11char_traitsIcEENS4_9allocatorIcEEEEbxydSA_NS0_14adl_serializerENS6_IhNSA_IhEEEEEENS1_22iterator_input_adapterIPKcEEE15skip_whitespaceEv, symObjAddr: 0x8A68, symBinAddr: 0x256E4, symSize: 0x274 }
  - { offset: 0x203FEC, size: 0x8, addend: 0x0, symName: __ZN8nlohmann16json_abi_v3_11_26detail5lexerINS0_10basic_jsonINSt3__13mapENS4_6vectorENS4_12basic_stringIcNS4_11char_traitsIcEENS4_9allocatorIcEEEEbxydSA_NS0_14adl_serializerENS6_IhNSA_IhEEEEEENS1_22iterator_input_adapterIPKcEEE11scan_numberEv, symObjAddr: 0x9B54, symBinAddr: 0x266B0, symSize: 0x604 }
  - { offset: 0x204D81, size: 0x8, addend: 0x0, symName: __ZN8nlohmann16json_abi_v3_11_26detail5lexerINS0_10basic_jsonINSt3__13mapENS4_6vectorENS4_12basic_stringIcNS4_11char_traitsIcEENS4_9allocatorIcEEEEbxydSA_NS0_14adl_serializerENS6_IhNSA_IhEEEEEENS1_22iterator_input_adapterIPKcEEE11scan_stringEv, symObjAddr: 0x8DFC, symBinAddr: 0x25958, symSize: 0xD58 }
  - { offset: 0x206BA8, size: 0x8, addend: 0x0, symName: __ZN8nlohmann16json_abi_v3_11_26detail28json_sax_dom_callback_parserINS0_10basic_jsonINSt3__13mapENS4_6vectorENS4_12basic_stringIcNS4_11char_traitsIcEENS4_9allocatorIcEEEEbxydSA_NS0_14adl_serializerENS6_IhNSA_IhEEEEEEE12handle_valueIRbEENS4_4pairIbPSG_EEOT_b, symObjAddr: 0xF24C, symBinAddr: 0x2AE38, symSize: 0x214 }
  - { offset: 0x2072A4, size: 0x8, addend: 0x0, symName: __ZN8nlohmann16json_abi_v3_11_26detail28json_sax_dom_callback_parserINS0_10basic_jsonINSt3__13mapENS4_6vectorENS4_12basic_stringIcNS4_11char_traitsIcEENS4_9allocatorIcEEEEbxydSA_NS0_14adl_serializerENS6_IhNSA_IhEEEEEEE11start_arrayEm, symObjAddr: 0xD0F4, symBinAddr: 0x294AC, symSize: 0x36C }
  - { offset: 0x207ADE, size: 0x8, addend: 0x0, symName: __ZN8nlohmann16json_abi_v3_11_26detail28json_sax_dom_callback_parserINS0_10basic_jsonINSt3__13mapENS4_6vectorENS4_12basic_stringIcNS4_11char_traitsIcEENS4_9allocatorIcEEEEbxydSA_NS0_14adl_serializerENS6_IhNSA_IhEEEEEEE9end_arrayEv, symObjAddr: 0xD460, symBinAddr: 0x29818, symSize: 0x168 }
  - { offset: 0x207ED6, size: 0x8, addend: 0x0, symName: __ZN8nlohmann16json_abi_v3_11_26detail28json_sax_dom_callback_parserINS0_10basic_jsonINSt3__13mapENS4_6vectorENS4_12basic_stringIcNS4_11char_traitsIcEENS4_9allocatorIcEEEEbxydSA_NS0_14adl_serializerENS6_IhNSA_IhEEEEEEE12handle_valueIRxEENS4_4pairIbPSG_EEOT_b, symObjAddr: 0xF66C, symBinAddr: 0x2B258, symSize: 0x210 }
  - { offset: 0x2085E6, size: 0x8, addend: 0x0, symName: __ZN8nlohmann16json_abi_v3_11_26detail28json_sax_dom_callback_parserINS0_10basic_jsonINSt3__13mapENS4_6vectorENS4_12basic_stringIcNS4_11char_traitsIcEENS4_9allocatorIcEEEEbxydSA_NS0_14adl_serializerENS6_IhNSA_IhEEEEEEE12handle_valueIDnEENS4_4pairIbPSG_EEOT_b, symObjAddr: 0xF460, symBinAddr: 0x2B04C, symSize: 0x20C }
  - { offset: 0x208CB4, size: 0x8, addend: 0x0, symName: __ZN8nlohmann16json_abi_v3_11_26detail28json_sax_dom_callback_parserINS0_10basic_jsonINSt3__13mapENS4_6vectorENS4_12basic_stringIcNS4_11char_traitsIcEENS4_9allocatorIcEEEEbxydSA_NS0_14adl_serializerENS6_IhNSA_IhEEEEEEE12start_objectEm, symObjAddr: 0xC8F0, symBinAddr: 0x28CA8, symSize: 0x368 }
  - { offset: 0x2094EE, size: 0x8, addend: 0x0, symName: __ZN8nlohmann16json_abi_v3_11_26detail28json_sax_dom_callback_parserINS0_10basic_jsonINSt3__13mapENS4_6vectorENS4_12basic_stringIcNS4_11char_traitsIcEENS4_9allocatorIcEEEEbxydSA_NS0_14adl_serializerENS6_IhNSA_IhEEEEEEE10end_objectEv, symObjAddr: 0xCC58, symBinAddr: 0x29010, symSize: 0x28C }
  - { offset: 0x209D54, size: 0x8, addend: 0x0, symName: __ZN8nlohmann16json_abi_v3_11_26detail28json_sax_dom_callback_parserINS0_10basic_jsonINSt3__13mapENS4_6vectorENS4_12basic_stringIcNS4_11char_traitsIcEENS4_9allocatorIcEEEEbxydSA_NS0_14adl_serializerENS6_IhNSA_IhEEEEEEE12handle_valueIRSC_EENS4_4pairIbPSG_EEOT_b, symObjAddr: 0xF87C, symBinAddr: 0x2B468, symSize: 0x254 }
  - { offset: 0x20A70C, size: 0x8, addend: 0x0, symName: __ZN8nlohmann16json_abi_v3_11_26detail28json_sax_dom_callback_parserINS0_10basic_jsonINSt3__13mapENS4_6vectorENS4_12basic_stringIcNS4_11char_traitsIcEENS4_9allocatorIcEEEEbxydSA_NS0_14adl_serializerENS6_IhNSA_IhEEEEEEE12handle_valueIRdEENS4_4pairIbPSG_EEOT_b, symObjAddr: 0xF038, symBinAddr: 0x2AC24, symSize: 0x214 }
  - { offset: 0x20AE1E, size: 0x8, addend: 0x0, symName: __ZN8nlohmann16json_abi_v3_11_26detail28json_sax_dom_callback_parserINS0_10basic_jsonINSt3__13mapENS4_6vectorENS4_12basic_stringIcNS4_11char_traitsIcEENS4_9allocatorIcEEEEbxydSA_NS0_14adl_serializerENS6_IhNSA_IhEEEEEEE12handle_valueIRyEENS4_4pairIbPSG_EEOT_b, symObjAddr: 0xFAD0, symBinAddr: 0x2B6BC, symSize: 0x214 }
  - { offset: 0x20B528, size: 0x8, addend: 0x0, symName: __ZN8nlohmann16json_abi_v3_11_26detail28json_sax_dom_callback_parserINS0_10basic_jsonINSt3__13mapENS4_6vectorENS4_12basic_stringIcNS4_11char_traitsIcEENS4_9allocatorIcEEEEbxydSA_NS0_14adl_serializerENS6_IhNSA_IhEEEEEEE3keyERSC_, symObjAddr: 0xCEE4, symBinAddr: 0x2929C, symSize: 0x210 }
  - { offset: 0x20BE85, size: 0x8, addend: 0x0, symName: __ZNK8nlohmann16json_abi_v3_11_26detail5lexerINS0_10basic_jsonINSt3__13mapENS4_6vectorENS4_12basic_stringIcNS4_11char_traitsIcEENS4_9allocatorIcEEEEbxydSA_NS0_14adl_serializerENS6_IhNSA_IhEEEEEENS1_22iterator_input_adapterIPKcEEE16get_token_stringEv, symObjAddr: 0xB228, symBinAddr: 0x2796C, symSize: 0xE4 }
  - { offset: 0x20C10E, size: 0x8, addend: 0x0, symName: __ZN8nlohmann16json_abi_v3_11_26detail28json_sax_dom_callback_parserINS0_10basic_jsonINSt3__13mapENS4_6vectorENS4_12basic_stringIcNS4_11char_traitsIcEENS4_9allocatorIcEEEEbxydSA_NS0_14adl_serializerENS6_IhNSA_IhEEEEEEE11parse_errorINS1_11parse_errorEEEbmRKSC_RKT_, symObjAddr: 0xB1D4, symBinAddr: 0x27918, symSize: 0x54 }
  - { offset: 0x20C9E2, size: 0x8, addend: 0x0, symName: __ZN8nlohmann16json_abi_v3_11_26detail28json_sax_dom_callback_parserINS0_10basic_jsonINSt3__13mapENS4_6vectorENS4_12basic_stringIcNS4_11char_traitsIcEENS4_9allocatorIcEEEEbxydSA_NS0_14adl_serializerENS6_IhNSA_IhEEEEEEE11parse_errorINS1_12out_of_rangeEEEbmRKSC_RKT_, symObjAddr: 0xD5C8, symBinAddr: 0x29980, symSize: 0x54 }
  - { offset: 0x20CA68, size: 0x8, addend: 0x0, symName: __ZN8nlohmann16json_abi_v3_11_26detail28json_sax_dom_callback_parserINS0_10basic_jsonINSt3__13mapENS4_6vectorENS4_12basic_stringIcNS4_11char_traitsIcEENS4_9allocatorIcEEEEbxydSA_NS0_14adl_serializerENS6_IhNSA_IhEEEEEEE12start_objectEm, symObjAddr: 0xC8F0, symBinAddr: 0x28CA8, symSize: 0x368 }
  - { offset: 0x20CA73, size: 0x8, addend: 0x0, symName: __ZN8nlohmann16json_abi_v3_11_26detail11parse_errorC1ERKS2_, symObjAddr: 0xFCE4, symBinAddr: 0x2B8D0, symSize: 0x58 }
  - { offset: 0x20CFD4, size: 0x8, addend: 0x0, symName: __ZN8nlohmann16json_abi_v3_11_26detail19json_sax_dom_parserINS0_10basic_jsonINSt3__13mapENS4_6vectorENS4_12basic_stringIcNS4_11char_traitsIcEENS4_9allocatorIcEEEEbxydSA_NS0_14adl_serializerENS6_IhNSA_IhEEEEEEE12handle_valueIRbEEPSG_OT_, symObjAddr: 0x10DC8, symBinAddr: 0x2C51C, symSize: 0x11C }
  - { offset: 0x20D4AE, size: 0x8, addend: 0x0, symName: __ZN8nlohmann16json_abi_v3_11_26detail19json_sax_dom_parserINS0_10basic_jsonINSt3__13mapENS4_6vectorENS4_12basic_stringIcNS4_11char_traitsIcEENS4_9allocatorIcEEEEbxydSA_NS0_14adl_serializerENS6_IhNSA_IhEEEEEEE11start_arrayEm, symObjAddr: 0x10500, symBinAddr: 0x2BC54, symSize: 0x2A4 }
  - { offset: 0x20DB58, size: 0x8, addend: 0x0, symName: __ZN8nlohmann16json_abi_v3_11_26detail19json_sax_dom_parserINS0_10basic_jsonINSt3__13mapENS4_6vectorENS4_12basic_stringIcNS4_11char_traitsIcEENS4_9allocatorIcEEEEbxydSA_NS0_14adl_serializerENS6_IhNSA_IhEEEEEEE12handle_valueIRxEEPSG_OT_, symObjAddr: 0x111F8, symBinAddr: 0x2C94C, symSize: 0x11C }
  - { offset: 0x20E040, size: 0x8, addend: 0x0, symName: __ZN8nlohmann16json_abi_v3_11_26detail19json_sax_dom_parserINS0_10basic_jsonINSt3__13mapENS4_6vectorENS4_12basic_stringIcNS4_11char_traitsIcEENS4_9allocatorIcEEEEbxydSA_NS0_14adl_serializerENS6_IhNSA_IhEEEEEEE12handle_valueIDnEEPSG_OT_, symObjAddr: 0x10FF4, symBinAddr: 0x2C748, symSize: 0x100 }
  - { offset: 0x20E4A1, size: 0x8, addend: 0x0, symName: __ZN8nlohmann16json_abi_v3_11_26detail19json_sax_dom_parserINS0_10basic_jsonINSt3__13mapENS4_6vectorENS4_12basic_stringIcNS4_11char_traitsIcEENS4_9allocatorIcEEEEbxydSA_NS0_14adl_serializerENS6_IhNSA_IhEEEEEEE12start_objectEm, symObjAddr: 0x1025C, symBinAddr: 0x2B9B0, symSize: 0x2A4 }
  - { offset: 0x20EB48, size: 0x8, addend: 0x0, symName: __ZN8nlohmann16json_abi_v3_11_26detail19json_sax_dom_parserINS0_10basic_jsonINSt3__13mapENS4_6vectorENS4_12basic_stringIcNS4_11char_traitsIcEENS4_9allocatorIcEEEEbxydSA_NS0_14adl_serializerENS6_IhNSA_IhEEEEEEE12handle_valueIRSC_EEPSG_OT_, symObjAddr: 0x11424, symBinAddr: 0x2CB78, symSize: 0x220 }
  - { offset: 0x20F80E, size: 0x8, addend: 0x0, symName: __ZN8nlohmann16json_abi_v3_11_26detail19json_sax_dom_parserINS0_10basic_jsonINSt3__13mapENS4_6vectorENS4_12basic_stringIcNS4_11char_traitsIcEENS4_9allocatorIcEEEEbxydSA_NS0_14adl_serializerENS6_IhNSA_IhEEEEEEE12handle_valueIRdEEPSG_OT_, symObjAddr: 0x10B9C, symBinAddr: 0x2C2F0, symSize: 0x11C }
  - { offset: 0x20FCF8, size: 0x8, addend: 0x0, symName: __ZN8nlohmann16json_abi_v3_11_26detail19json_sax_dom_parserINS0_10basic_jsonINSt3__13mapENS4_6vectorENS4_12basic_stringIcNS4_11char_traitsIcEENS4_9allocatorIcEEEEbxydSA_NS0_14adl_serializerENS6_IhNSA_IhEEEEEEE12handle_valueIRyEEPSG_OT_, symObjAddr: 0x11814, symBinAddr: 0x2CF68, symSize: 0x11C }
  - { offset: 0x2101F2, size: 0x8, addend: 0x0, symName: __ZNSt3__16__treeINS_12__value_typeINS_12basic_stringIcNS_11char_traitsIcEENS_9allocatorIcEEEEN8nlohmann16json_abi_v3_11_210basic_jsonINS_3mapENS_6vectorES7_bxydS5_NS9_14adl_serializerENSC_IhNS5_IhEEEEEEEENS_19__map_value_compareIS7_SH_NS_4lessIvEELb1EEENS5_ISH_EEE25__emplace_unique_key_argsIS7_JRKNS_21piecewise_construct_tENS_5tupleIJRKS7_EEENSS_IJEEEEEENS_4pairINS_15__tree_iteratorISH_PNS_11__tree_nodeISH_PvEElEEbEERKT_DpOT0_, symObjAddr: 0xEDAC, symBinAddr: 0x2A998, symSize: 0x1A0 }
  - { offset: 0x21098F, size: 0x8, addend: 0x0, symName: __ZN8nlohmann16json_abi_v3_11_26detail19json_sax_dom_parserINS0_10basic_jsonINSt3__13mapENS4_6vectorENS4_12basic_stringIcNS4_11char_traitsIcEENS4_9allocatorIcEEEEbxydSA_NS0_14adl_serializerENS6_IhNSA_IhEEEEEEE11parse_errorINS1_11parse_errorEEEbmRKSC_RKT_, symObjAddr: 0xC5C4, symBinAddr: 0x28A90, symSize: 0x54 }
  - { offset: 0x2109E0, size: 0x8, addend: 0x0, symName: __ZN8nlohmann16json_abi_v3_11_26detail19json_sax_dom_parserINS0_10basic_jsonINSt3__13mapENS4_6vectorENS4_12basic_stringIcNS4_11char_traitsIcEENS4_9allocatorIcEEEEbxydSA_NS0_14adl_serializerENS6_IhNSA_IhEEEEEEE11parse_errorINS1_12out_of_rangeEEEbmRKSC_RKT_, symObjAddr: 0x107A4, symBinAddr: 0x2BEF8, symSize: 0x54 }
  - { offset: 0x211012, size: 0x8, addend: 0x0, symName: __ZN8nlohmann16json_abi_v3_11_26detail28json_sax_dom_callback_parserINS0_10basic_jsonINSt3__13mapENS4_6vectorENS4_12basic_stringIcNS4_11char_traitsIcEENS4_9allocatorIcEEEEbxydSA_NS0_14adl_serializerENS6_IhNSA_IhEEEEEEE12handle_valueINS1_7value_tEEENS4_4pairIbPSG_EEOT_b, symObjAddr: 0xD8D0, symBinAddr: 0x299D4, symSize: 0x2A8 }
  - { offset: 0x21268E, size: 0x8, addend: 0x0, symName: __ZNK8nlohmann16json_abi_v3_11_26detail9iter_implINS0_10basic_jsonINSt3__13mapENS4_6vectorENS4_12basic_stringIcNS4_11char_traitsIcEENS4_9allocatorIcEEEEbxydSA_NS0_14adl_serializerENS6_IhNSA_IhEEEEEEEeqISH_LDn0EEEbRKT_, symObjAddr: 0xE3B0, symBinAddr: 0x2A250, symSize: 0x108 }
  - { offset: 0x2128E2, size: 0x8, addend: 0x0, symName: __ZNK8nlohmann16json_abi_v3_11_26detail9iter_implINS0_10basic_jsonINSt3__13mapENS4_6vectorENS4_12basic_stringIcNS4_11char_traitsIcEENS4_9allocatorIcEEEEbxydSA_NS0_14adl_serializerENS6_IhNSA_IhEEEEEEEptEv, symObjAddr: 0xDF90, symBinAddr: 0x29E30, symSize: 0x100 }
  - { offset: 0x212AFD, size: 0x8, addend: 0x0, symName: __ZN8nlohmann16json_abi_v3_11_210basic_jsonINSt3__13mapENS2_6vectorENS2_12basic_stringIcNS2_11char_traitsIcEENS2_9allocatorIcEEEEbxydS8_NS0_14adl_serializerENS4_IhNS8_IhEEEEE5eraseINS0_6detail9iter_implISE_EELi0EEET_SJ_, symObjAddr: 0xE090, symBinAddr: 0x29F30, symSize: 0x320 }
  - { offset: 0x2135C4, size: 0x8, addend: 0x0, symName: __ZN8nlohmann16json_abi_v3_11_26detail12out_of_rangeC1ERKS2_, symObjAddr: 0xEFEC, symBinAddr: 0x2ABD8, symSize: 0x4C }
  - { offset: 0x2137BA, size: 0x8, addend: 0x0, symName: __ZNSt3__16vectorIN8nlohmann16json_abi_v3_11_210basic_jsonINS_3mapES0_NS_12basic_stringIcNS_11char_traitsIcEENS_9allocatorIcEEEEbxydS8_NS2_14adl_serializerENS0_IhNS8_IhEEEEEENS8_ISE_EEE24__emplace_back_slow_pathIJSE_EEEPSE_DpOT_, symObjAddr: 0xDE34, symBinAddr: 0x29D1C, symSize: 0x114 }
  - { offset: 0x213D96, size: 0x8, addend: 0x0, symName: __ZN8nlohmann16json_abi_v3_11_26detail16invalid_iterator6createIPNS0_10basic_jsonINSt3__13mapENS5_6vectorENS5_12basic_stringIcNS5_11char_traitsIcEENS5_9allocatorIcEEEEbxydSB_NS0_14adl_serializerENS7_IhNSB_IhEEEEEELi0EEES2_iRKSD_T_, symObjAddr: 0xE4B8, symBinAddr: 0x2A358, symSize: 0x1C4 }
  - { offset: 0x214C9B, size: 0x8, addend: 0x0, symName: __ZNSt3__16__treeINS_12__value_typeINS_12basic_stringIcNS_11char_traitsIcEENS_9allocatorIcEEEEN8nlohmann16json_abi_v3_11_210basic_jsonINS_3mapENS_6vectorES7_bxydS5_NS9_14adl_serializerENSC_IhNS5_IhEEEEEEEENS_19__map_value_compareIS7_SH_NS_4lessIvEELb1EEENS5_ISH_EEE5eraseENS_21__tree_const_iteratorISH_PNS_11__tree_nodeISH_PvEElEE, symObjAddr: 0xE930, symBinAddr: 0x2A51C, symSize: 0xB8 }
  - { offset: 0x21585D, size: 0x8, addend: 0x0, symName: __ZN8nlohmann16json_abi_v3_11_26detail19json_sax_dom_parserINS0_10basic_jsonINSt3__13mapENS4_6vectorENS4_12basic_stringIcNS4_11char_traitsIcEENS4_9allocatorIcEEEEbxydSA_NS0_14adl_serializerENS6_IhNSA_IhEEEEEEE12handle_valueINS1_7value_tEEEPSG_OT_, symObjAddr: 0x107F8, symBinAddr: 0x2BF4C, symSize: 0x24C }
  - { offset: 0x2167CF, size: 0x8, addend: 0x0, symName: __ZNSt3__16vectorIN8nlohmann16json_abi_v3_11_210basic_jsonINS_3mapES0_NS_12basic_stringIcNS_11char_traitsIcEENS_9allocatorIcEEEEbxydS8_NS2_14adl_serializerENS0_IhNS8_IhEEEEEENS8_ISE_EEE24__emplace_back_slow_pathIJNS2_6detail7value_tEEEEPSE_DpOT_, symObjAddr: 0x10A44, symBinAddr: 0x2C198, symSize: 0x158 }
  - { offset: 0x216F7F, size: 0x8, addend: 0x0, symName: __ZNSt3__16vectorIN8nlohmann16json_abi_v3_11_210basic_jsonINS_3mapES0_NS_12basic_stringIcNS_11char_traitsIcEENS_9allocatorIcEEEEbxydS8_NS2_14adl_serializerENS0_IhNS8_IhEEEEEENS8_ISE_EEE24__emplace_back_slow_pathIJRdEEEPSE_DpOT_, symObjAddr: 0x10CB8, symBinAddr: 0x2C40C, symSize: 0x110 }
  - { offset: 0x21760E, size: 0x8, addend: 0x0, symName: __ZNSt3__16vectorIN8nlohmann16json_abi_v3_11_210basic_jsonINS_3mapES0_NS_12basic_stringIcNS_11char_traitsIcEENS_9allocatorIcEEEEbxydS8_NS2_14adl_serializerENS0_IhNS8_IhEEEEEENS8_ISE_EEE24__emplace_back_slow_pathIJRbEEEPSE_DpOT_, symObjAddr: 0x10EE4, symBinAddr: 0x2C638, symSize: 0x110 }
  - { offset: 0x217C8D, size: 0x8, addend: 0x0, symName: __ZNSt3__16vectorIN8nlohmann16json_abi_v3_11_210basic_jsonINS_3mapES0_NS_12basic_stringIcNS_11char_traitsIcEENS_9allocatorIcEEEEbxydS8_NS2_14adl_serializerENS0_IhNS8_IhEEEEEENS8_ISE_EEE24__emplace_back_slow_pathIJDnEEEPSE_DpOT_, symObjAddr: 0x110F4, symBinAddr: 0x2C848, symSize: 0x104 }
  - { offset: 0x2182E8, size: 0x8, addend: 0x0, symName: __ZNSt3__16vectorIN8nlohmann16json_abi_v3_11_210basic_jsonINS_3mapES0_NS_12basic_stringIcNS_11char_traitsIcEENS_9allocatorIcEEEEbxydS8_NS2_14adl_serializerENS0_IhNS8_IhEEEEEENS8_ISE_EEE24__emplace_back_slow_pathIJRxEEEPSE_DpOT_, symObjAddr: 0x11314, symBinAddr: 0x2CA68, symSize: 0x110 }
  - { offset: 0x218975, size: 0x8, addend: 0x0, symName: __ZNSt3__16vectorIN8nlohmann16json_abi_v3_11_210basic_jsonINS_3mapES0_NS_12basic_stringIcNS_11char_traitsIcEENS_9allocatorIcEEEEbxydS8_NS2_14adl_serializerENS0_IhNS8_IhEEEEEENS8_ISE_EEE24__emplace_back_slow_pathIJRSA_EEEPSE_DpOT_, symObjAddr: 0x11644, symBinAddr: 0x2CD98, symSize: 0x1D0 }
  - { offset: 0x21938B, size: 0x8, addend: 0x0, symName: __ZNSt3__16vectorIN8nlohmann16json_abi_v3_11_210basic_jsonINS_3mapES0_NS_12basic_stringIcNS_11char_traitsIcEENS_9allocatorIcEEEEbxydS8_NS2_14adl_serializerENS0_IhNS8_IhEEEEEENS8_ISE_EEE24__emplace_back_slow_pathIJRyEEEPSE_DpOT_, symObjAddr: 0x11930, symBinAddr: 0x2D084, symSize: 0x110 }
  - { offset: 0x21A36A, size: 0x8, addend: 0x0, symName: __ZN8nlohmann16json_abi_v3_11_26detail10serializerINS0_10basic_jsonINSt3__13mapENS4_6vectorENS4_12basic_stringIcNS4_11char_traitsIcEENS4_9allocatorIcEEEEbxydSA_NS0_14adl_serializerENS6_IhNSA_IhEEEEEEE12dump_escapedERKSC_b, symObjAddr: 0x12EB8, symBinAddr: 0x2E54C, symSize: 0x54C }
  - { offset: 0x21ADCC, size: 0x8, addend: 0x0, symName: __ZNSt3__120__shared_ptr_emplaceIN8nlohmann16json_abi_v3_11_26detail21output_string_adapterIcNS_12basic_stringIcNS_11char_traitsIcEENS_9allocatorIcEEEEEENS8_ISB_EEED1Ev, symObjAddr: 0x12E60, symBinAddr: 0x2E4F4, symSize: 0x10 }
  - { offset: 0x21ADEE, size: 0x8, addend: 0x0, symName: __ZNSt3__120__shared_ptr_emplaceIN8nlohmann16json_abi_v3_11_26detail21output_string_adapterIcNS_12basic_stringIcNS_11char_traitsIcEENS_9allocatorIcEEEEEENS8_ISB_EEED1Ev, symObjAddr: 0x12E60, symBinAddr: 0x2E4F4, symSize: 0x10 }
  - { offset: 0x21AE24, size: 0x8, addend: 0x0, symName: __ZNSt3__120__shared_ptr_emplaceIN8nlohmann16json_abi_v3_11_26detail21output_string_adapterIcNS_12basic_stringIcNS_11char_traitsIcEENS_9allocatorIcEEEEEENS8_ISB_EEED0Ev, symObjAddr: 0x12E70, symBinAddr: 0x2E504, symSize: 0x20 }
  - { offset: 0x21AF10, size: 0x8, addend: 0x0, symName: __ZNSt3__120__shared_ptr_emplaceIN8nlohmann16json_abi_v3_11_26detail21output_string_adapterIcNS_12basic_stringIcNS_11char_traitsIcEENS_9allocatorIcEEEEEENS8_ISB_EEE16__on_zero_sharedEv, symObjAddr: 0x12E90, symBinAddr: 0x2E524, symSize: 0xC }
  - { offset: 0x21AF39, size: 0x8, addend: 0x0, symName: __ZNSt3__120__shared_ptr_emplaceIN8nlohmann16json_abi_v3_11_26detail21output_string_adapterIcNS_12basic_stringIcNS_11char_traitsIcEENS_9allocatorIcEEEEEENS8_ISB_EEE16__on_zero_sharedEv, symObjAddr: 0x12E90, symBinAddr: 0x2E524, symSize: 0xC }
  - { offset: 0x21AF57, size: 0x8, addend: 0x0, symName: __ZNSt3__120__shared_ptr_emplaceIN8nlohmann16json_abi_v3_11_26detail21output_string_adapterIcNS_12basic_stringIcNS_11char_traitsIcEENS_9allocatorIcEEEEEENS8_ISB_EEE16__on_zero_sharedEv, symObjAddr: 0x12E90, symBinAddr: 0x2E524, symSize: 0xC }
  - { offset: 0x21AF75, size: 0x8, addend: 0x0, symName: __ZNSt3__120__shared_ptr_emplaceIN8nlohmann16json_abi_v3_11_26detail21output_string_adapterIcNS_12basic_stringIcNS_11char_traitsIcEENS_9allocatorIcEEEEEENS8_ISB_EEE16__on_zero_sharedEv, symObjAddr: 0x12E90, symBinAddr: 0x2E524, symSize: 0xC }
  - { offset: 0x21AFF8, size: 0x8, addend: 0x0, symName: __ZNSt3__120__shared_ptr_emplaceIN8nlohmann16json_abi_v3_11_26detail21output_string_adapterIcNS_12basic_stringIcNS_11char_traitsIcEENS_9allocatorIcEEEEEENS8_ISB_EEE21__on_zero_shared_weakEv, symObjAddr: 0x12E9C, symBinAddr: 0x2E530, symSize: 0x4 }
  - { offset: 0x21B02B, size: 0x8, addend: 0x0, symName: __ZNSt3__120__shared_ptr_emplaceIN8nlohmann16json_abi_v3_11_26detail21output_string_adapterIcNS_12basic_stringIcNS_11char_traitsIcEENS_9allocatorIcEEEEEENS8_ISB_EEE21__on_zero_shared_weakEv, symObjAddr: 0x12E9C, symBinAddr: 0x2E530, symSize: 0x4 }
  - { offset: 0x21B04D, size: 0x8, addend: 0x0, symName: __ZNSt3__120__shared_ptr_emplaceIN8nlohmann16json_abi_v3_11_26detail21output_string_adapterIcNS_12basic_stringIcNS_11char_traitsIcEENS_9allocatorIcEEEEEENS8_ISB_EEE21__on_zero_shared_weakEv, symObjAddr: 0x12E9C, symBinAddr: 0x2E530, symSize: 0x4 }
  - { offset: 0x21B06F, size: 0x8, addend: 0x0, symName: __ZNSt3__120__shared_ptr_emplaceIN8nlohmann16json_abi_v3_11_26detail21output_string_adapterIcNS_12basic_stringIcNS_11char_traitsIcEENS_9allocatorIcEEEEEENS8_ISB_EEE21__on_zero_shared_weakEv, symObjAddr: 0x12E9C, symBinAddr: 0x2E530, symSize: 0x4 }
  - { offset: 0x21B09B, size: 0x8, addend: 0x0, symName: __ZNSt3__120__shared_ptr_emplaceIN8nlohmann16json_abi_v3_11_26detail21output_string_adapterIcNS_12basic_stringIcNS_11char_traitsIcEENS_9allocatorIcEEEEEENS8_ISB_EEE21__on_zero_shared_weakEv, symObjAddr: 0x12E9C, symBinAddr: 0x2E530, symSize: 0x4 }
  - { offset: 0x21B0C2, size: 0x8, addend: 0x0, symName: __ZNSt3__120__shared_ptr_emplaceIN8nlohmann16json_abi_v3_11_26detail21output_string_adapterIcNS_12basic_stringIcNS_11char_traitsIcEENS_9allocatorIcEEEEEENS8_ISB_EEE21__on_zero_shared_weakEv, symObjAddr: 0x12E9C, symBinAddr: 0x2E530, symSize: 0x4 }
  - { offset: 0x21B0ED, size: 0x8, addend: 0x0, symName: __ZN8nlohmann16json_abi_v3_11_26detail21output_string_adapterIcNSt3__112basic_stringIcNS3_11char_traitsIcEENS3_9allocatorIcEEEEE15write_characterEc, symObjAddr: 0x12EA0, symBinAddr: 0x2E534, symSize: 0x8 }
  - { offset: 0x21B122, size: 0x8, addend: 0x0, symName: __ZN8nlohmann16json_abi_v3_11_26detail21output_string_adapterIcNSt3__112basic_stringIcNS3_11char_traitsIcEENS3_9allocatorIcEEEEE16write_charactersEPKcm, symObjAddr: 0x12EA8, symBinAddr: 0x2E53C, symSize: 0x8 }
  - { offset: 0x21B165, size: 0x8, addend: 0x0, symName: __ZN8nlohmann16json_abi_v3_11_26detail21output_string_adapterIcNSt3__112basic_stringIcNS3_11char_traitsIcEENS3_9allocatorIcEEEEED1Ev, symObjAddr: 0x12EB0, symBinAddr: 0x2E544, symSize: 0x4 }
  - { offset: 0x21B190, size: 0x8, addend: 0x0, symName: __ZN8nlohmann16json_abi_v3_11_26detail21output_string_adapterIcNSt3__112basic_stringIcNS3_11char_traitsIcEENS3_9allocatorIcEEEEED0Ev, symObjAddr: 0x12EB4, symBinAddr: 0x2E548, symSize: 0x4 }
  - { offset: 0x21BB4C, size: 0x8, addend: 0x0, symName: __ZN9inference21InferenceRunnerParams11inout_paramIxEC2ERKNSt3__112basic_stringIcNS3_11char_traitsIcEENS3_9allocatorIcEEEERKNS3_6vectorIxNS7_IxEEEE, symObjAddr: 0x148A4, symBinAddr: 0x2F8C4, symSize: 0xF4 }
  - { offset: 0x21BD4C, size: 0x8, addend: 0x0, symName: __ZN9inference21InferenceRunnerParams11inout_paramIxEC2ERKNSt3__112basic_stringIcNS3_11char_traitsIcEENS3_9allocatorIcEEEERKNS3_6vectorIxNS7_IxEEEE.cold.1, symObjAddr: 0x1E3C4, symBinAddr: 0xC57C94, symSize: 0x14 }
  - { offset: 0x21BD67, size: 0x8, addend: 0x0, symName: __ZN9inference21InferenceRunnerParams11inout_paramIxEC2ERKNSt3__112basic_stringIcNS3_11char_traitsIcEENS3_9allocatorIcEEEERKNS3_6vectorIxNS7_IxEEEE.cold.1, symObjAddr: 0x1E3C4, symBinAddr: 0xC57C94, symSize: 0x14 }
  - { offset: 0x21BD7B, size: 0x8, addend: 0x0, symName: __ZN9inference21InferenceRunnerParams11inout_paramIxEC2ERKNSt3__112basic_stringIcNS3_11char_traitsIcEENS3_9allocatorIcEEEERKNS3_6vectorIxNS7_IxEEEE.cold.1, symObjAddr: 0x1E3C4, symBinAddr: 0xC57C94, symSize: 0x14 }
  - { offset: 0x21BD90, size: 0x8, addend: 0x0, symName: __ZN9inference21InferenceRunnerParams11inout_paramIxEC2ERKNSt3__112basic_stringIcNS3_11char_traitsIcEENS3_9allocatorIcEEEERKNS3_6vectorIxNS7_IxEEEE.cold.1, symObjAddr: 0x1E3C4, symBinAddr: 0xC57C94, symSize: 0x14 }
  - { offset: 0x21BE68, size: 0x8, addend: 0x0, symName: __ZNSt3__135__uninitialized_allocator_copy_implB8ne180100INS_9allocatorINS_6vectorIiNS1_IiEEEEEEPKS4_S7_PS4_EET2_RT_T0_T1_S9_, symObjAddr: 0x149AC, symBinAddr: 0x2F9B8, symSize: 0x100 }
  - { offset: 0x21C11D, size: 0x8, addend: 0x0, symName: __ZNSt3__128__exception_guard_exceptionsINS_29_AllocatorDestroyRangeReverseINS_9allocatorINS_6vectorIiNS2_IiEEEEEEPS5_EEED1B8ne180100Ev, symObjAddr: 0x14AAC, symBinAddr: 0x2FAB8, symSize: 0x6C }
  - { offset: 0x21C34D, size: 0x8, addend: 0x0, symName: __ZN7facesdk18FaceDetectorRetinaIN9inference18InferenceRunnerORTEEC2ERKNS_18FaceDetectorParamsENSt3__110unique_ptrINS1_15InferenceRunnerIS2_EENS7_14default_deleteISA_EEEERKNS_12PriorsConfigE, symObjAddr: 0x14B2C, symBinAddr: 0x2FB24, symSize: 0x190 }
  - { offset: 0x21C5C3, size: 0x8, addend: 0x0, symName: __ZN7facesdk12PriorsConfigC2ERKS0_, symObjAddr: 0x17294, symBinAddr: 0x3228C, symSize: 0x134 }
  - { offset: 0x21FF29, size: 0x8, addend: 0x0, symName: __ZNK7facesdk18FaceDetectorRetinaIN9inference18InferenceRunnerORTEE6detectERKN2cv3MatERNSt3__16vectorINS4_5Rect_IiEENS8_9allocatorISB_EEEERNS9_INS9_INS4_6Point_IiEENSC_ISH_EEEENSC_ISJ_EEEERNS9_INS9_IfNSC_IfEEEENSC_ISO_EEEE, symObjAddr: 0x14CBC, symBinAddr: 0x2FCB4, symSize: 0x2448 }
  - { offset: 0x22903A, size: 0x8, addend: 0x0, symName: __ZNSt3__16vectorIN2cv3MatENS_9allocatorIS2_EEEC1B8ne180100ESt16initializer_listIS2_E, symObjAddr: 0x1759C, symBinAddr: 0x32594, symSize: 0x10C }
  - { offset: 0x2294AD, size: 0x8, addend: 0x0, symName: __ZN9inference15InferenceRunnerINS_18InferenceRunnerORTEE3runIffEEbmRKNSt3__16vectorINS5_IT_NS4_9allocatorIS6_EEEENS7_IS9_EEEERNS5_INS5_IT0_NS7_ISE_EEEENS7_ISG_EEEE, symObjAddr: 0x17D30, symBinAddr: 0x32D28, symSize: 0xAC }
  - { offset: 0x2298C6, size: 0x8, addend: 0x0, symName: __ZN5Eigen15PlainObjectBaseINS_6MatrixIfLin1ELi1ELi0ELin1ELi1EEEE6resizeEll, symObjAddr: 0x1A3BC, symBinAddr: 0x352F8, symSize: 0xA0 }
  - { offset: 0x229A5D, size: 0x8, addend: 0x0, symName: __ZN5Eigen12DenseStorageIfLin1ELin1ELin1ELi1EE6resizeElll, symObjAddr: 0x1A45C, symBinAddr: 0x35398, symSize: 0x90 }
  - { offset: 0x229BA7, size: 0x8, addend: 0x0, symName: __ZNK7facesdk18FaceDetectorRetinaIN9inference18InferenceRunnerORTEE14decodeLocationERKNSt3__16vectorIfNS4_9allocatorIfEEEERN5Eigen6MatrixIfLin1ELin1ELi0ELin1ELin1EEE, symObjAddr: 0x17DDC, symBinAddr: 0x32DD4, symSize: 0x5B0 }
  - { offset: 0x22C0EB, size: 0x8, addend: 0x0, symName: __ZNSt3__16vectorIN2cv5Rect_IdEENS_9allocatorIS3_EEE12emplace_backIJS3_EEERS3_DpOT_, symObjAddr: 0x1838C, symBinAddr: 0x33384, symSize: 0x1B8 }
  - { offset: 0x22C5A9, size: 0x8, addend: 0x0, symName: __ZNSt3__16vectorIN2cv5Rect_IiEENS_9allocatorIS3_EEE9push_backB8ne180100ERKS3_, symObjAddr: 0x18544, symBinAddr: 0x3353C, symSize: 0x19C }
  - { offset: 0x22C5FA, size: 0x8, addend: 0x0, symName: __ZNSt3__16vectorIN2cv5Rect_IiEENS_9allocatorIS3_EEE9push_backB8ne180100ERKS3_, symObjAddr: 0x18544, symBinAddr: 0x3353C, symSize: 0x19C }
  - { offset: 0x22CB03, size: 0x8, addend: 0x0, symName: __ZNK7facesdk18FaceDetectorRetinaIN9inference18InferenceRunnerORTEE15decodeLandmarksERKNSt3__16vectorIfNS4_9allocatorIfEEEERN5Eigen6MatrixIfLin1ELin1ELi0ELin1ELin1EEE, symObjAddr: 0x186E0, symBinAddr: 0x336D8, symSize: 0x390 }
  - { offset: 0x22CB0E, size: 0x8, addend: 0x0, symName: __ZNK7facesdk18FaceDetectorRetinaIN9inference18InferenceRunnerORTEE15decodeLandmarksERKNSt3__16vectorIfNS4_9allocatorIfEEEERN5Eigen6MatrixIfLin1ELin1ELi0ELin1ELin1EEE, symObjAddr: 0x186E0, symBinAddr: 0x336D8, symSize: 0x390 }
  - { offset: 0x22D200, size: 0x8, addend: 0x0, symName: __ZNSt3__16vectorINS0_IN2cv6Point_IiEENS_9allocatorIS3_EEEENS4_IS6_EEE21__push_back_slow_pathIRKS6_EEPS6_OT_, symObjAddr: 0x1AFD8, symBinAddr: 0x35E48, symSize: 0x2C8 }
  - { offset: 0x22DC2C, size: 0x8, addend: 0x0, symName: __ZNSt3__16vectorINS0_IfNS_9allocatorIfEEEENS1_IS3_EEE21__push_back_slow_pathIRKS3_EEPS3_OT_, symObjAddr: 0x1B320, symBinAddr: 0x36110, symSize: 0x20C }
  - { offset: 0x22E6C3, size: 0x8, addend: 0x0, symName: __ZNSt3__16vectorINS0_IN2cv6Point_IiEENS_9allocatorIS3_EEEENS4_IS6_EEE21__push_back_slow_pathIRKS6_EEPS6_OT_, symObjAddr: 0x1AFD8, symBinAddr: 0x35E48, symSize: 0x2C8 }
  - { offset: 0x22E776, size: 0x8, addend: 0x0, symName: __ZNSt3__16vectorIN2cv3MatENS_9allocatorIS2_EEED1B8ne180100Ev, symObjAddr: 0x18A70, symBinAddr: 0x33A68, symSize: 0x58 }
  - { offset: 0x22E909, size: 0x8, addend: 0x0, symName: __ZN7facesdk18FaceDetectorRetinaIN9inference18InferenceRunnerORTEED1Ev, symObjAddr: 0x17104, symBinAddr: 0x320FC, symSize: 0xC8 }
  - { offset: 0x22F054, size: 0x8, addend: 0x0, symName: __ZN7facesdk18FaceDetectorRetinaIN9inference18InferenceRunnerORTEED0Ev, symObjAddr: 0x171CC, symBinAddr: 0x321C4, symSize: 0xC8 }
  - { offset: 0x22F7D2, size: 0x8, addend: 0x0, symName: __ZNSt3__16vectorINS0_IiNS_9allocatorIiEEEENS1_IS3_EEEC2ERKS5_, symObjAddr: 0x173C8, symBinAddr: 0x323C0, symSize: 0xD4 }
  - { offset: 0x22FB69, size: 0x8, addend: 0x0, symName: __ZNSt3__16vectorINS0_IiNS_9allocatorIiEEEENS1_IS3_EEEC2ERKS5_.cold.1, symObjAddr: 0x1E418, symBinAddr: 0xC57CA8, symSize: 0x60 }
  - { offset: 0x23003F, size: 0x8, addend: 0x0, symName: __ZNSt3__16vectorIN2cv3MatENS_9allocatorIS2_EEE18__assign_with_sizeB8ne180100IPKS2_S8_EEvT_T0_l, symObjAddr: 0x18ADC, symBinAddr: 0x33AC0, symSize: 0x284 }
  - { offset: 0x2305F0, size: 0x8, addend: 0x0, symName: __ZNSt3__16vectorIN2cv3MatENS_9allocatorIS2_EEE18__assign_with_sizeB8ne180100IPKS2_S8_EEvT_T0_l, symObjAddr: 0x18ADC, symBinAddr: 0x33AC0, symSize: 0x284 }
  - { offset: 0x231105, size: 0x8, addend: 0x0, symName: __ZN9inference18InferenceRunnerORT3runIfffEEbmRKNSt3__16vectorINS3_IT_NS2_9allocatorIS4_EEEENS5_IS7_EEEERKNS3_INS3_IT0_NS5_ISC_EEEENS5_ISE_EEEERNS3_INS3_IT1_NS5_ISJ_EEEENS5_ISL_EEEE, symObjAddr: 0x18EE0, symBinAddr: 0x33E44, symSize: 0x444 }
  - { offset: 0x232D16, size: 0x8, addend: 0x0, symName: __ZN9inference15InferenceRunnerINS_18InferenceRunnerORTEE3runIffEEbmRKNSt3__16vectorINS5_IT_NS4_9allocatorIS6_EEEENS7_IS9_EEEERNS5_INS5_IT0_NS7_ISE_EEEENS7_ISG_EEEE.cold.1, symObjAddr: 0x1E478, symBinAddr: 0xC57D08, symSize: 0x48 }
  - { offset: 0x2351C8, size: 0x8, addend: 0x0, symName: __ZNSt3__135__uninitialized_allocator_copy_implB8ne180100INS_9allocatorINS_6vectorIfNS1_IfEEEEEEPKS4_S7_PS4_EET2_RT_T0_T1_S9_, symObjAddr: 0x18D74, symBinAddr: 0x33D44, symSize: 0x100 }
  - { offset: 0x2359F2, size: 0x8, addend: 0x0, symName: __ZNSt3__16vectorIN3Ort5ValueENS_9allocatorIS2_EEE24__emplace_back_slow_pathIJS2_EEEPS2_DpOT_, symObjAddr: 0x199F0, symBinAddr: 0x34954, symSize: 0x1A0 }
  - { offset: 0x236020, size: 0x8, addend: 0x0, symName: __ZN9inference18InferenceRunnerORT3runIfEEbRNSt3__16vectorIN3Ort5ValueENS2_9allocatorIS5_EEEERNS3_INS3_IT_NS6_ISA_EEEENS6_ISC_EEEE, symObjAddr: 0x19324, symBinAddr: 0x34288, symSize: 0x470 }
  - { offset: 0x237A84, size: 0x8, addend: 0x0, symName: __ZNSt3__16vectorIN3Ort5ValueENS_9allocatorIS2_EEED1B8ne180100Ev, symObjAddr: 0x19794, symBinAddr: 0x346F8, symSize: 0x64 }
  - { offset: 0x238590, size: 0x8, addend: 0x0, symName: __ZNSt3__16vectorIPKcNS_9allocatorIS2_EEE8__appendEmRKS2_, symObjAddr: 0x19BA4, symBinAddr: 0x34AF4, symSize: 0x264 }
  - { offset: 0x238AB1, size: 0x8, addend: 0x0, symName: __ZNSt3__16vectorIN3Ort5ValueENS_9allocatorIS2_EEE7reserveEm, symObjAddr: 0x19E1C, symBinAddr: 0x34D58, symSize: 0x178 }
  - { offset: 0x238F5D, size: 0x8, addend: 0x0, symName: __ZNSt3__16vectorIN3Ort5ValueENS_9allocatorIS2_EEE24__emplace_back_slow_pathIJDnEEEPS2_DpOT_, symObjAddr: 0x19F94, symBinAddr: 0x34ED0, symSize: 0x1A8 }
  - { offset: 0x23951C, size: 0x8, addend: 0x0, symName: __ZNSt3__16vectorINS0_IfNS_9allocatorIfEEEENS1_IS3_EEE24__emplace_back_slow_pathIJRPfS7_EEEPS3_DpOT_, symObjAddr: 0x1A13C, symBinAddr: 0x35078, symSize: 0x214 }
  - { offset: 0x23A18F, size: 0x8, addend: 0x0, symName: __ZN3Ort9ExceptionD1Ev, symObjAddr: 0x19934, symBinAddr: 0x34898, symSize: 0x4C }
  - { offset: 0x23A2FF, size: 0x8, addend: 0x0, symName: __ZN3Ort9ExceptionD0Ev, symObjAddr: 0x19980, symBinAddr: 0x348E4, symSize: 0x54 }
  - { offset: 0x23A46E, size: 0x8, addend: 0x0, symName: __ZNK3Ort9Exception4whatEv, symObjAddr: 0x199D4, symBinAddr: 0x34938, symSize: 0x1C }
  - { offset: 0x23A704, size: 0x8, addend: 0x0, symName: __ZNSt3__16vectorIPKcNS_9allocatorIS2_EEE8__appendEmRKS2_, symObjAddr: 0x19BA4, symBinAddr: 0x34AF4, symSize: 0x264 }
  - { offset: 0x23AACB, size: 0x8, addend: 0x0, symName: __ZNSt3__16vectorIN3Ort5ValueENS_9allocatorIS2_EEE7reserveEm, symObjAddr: 0x19E1C, symBinAddr: 0x34D58, symSize: 0x178 }
  - { offset: 0x23ADFD, size: 0x8, addend: 0x0, symName: __ZNSt3__114__split_bufferINS_6vectorIfNS_9allocatorIfEEEERNS2_IS4_EEED1Ev, symObjAddr: 0x1A350, symBinAddr: 0x3528C, symSize: 0x6C }
  - { offset: 0x23C5AD, size: 0x8, addend: 0x0, symName: __ZNSt3__16vectorINS0_IfNS_9allocatorIfEEEENS1_IS3_EEE21__push_back_slow_pathIRKS3_EEPS3_OT_, symObjAddr: 0x1B320, symBinAddr: 0x36110, symSize: 0x20C }
  - { offset: 0x23C751, size: 0x8, addend: 0x0, symName: __ZN7facesdk10ClassifierIN9inference18InferenceRunnerORTEhfED1Ev, symObjAddr: 0x1B52C, symBinAddr: 0x3631C, symSize: 0x5C }
  - { offset: 0x23C8DB, size: 0x8, addend: 0x0, symName: __ZN7facesdk10ClassifierIN9inference18InferenceRunnerORTEhfED0Ev, symObjAddr: 0x1B588, symBinAddr: 0x36378, symSize: 0x5C }
  - { offset: 0x23CF5F, size: 0x8, addend: 0x0, symName: __ZNK7facesdk10ClassifierIN9inference18InferenceRunnerORTEhfE3runERKN2cv3MatERKNSt3__16vectorINS4_6Point_IiEENS8_9allocatorISB_EEEERNS9_IfNSC_IfEEEE, symObjAddr: 0x1B5E4, symBinAddr: 0x363D4, symSize: 0x35C }
  - { offset: 0x23E278, size: 0x8, addend: 0x0, symName: __ZN9inference15InferenceRunnerINS_18InferenceRunnerORTEE3runIhfEEbmRKNSt3__16vectorINS5_IT_NS4_9allocatorIS6_EEEENS7_IS9_EEEERNS5_INS5_IT0_NS7_ISE_EEEENS7_ISG_EEEE, symObjAddr: 0x1BFDC, symBinAddr: 0x36DCC, symSize: 0xAC }
  - { offset: 0x23E691, size: 0x8, addend: 0x0, symName: __ZNSt3__16vectorIfNS_9allocatorIfEEE18__assign_with_sizeB8ne180100INS_11__wrap_iterIPKfEES8_EEvT_T0_l, symObjAddr: 0x1C6A8, symBinAddr: 0x373B8, symSize: 0x148 }
  - { offset: 0x23F079, size: 0x8, addend: 0x0, symName: __ZNK7facesdk19EyeLandmarkDetectorIN9inference18InferenceRunnerORTEE6detectERKN2cv3MatERNSt3__16vectorINS4_6Point_IiEENS8_9allocatorISB_EEEE, symObjAddr: 0x1C7F0, symBinAddr: 0x37500, symSize: 0x75C }
  - { offset: 0x23F902, size: 0x8, addend: 0x0, symName: __ZN9inference18InferenceRunnerORT3runIhffEEbmRKNSt3__16vectorINS3_IT_NS2_9allocatorIS4_EEEENS5_IS7_EEEERKNS3_INS3_IT0_NS5_ISC_EEEENS5_ISE_EEEERNS3_INS3_IT1_NS5_ISJ_EEEENS5_ISL_EEEE, symObjAddr: 0x1C264, symBinAddr: 0x36F74, symSize: 0x444 }
  - { offset: 0x241BC7, size: 0x8, addend: 0x0, symName: __ZNK7facesdk19EyeLandmarkDetectorIN9inference18InferenceRunnerORTEE6detectERKN2cv3MatERNSt3__16vectorINS4_6Point_IiEENS8_9allocatorISB_EEEE, symObjAddr: 0x1C7F0, symBinAddr: 0x37500, symSize: 0x75C }
  - { offset: 0x243A19, size: 0x8, addend: 0x0, symName: __ZN7facesdk19EyeLandmarkDetectorIN9inference18InferenceRunnerORTEED1Ev, symObjAddr: 0x1CF4C, symBinAddr: 0x37C5C, symSize: 0x40 }
  - { offset: 0x243AFB, size: 0x8, addend: 0x0, symName: __ZN7facesdk19EyeLandmarkDetectorIN9inference18InferenceRunnerORTEED0Ev, symObjAddr: 0x1CF8C, symBinAddr: 0x37C9C, symSize: 0x44 }
  - { offset: 0x24612A, size: 0x8, addend: 0x0, symName: _OUTLINED_FUNCTION_0, symObjAddr: 0x1E588, symBinAddr: 0x37EEC, symSize: 0xC }
  - { offset: 0x246142, size: 0x8, addend: 0x0, symName: _OUTLINED_FUNCTION_1, symObjAddr: 0x1E594, symBinAddr: 0x37EF8, symSize: 0xC }
  - { offset: 0x24615A, size: 0x8, addend: 0x0, symName: _OUTLINED_FUNCTION_2, symObjAddr: 0x1E5A0, symBinAddr: 0x37F04, symSize: 0x10 }
  - { offset: 0x246172, size: 0x8, addend: 0x0, symName: _OUTLINED_FUNCTION_3, symObjAddr: 0x1E5B0, symBinAddr: 0x37F14, symSize: 0x8 }
  - { offset: 0x24618A, size: 0x8, addend: 0x0, symName: _OUTLINED_FUNCTION_4, symObjAddr: 0x1E5B8, symBinAddr: 0x37F1C, symSize: 0x18 }
  - { offset: 0x2461A2, size: 0x8, addend: 0x0, symName: _OUTLINED_FUNCTION_5, symObjAddr: 0x1E5D0, symBinAddr: 0x37F34, symSize: 0xC }
  - { offset: 0x2461BA, size: 0x8, addend: 0x0, symName: _OUTLINED_FUNCTION_6, symObjAddr: 0x1E5DC, symBinAddr: 0x37F40, symSize: 0xC }
  - { offset: 0x2461D2, size: 0x8, addend: 0x0, symName: _OUTLINED_FUNCTION_7, symObjAddr: 0x1E5E8, symBinAddr: 0x37F4C, symSize: 0x8 }
  - { offset: 0x2C56D5, size: 0x8, addend: 0x0, symName: __ZN5Eigen7umeyamaINS_6MatrixIfLi2ELi5ELi0ELi2ELi5EEES2_EENS_8internal29umeyama_transform_matrix_typeIT_T0_E4typeERKNS_10MatrixBaseIS5_EERKNS9_IS6_EEb, symObjAddr: 0x4CEC, symBinAddr: 0x3AD54, symSize: 0x4BC }
  - { offset: 0x2F9D15, size: 0x8, addend: 0x0, symName: __ZNSt3__116__throw_bad_castB8ne180100Ev, symObjAddr: 0x7ED8, symBinAddr: 0x3D6A0, symSize: 0x28 }
  - { offset: 0x305200, size: 0x8, addend: 0x0, symName: __ZN7facesdk8readFileERKNSt3__112basic_stringIcNS0_11char_traitsIcEENS0_9allocatorIcEEEE, symObjAddr: 0x48, symBinAddr: 0x38098, symSize: 0x2B8 }
  - { offset: 0x3057C3, size: 0x8, addend: 0x0, symName: __ZN7facesdk19serializeCurrResultERNS_15LivenessSessionEPKNS_12LFrameResultE, symObjAddr: 0x5BC, symBinAddr: 0x384C4, symSize: 0x290 }
  - { offset: 0x305FB6, size: 0x8, addend: 0x0, symName: __ZN7facesdk16serializeSessionERNS_15LivenessSessionE, symObjAddr: 0x84C, symBinAddr: 0x38754, symSize: 0x3D0 }
  - { offset: 0x306BB1, size: 0x8, addend: 0x0, symName: __ZN7facesdk10rectToJsonIiEEN8nlohmann16json_abi_v3_11_210basic_jsonINSt3__13mapENS4_6vectorENS4_12basic_stringIcNS4_11char_traitsIcEENS4_9allocatorIcEEEEbxydSA_NS2_14adl_serializerENS6_IhNSA_IhEEEEEERKN2cv5Rect_IT_EE, symObjAddr: 0xD3C, symBinAddr: 0x38B24, symSize: 0x1F0 }
  - { offset: 0x307402, size: 0x8, addend: 0x0, symName: __ZN7facesdk17generateDebugInfoERKNS_12LFrameResultERKNS_15LivenessSessionE, symObjAddr: 0xF2C, symBinAddr: 0x38D14, symSize: 0x1D8 }
  - { offset: 0x307B57, size: 0x8, addend: 0x0, symName: __ZN7facesdk17frameResultToJsonERKNS_12LFrameResultERKNS_17FrameSavingParamsE, symObjAddr: 0x13F0, symBinAddr: 0x38EEC, symSize: 0x6C8 }
  - { offset: 0x309DE6, size: 0x8, addend: 0x0, symName: __ZN7facesdk13ellipseToJsonERKNS_8LEllipseE, symObjAddr: 0x1AB8, symBinAddr: 0x395B4, symSize: 0x208 }
  - { offset: 0x30A64A, size: 0x8, addend: 0x0, symName: __ZN7facesdk11pointToJsonIiEEN8nlohmann16json_abi_v3_11_210basic_jsonINSt3__13mapENS4_6vectorENS4_12basic_stringIcNS4_11char_traitsIcEENS4_9allocatorIcEEEEbxydSA_NS2_14adl_serializerENS6_IhNSA_IhEEEEEERKN2cv6Point_IT_EE, symObjAddr: 0x1CC0, symBinAddr: 0x397BC, symSize: 0x110 }
  - { offset: 0x30AB25, size: 0x8, addend: 0x0, symName: __ZN7facesdk10faceToJsonERKNS_5LFaceE, symObjAddr: 0x1F30, symBinAddr: 0x398CC, symSize: 0x334 }
  - { offset: 0x30B362, size: 0x8, addend: 0x0, symName: __ZN7facesdk21faceOrientationToJsonENS_15LFaceOrienationE, symObjAddr: 0x2264, symBinAddr: 0x39C00, symSize: 0x18C }
  - { offset: 0x30B986, size: 0x8, addend: 0x0, symName: __ZN7facesdk9saveImageERKN2cv3MatERKNSt3__112basic_stringIcNS4_11char_traitsIcEENS4_9allocatorIcEEEERKNS4_6vectorIiNS8_IiEEEE, symObjAddr: 0x23F0, symBinAddr: 0x39D8C, symSize: 0x6C }
  - { offset: 0x30BBCB, size: 0x8, addend: 0x0, symName: __ZN7facesdk7calcFPSERKNS_15LivenessSessionE, symObjAddr: 0x2B9C, symBinAddr: 0x39DF8, symSize: 0x150 }
  - { offset: 0x30BCFA, size: 0x8, addend: 0x0, symName: __ZN7facesdk6centerERKN2cv5Rect_IiEE, symObjAddr: 0x2D4C, symBinAddr: 0x39F48, symSize: 0x1C }
  - { offset: 0x30BD18, size: 0x8, addend: 0x0, symName: __ZN7facesdk6centerERKN2cv5Rect_IiEE, symObjAddr: 0x2D4C, symBinAddr: 0x39F48, symSize: 0x1C }
  - { offset: 0x30BD8D, size: 0x8, addend: 0x0, symName: __ZN7facesdk15saveImageBase64ERKN2cv3MatERKNSt3__112basic_stringIcNS4_11char_traitsIcEENS4_9allocatorIcEEEERKNS4_6vectorIiNS8_IiEEEE, symObjAddr: 0x2EB8, symBinAddr: 0x39F64, symSize: 0xF8 }
  - { offset: 0x30C2DB, size: 0x8, addend: 0x0, symName: __ZN7facesdk11rotateImageERKN2cv3MatEi, symObjAddr: 0x2FF0, symBinAddr: 0x3A09C, symSize: 0xF8 }
  - { offset: 0x30C5E9, size: 0x8, addend: 0x0, symName: __ZN7facesdk11createFrameEPvN2cv5Size_IiEEii, symObjAddr: 0x30E8, symBinAddr: 0x3A194, symSize: 0xF8 }
  - { offset: 0x30C856, size: 0x8, addend: 0x0, symName: __ZN7facesdk17findBestFaceIndexERKNSt3__16vectorIN2cv5Rect_IiEENS0_9allocatorIS4_EEEERKNS2_5Size_IiEE, symObjAddr: 0x32D4, symBinAddr: 0x3A28C, symSize: 0x180 }
  - { offset: 0x30C8EB, size: 0x8, addend: 0x0, symName: __ZN7facesdk17findBestFaceIndexERKNSt3__16vectorIN2cv5Rect_IiEENS0_9allocatorIS4_EEEERKNS2_5Size_IiEE, symObjAddr: 0x32D4, symBinAddr: 0x3A28C, symSize: 0x180 }
  - { offset: 0x30CCED, size: 0x8, addend: 0x0, symName: __ZN7facesdk11calcFaceBoxERKN2cv5Size_IiEERKNS0_6Point_IiEERKNS_15LStageConstantsE, symObjAddr: 0x3BD4, symBinAddr: 0x3A444, symSize: 0x28 }
  - { offset: 0x30CD9B, size: 0x8, addend: 0x0, symName: __ZN7facesdk11calcEllipseERKN2cv5Rect_IiEERKNS0_6Point_IiEERKNS_15LStageConstantsE, symObjAddr: 0x3BFC, symBinAddr: 0x3A46C, symSize: 0x20 }
  - { offset: 0x30CE46, size: 0x8, addend: 0x0, symName: __ZN7facesdk16getHeightOnFrameEfiff, symObjAddr: 0x3C54, symBinAddr: 0x3A48C, symSize: 0x8C }
  - { offset: 0x30CFC5, size: 0x8, addend: 0x0, symName: __ZN7facesdk8calcBallERKNS_14LSessionParamsENS_15LFaceOrienationE, symObjAddr: 0x440C, symBinAddr: 0x3A518, symSize: 0x44 }
  - { offset: 0x30D0B1, size: 0x8, addend: 0x0, symName: __ZN7facesdk15calcCroppedFaceERKN2cv3MatERKNSt3__16vectorINS0_6Point_IiEENS4_9allocatorIS7_EEEERKNS5_INS6_IdEENS8_ISD_EEEERKNS0_5Size_IiEE, symObjAddr: 0x44F4, symBinAddr: 0x3A55C, symSize: 0x7F8 }
  - { offset: 0x30E5A8, size: 0x8, addend: 0x0, symName: __ZN7facesdk15calcCroppedFaceERKN2cv3MatERKNSt3__16vectorINS0_6Point_IiEENS4_9allocatorIS7_EEEE, symObjAddr: 0x51A8, symBinAddr: 0x3B210, symSize: 0x190 }
  - { offset: 0x30EC2C, size: 0x8, addend: 0x0, symName: __ZN7facesdk23generateTargetExposuresEjjjj, symObjAddr: 0x539C, symBinAddr: 0x3B3A0, symSize: 0x160 }
  - { offset: 0x30F019, size: 0x8, addend: 0x0, symName: __ZN7facesdk20generateRandomNumberIiEET_S1_S1_, symObjAddr: 0x54FC, symBinAddr: 0x3B500, symSize: 0x114 }
  - { offset: 0x30F6C4, size: 0x8, addend: 0x0, symName: __ZN7facesdk20generateRandomNumberIjEET_S1_S1_, symObjAddr: 0x5610, symBinAddr: 0x3B614, symSize: 0x114 }
  - { offset: 0x30FD6F, size: 0x8, addend: 0x0, symName: __ZN7facesdk16correctReadinessEf, symObjAddr: 0x5900, symBinAddr: 0x3B728, symSize: 0xA4 }
  - { offset: 0x30FDD0, size: 0x8, addend: 0x0, symName: __ZN7facesdk18calcLandmarkHeightERKNS_5LFaceE, symObjAddr: 0x59A4, symBinAddr: 0x3B7CC, symSize: 0xC8 }
  - { offset: 0x30FF4C, size: 0x8, addend: 0x0, symName: __ZN7facesdk17calcCurrentSectorERKN2cv6Point_IiEERKNS_14LSessionParamsEj, symObjAddr: 0x5A6C, symBinAddr: 0x3B894, symSize: 0x134 }
  - { offset: 0x310058, size: 0x8, addend: 0x0, symName: __ZN7facesdk14calcFaceHeightERKNSt3__16vectorIN2cv6Point_IiEENS0_9allocatorIS4_EEEE, symObjAddr: 0x5BA0, symBinAddr: 0x3B9C8, symSize: 0xA0 }
  - { offset: 0x3100D1, size: 0x8, addend: 0x0, symName: __ZN7facesdk14calcFaceHeightERKNSt3__16vectorIN2cv6Point_IiEENS0_9allocatorIS4_EEEE, symObjAddr: 0x5BA0, symBinAddr: 0x3B9C8, symSize: 0xA0 }
  - { offset: 0x3102CC, size: 0x8, addend: 0x0, symName: __ZN7facesdk17serializeDepthMapERKN2cv3MatERKNS0_5Size_IiEERKNS0_5Rect_IiEEjb, symObjAddr: 0x5C40, symBinAddr: 0x3BA68, symSize: 0x498 }
  - { offset: 0x311B2E, size: 0x8, addend: 0x0, symName: __ZN7facesdk12compressDataEPKhmRKNSt3__112basic_stringIcNS2_11char_traitsIcEENS2_9allocatorIcEEEE, symObjAddr: 0x60D8, symBinAddr: 0x3BF00, symSize: 0x148 }
  - { offset: 0x311FC2, size: 0x8, addend: 0x0, symName: __ZN7facesdk13calcSharpnessERKN2cv3MatE, symObjAddr: 0x67A8, symBinAddr: 0x3C1B0, symSize: 0x184 }
  - { offset: 0x3124DD, size: 0x8, addend: 0x0, symName: __ZN7facesdk7isEmptyEPKc, symObjAddr: 0x692C, symBinAddr: 0x3C334, symSize: 0x1C }
  - { offset: 0x31250C, size: 0x8, addend: 0x0, symName: __ZN7facesdk21generateFakePublicKeyEv, symObjAddr: 0x6948, symBinAddr: 0x3C350, symSize: 0x1CC }
  - { offset: 0x3130BD, size: 0x8, addend: 0x0, symName: __ZN7facesdk20generateRandomNumberIhEET_S1_S1_, symObjAddr: 0xF350, symBinAddr: 0x3ECB4, symSize: 0x118 }
  - { offset: 0x313767, size: 0x8, addend: 0x0, symName: __ZN7facesdk10calcSHA256ERKNSt3__16vectorIhNS0_9allocatorIhEEEE, symObjAddr: 0x6B14, symBinAddr: 0x3C51C, symSize: 0xD8 }
  - { offset: 0x313B58, size: 0x8, addend: 0x0, symName: __ZN7facesdk14buildHistogramERKN2cv3MatES3_, symObjAddr: 0x6BEC, symBinAddr: 0x3C5F4, symSize: 0x1B4 }
  - { offset: 0x314116, size: 0x8, addend: 0x0, symName: __ZN7facesdk27calcInjectionCheckPatchRectEN6common4type4spanIKN2cv6Point_IiEELm18446744073709551615EEEff, symObjAddr: 0x6DA0, symBinAddr: 0x3C7A8, symSize: 0xA4 }
  - { offset: 0x31424A, size: 0x8, addend: 0x0, symName: __ZN7facesdk11calcEyeRectERKN2cv6Point_IiEEi, symObjAddr: 0x6E44, symBinAddr: 0x3C84C, symSize: 0x20 }
  - { offset: 0x3142DA, size: 0x8, addend: 0x0, symName: __ZN7facesdk18calcEyeAspectRatioEN6common4type4spanIKN2cv6Point_IiEELm18446744073709551615EEE, symObjAddr: 0x6E64, symBinAddr: 0x3C86C, symSize: 0x64 }
  - { offset: 0x31436F, size: 0x8, addend: 0x0, symName: __ZN7facesdk8getValueERKN8nlohmann16json_abi_v3_11_210basic_jsonINSt3__13mapENS3_6vectorENS3_12basic_stringIcNS3_11char_traitsIcEENS3_9allocatorIcEEEEbxydS9_NS1_14adl_serializerENS5_IhNS9_IhEEEEEERKSB_SH_, symObjAddr: 0x6EC8, symBinAddr: 0x3C8D0, symSize: 0x60 }
  - { offset: 0x322BBA, size: 0x8, addend: 0x0, symName: __ZNSt3__124uniform_int_distributionIiEclINS_23mersenne_twister_engineIjLm32ELm624ELm397ELm31ELj2567483615ELm11ELj4294967295ELm7ELj2636928640ELm15ELj4022730752ELm18ELj1812433253EEEEEiRT_RKNS1_10param_typeE, symObjAddr: 0xE6D4, symBinAddr: 0x3E8F0, symSize: 0x1A0 }
  - { offset: 0x322C5B, size: 0x8, addend: 0x0, symName: __ZNSt3__124uniform_int_distributionIiEclINS_23mersenne_twister_engineIjLm32ELm624ELm397ELm31ELj2567483615ELm11ELj4294967295ELm7ELj2636928640ELm15ELj4022730752ELm18ELj1812433253EEEEEiRT_RKNS1_10param_typeE, symObjAddr: 0xE6D4, symBinAddr: 0x3E8F0, symSize: 0x1A0 }
  - { offset: 0x323080, size: 0x8, addend: 0x0, symName: __ZNSt3__124uniform_int_distributionIhEclINS_23mersenne_twister_engineIjLm32ELm624ELm397ELm31ELj2567483615ELm11ELj4294967295ELm7ELj2636928640ELm15ELj4022730752ELm18ELj1812433253EEEEEhRT_RKNS1_10param_typeE, symObjAddr: 0xF468, symBinAddr: 0x3EDCC, symSize: 0x1AC }
  - { offset: 0x323122, size: 0x8, addend: 0x0, symName: __ZNSt3__124uniform_int_distributionIhEclINS_23mersenne_twister_engineIjLm32ELm624ELm397ELm31ELj2567483615ELm11ELj4294967295ELm7ELj2636928640ELm15ELj4022730752ELm18ELj1812433253EEEEEhRT_RKNS1_10param_typeE, symObjAddr: 0xF468, symBinAddr: 0x3EDCC, symSize: 0x1AC }
  - { offset: 0x3233D6, size: 0x8, addend: 0x0, symName: __ZNK7facesdk15LFaceOrienationltES0_, symObjAddr: 0x0, symBinAddr: 0x38050, symSize: 0x48 }
  - { offset: 0x32394E, size: 0x8, addend: 0x0, symName: __ZNSt3__113basic_filebufIcNS_11char_traitsIcEEEC2Ev, symObjAddr: 0x8EA4, symBinAddr: 0x3D874, symSize: 0x138 }
  - { offset: 0x323A2A, size: 0x8, addend: 0x0, symName: __ZNSt3__114basic_ifstreamIcNS_11char_traitsIcEEEC1ERKNS_12basic_stringIcS2_NS_9allocatorIcEEEEj, symObjAddr: 0x300, symBinAddr: 0x38350, symSize: 0x114 }
  - { offset: 0x323C27, size: 0x8, addend: 0x0, symName: __ZNSt3__113basic_filebufIcNS_11char_traitsIcEEE4swapERS3_, symObjAddr: 0x9114, symBinAddr: 0x3DAE4, symSize: 0x3A0 }
  - { offset: 0x324233, size: 0x8, addend: 0x0, symName: __ZNSt3__113basic_filebufIcNS_11char_traitsIcEEED2Ev, symObjAddr: 0x7294, symBinAddr: 0x3CA5C, symSize: 0xBC }
  - { offset: 0x32433D, size: 0x8, addend: 0x0, symName: __ZNSt3__16vectorIhNS_9allocatorIhEEE20__init_with_sentinelB8ne180100INS_19istreambuf_iteratorIcNS_11char_traitsIcEEEES8_EEvT_T0_, symObjAddr: 0x94B4, symBinAddr: 0x3DE84, symSize: 0x2D4 }
  - { offset: 0x3249B5, size: 0x8, addend: 0x0, symName: __ZNSt3__114basic_ifstreamIcNS_11char_traitsIcEEED1Ev, symObjAddr: 0x414, symBinAddr: 0x38464, symSize: 0x60 }
  - { offset: 0x324AF9, size: 0x8, addend: 0x0, symName: __ZNSt3__113basic_filebufIcNS_11char_traitsIcEEE4openEPKcj, symObjAddr: 0x8FDC, symBinAddr: 0x3D9AC, symSize: 0x138 }
  - { offset: 0x32AA71, size: 0x8, addend: 0x0, symName: __ZNSt3__16vectorIN8nlohmann16json_abi_v3_11_210basic_jsonINS_3mapES0_NS_12basic_stringIcNS_11char_traitsIcEENS_9allocatorIcEEEEbxydS8_NS2_14adl_serializerENS0_IhNS8_IhEEEEEENS8_ISE_EEEC2INS_11__wrap_iterIPKiEELi0EEET_SM_, symObjAddr: 0xCFEC, symBinAddr: 0x3E158, symSize: 0xE0 }
  - { offset: 0x32CAE7, size: 0x8, addend: 0x0, symName: __ZN6common6base647EncoderD1Ev, symObjAddr: 0x2FB0, symBinAddr: 0x3A05C, symSize: 0x40 }
  - { offset: 0x32CFA1, size: 0x8, addend: 0x0, symName: __ZN2cv7MatExprD1Ev, symObjAddr: 0x3630, symBinAddr: 0x3A40C, symSize: 0x38 }
  - { offset: 0x330527, size: 0x8, addend: 0x0, symName: __ZN5Eigen9JacobiSVDINS_6MatrixIfLi2ELi2ELi0ELi2ELi2EEELi2EE7computeERKS2_j, symObjAddr: 0xE01C, symBinAddr: 0x3E238, symSize: 0x6B8 }
  - { offset: 0x333B67, size: 0x8, addend: 0x0, symName: __ZN8nlohmann16json_abi_v3_11_210basic_jsonINSt3__13mapENS2_6vectorENS2_12basic_stringIcNS2_11char_traitsIcEENS2_9allocatorIcEEEEbxydS8_NS0_14adl_serializerENS4_IhNS8_IhEEEEE6binaryERKSD_, symObjAddr: 0x6220, symBinAddr: 0x3C048, symSize: 0xDC }
  - { offset: 0x3345FE, size: 0x8, addend: 0x0, symName: __ZNKSt3__111__copy_loopINS_17_ClassicAlgPolicyEEclB8ne180100IPhS4_NS_20back_insert_iteratorINS_6vectorIhNS_9allocatorIhEEEEEEEENS_4pairIT_T1_EESC_T0_SD_, symObjAddr: 0xEED4, symBinAddr: 0x3EA90, symSize: 0x224 }
  - { offset: 0x334EBF, size: 0x8, addend: 0x0, symName: __ZNSt3__119basic_ostringstreamIcNS_11char_traitsIcEENS_9allocatorIcEEED1Ev, symObjAddr: 0x671C, symBinAddr: 0x3C124, symSize: 0x8C }
  - { offset: 0x3363EB, size: 0x8, addend: 0x0, symName: __ZTv0_n24_NSt3__114basic_ifstreamIcNS_11char_traitsIcEEED1Ev, symObjAddr: 0x7168, symBinAddr: 0x3C930, symSize: 0x60 }
  - { offset: 0x336475, size: 0x8, addend: 0x0, symName: __ZNSt3__114basic_ifstreamIcNS_11char_traitsIcEEED0Ev, symObjAddr: 0x71C8, symBinAddr: 0x3C990, symSize: 0x60 }
  - { offset: 0x33651E, size: 0x8, addend: 0x0, symName: __ZTv0_n24_NSt3__114basic_ifstreamIcNS_11char_traitsIcEEED0Ev, symObjAddr: 0x7228, symBinAddr: 0x3C9F0, symSize: 0x68 }
  - { offset: 0x3365C4, size: 0x8, addend: 0x0, symName: __ZNSt3__113basic_filebufIcNS_11char_traitsIcEEED1Ev, symObjAddr: 0x7290, symBinAddr: 0x3CA58, symSize: 0x4 }
  - { offset: 0x3365E7, size: 0x8, addend: 0x0, symName: __ZNSt3__113basic_filebufIcNS_11char_traitsIcEEED1Ev, symObjAddr: 0x7290, symBinAddr: 0x3CA58, symSize: 0x4 }
  - { offset: 0x3365FA, size: 0x8, addend: 0x0, symName: __ZNSt3__113basic_filebufIcNS_11char_traitsIcEEE4syncEv, symObjAddr: 0x774C, symBinAddr: 0x3CF14, symSize: 0x26C }
  - { offset: 0x3368BA, size: 0x8, addend: 0x0, symName: __ZNSt3__113basic_filebufIcNS_11char_traitsIcEEE9underflowEv, symObjAddr: 0x79B8, symBinAddr: 0x3D180, symSize: 0x2B4 }
  - { offset: 0x3368C5, size: 0x8, addend: 0x0, symName: __ZNSt3__113basic_filebufIcNS_11char_traitsIcEEED0Ev, symObjAddr: 0x7350, symBinAddr: 0x3CB18, symSize: 0x14 }
  - { offset: 0x336975, size: 0x8, addend: 0x0, symName: __ZNSt3__113basic_filebufIcNS_11char_traitsIcEEE5imbueERKNS_6localeE, symObjAddr: 0x7364, symBinAddr: 0x3CB2C, symSize: 0xFC }
  - { offset: 0x336A46, size: 0x8, addend: 0x0, symName: __ZNSt3__113basic_filebufIcNS_11char_traitsIcEEE6setbufEPcl, symObjAddr: 0x7460, symBinAddr: 0x3CC28, symSize: 0x120 }
  - { offset: 0x336B23, size: 0x8, addend: 0x0, symName: __ZNSt3__113basic_filebufIcNS_11char_traitsIcEEE7seekoffExNS_8ios_base7seekdirEj, symObjAddr: 0x7580, symBinAddr: 0x3CD48, symSize: 0x110 }
  - { offset: 0x336C7A, size: 0x8, addend: 0x0, symName: __ZNSt3__113basic_filebufIcNS_11char_traitsIcEEE7seekposENS_4fposI11__mbstate_tEEj, symObjAddr: 0x7690, symBinAddr: 0x3CE58, symSize: 0xBC }
  - { offset: 0x336CDB, size: 0x8, addend: 0x0, symName: __ZNSt3__113basic_filebufIcNS_11char_traitsIcEEE7seekposENS_4fposI11__mbstate_tEEj, symObjAddr: 0x7690, symBinAddr: 0x3CE58, symSize: 0xBC }
  - { offset: 0x336F54, size: 0x8, addend: 0x0, symName: __ZNSt3__113basic_filebufIcNS_11char_traitsIcEEE9underflowEv, symObjAddr: 0x79B8, symBinAddr: 0x3D180, symSize: 0x2B4 }
  - { offset: 0x3372B7, size: 0x8, addend: 0x0, symName: __ZNSt3__113basic_filebufIcNS_11char_traitsIcEEE9pbackfailEi, symObjAddr: 0x7C6C, symBinAddr: 0x3D434, symSize: 0x5C }
  - { offset: 0x337304, size: 0x8, addend: 0x0, symName: __ZNSt3__113basic_filebufIcNS_11char_traitsIcEEE9pbackfailEi, symObjAddr: 0x7C6C, symBinAddr: 0x3D434, symSize: 0x5C }
  - { offset: 0x337482, size: 0x8, addend: 0x0, symName: __ZNSt3__113basic_filebufIcNS_11char_traitsIcEEE8overflowEi, symObjAddr: 0x7CC8, symBinAddr: 0x3D490, symSize: 0x210 }
  - { offset: 0x337835, size: 0x8, addend: 0x0, symName: __ZTv0_n24_NSt3__119basic_ostringstreamIcNS_11char_traitsIcEENS_9allocatorIcEEED1Ev, symObjAddr: 0x7F00, symBinAddr: 0x3D6C8, symSize: 0x8C }
  - { offset: 0x3379DB, size: 0x8, addend: 0x0, symName: __ZNSt3__119basic_ostringstreamIcNS_11char_traitsIcEENS_9allocatorIcEEED0Ev, symObjAddr: 0x7F8C, symBinAddr: 0x3D754, symSize: 0x8C }
  - { offset: 0x337BA6, size: 0x8, addend: 0x0, symName: __ZTv0_n24_NSt3__119basic_ostringstreamIcNS_11char_traitsIcEENS_9allocatorIcEEED0Ev, symObjAddr: 0x8018, symBinAddr: 0x3D7E0, symSize: 0x94 }
  - { offset: 0x3410EB, size: 0x8, addend: 0x0, symName: __ZN5boost16exception_detail37exception_ptr_static_exception_objectINS0_10bad_alloc_EE1eE, symObjAddr: 0x9948, symBinAddr: 0xEB0DB8, symSize: 0x0 }
  - { offset: 0x341604, size: 0x8, addend: 0x0, symName: __ZN5boost16exception_detail37exception_ptr_static_exception_objectINS0_14bad_exception_EE1eE, symObjAddr: 0x9960, symBinAddr: 0xEB0DD0, symSize: 0x0 }
  - { offset: 0x3416C0, size: 0x8, addend: 0x0, symName: __ZN5boost16exception_detail27get_static_exception_objectINS0_10bad_alloc_EEENS_13exception_ptrEv, symObjAddr: 0x2A6C, symBinAddr: 0xB5AB9C, symSize: 0x290 }
  - { offset: 0x3416C8, size: 0x8, addend: 0x0, symName: __ZN5boost13exception_ptrD1Ev, symObjAddr: 0x2CFC, symBinAddr: 0xB5AE2C, symSize: 0x74 }
  - { offset: 0x3416F9, size: 0x8, addend: 0x0, symName: __ZZN5boost16exception_detail27get_static_exception_objectINS0_10bad_alloc_EEENS_13exception_ptrEvE2ep, symObjAddr: 0x99B0, symBinAddr: 0xEB0E20, symSize: 0x0 }
  - { offset: 0x341F7A, size: 0x8, addend: 0x0, symName: __ZN5boost16exception_detail27get_static_exception_objectINS0_14bad_exception_EEENS_13exception_ptrEv, symObjAddr: 0x2D70, symBinAddr: 0xB5AEA0, symSize: 0x250 }
  - { offset: 0x341F82, size: 0x8, addend: 0x0, symName: __ZN5boost6detail17shared_state_base22mark_finished_internalERNS_11unique_lockINS_5mutexEEE, symObjAddr: 0x2FC0, symBinAddr: 0xB5B0F0, symSize: 0xD4 }
  - { offset: 0x341FB3, size: 0x8, addend: 0x0, symName: __ZZN5boost16exception_detail27get_static_exception_objectINS0_14bad_exception_EEENS_13exception_ptrEvE2ep, symObjAddr: 0x99C8, symBinAddr: 0xEB0E38, symSize: 0x0 }
  - { offset: 0x342E5C, size: 0x8, addend: 0x0, symName: __ZN5boost16exception_detail20copy_boost_exceptionEPNS_9exceptionEPKS1_, symObjAddr: 0x37AC, symBinAddr: 0xB5B8D4, symSize: 0x138 }
  - { offset: 0x344073, size: 0x8, addend: 0x0, symName: __MergedGlobals, symObjAddr: 0xBE1F0, symBinAddr: 0xF58560, symSize: 0x0 }
  - { offset: 0x344091, size: 0x8, addend: 0x0, symName: __MergedGlobals, symObjAddr: 0xBE1F0, symBinAddr: 0xF58560, symSize: 0x0 }
  - { offset: 0x345470, size: 0x8, addend: 0x0, symName: __ZN5boost6detail23get_current_thread_dataEv, symObjAddr: 0x3AC, symBinAddr: 0xB58704, symSize: 0x7C }
  - { offset: 0x345478, size: 0x8, addend: 0x0, symName: __ZN5boost6detail23set_current_thread_dataEPNS0_16thread_data_baseE, symObjAddr: 0x428, symBinAddr: 0xB58780, symSize: 0x84 }
  - { offset: 0x3454F4, size: 0x8, addend: 0x0, symName: __ZN5boost6detail23set_current_thread_dataEPNS0_16thread_data_baseE, symObjAddr: 0x428, symBinAddr: 0xB58780, symSize: 0x84 }
  - { offset: 0x3458FB, size: 0x8, addend: 0x0, symName: __ZN5boost6detail24add_thread_exit_functionEPNS0_25thread_exit_function_baseE, symObjAddr: 0x2260, symBinAddr: 0xB5A4D4, symSize: 0x84 }
  - { offset: 0x345AFB, size: 0x8, addend: 0x0, symName: __ZN5boost6detail12get_tss_dataEPKv, symObjAddr: 0x2358, symBinAddr: 0xB5A558, symSize: 0x84 }
  - { offset: 0x345B03, size: 0x8, addend: 0x0, symName: __ZN5boost6detail16add_new_tss_nodeEPKvPFvPFvPvES3_ES5_S3_, symObjAddr: 0x23DC, symBinAddr: 0xB5A5DC, symSize: 0x130 }
  - { offset: 0x345D2F, size: 0x8, addend: 0x0, symName: __ZN5boost6detail16add_new_tss_nodeEPKvPFvPFvPvES3_ES5_S3_, symObjAddr: 0x23DC, symBinAddr: 0xB5A5DC, symSize: 0x130 }
  - { offset: 0x346211, size: 0x8, addend: 0x0, symName: __ZN5boost6detail12set_tss_dataEPKvPFvPFvPvES3_ES5_S3_b, symObjAddr: 0x25DC, symBinAddr: 0xB5A70C, symSize: 0x1A8 }
  - { offset: 0x346219, size: 0x8, addend: 0x0, symName: __ZN5boost25notify_all_at_thread_exitERNS_18condition_variableENS_11unique_lockINS_5mutexEEE, symObjAddr: 0x2784, symBinAddr: 0xB5A8B4, symSize: 0x4C }
  - { offset: 0x346666, size: 0x8, addend: 0x0, symName: __ZN5boost25notify_all_at_thread_exitERNS_18condition_variableENS_11unique_lockINS_5mutexEEE, symObjAddr: 0x2784, symBinAddr: 0xB5A8B4, symSize: 0x4C }
  - { offset: 0x34678D, size: 0x8, addend: 0x0, symName: __ZN5boost25notify_all_at_thread_exitERNS_18condition_variableENS_11unique_lockINS_5mutexEEE, symObjAddr: 0x2784, symBinAddr: 0xB5A8B4, symSize: 0x4C }
  - { offset: 0x3467C3, size: 0x8, addend: 0x0, symName: __ZN5boost25notify_all_at_thread_exitERNS_18condition_variableENS_11unique_lockINS_5mutexEEE, symObjAddr: 0x2784, symBinAddr: 0xB5A8B4, symSize: 0x4C }
  - { offset: 0x3467F9, size: 0x8, addend: 0x0, symName: __ZN5boost25notify_all_at_thread_exitERNS_18condition_variableENS_11unique_lockINS_5mutexEEE, symObjAddr: 0x2784, symBinAddr: 0xB5A8B4, symSize: 0x4C }
  - { offset: 0x34683C, size: 0x8, addend: 0x0, symName: __ZN5boost25notify_all_at_thread_exitERNS_18condition_variableENS_11unique_lockINS_5mutexEEE, symObjAddr: 0x2784, symBinAddr: 0xB5A8B4, symSize: 0x4C }
  - { offset: 0x346876, size: 0x8, addend: 0x0, symName: __ZN5boost25notify_all_at_thread_exitERNS_18condition_variableENS_11unique_lockINS_5mutexEEE, symObjAddr: 0x2784, symBinAddr: 0xB5A8B4, symSize: 0x4C }
  - { offset: 0x34689D, size: 0x8, addend: 0x0, symName: __ZN5boost6detail25make_ready_at_thread_exitENS_10shared_ptrINS0_17shared_state_baseEEE, symObjAddr: 0x27D0, symBinAddr: 0xB5A900, symSize: 0x108 }
  - { offset: 0x3468A5, size: 0x8, addend: 0x0, symName: __ZN5boost10shared_ptrINS_6detail17shared_state_baseEED1Ev, symObjAddr: 0x28D8, symBinAddr: 0xB5AA08, symSize: 0x74 }
  - { offset: 0x3472EA, size: 0x8, addend: 0x0, symName: __ZN5boost6detail20sp_pointer_constructINS0_16thread_data_baseES2_EEvPNS_10shared_ptrIT_EEPT0_RNS0_12shared_countE, symObjAddr: 0x7470, symBinAddr: 0xB5F0BC, symSize: 0xFC }
  - { offset: 0x3472F2, size: 0x8, addend: 0x0, symName: __ZN5boost6detail17sp_counted_impl_pINS0_16thread_data_baseEED1Ev, symObjAddr: 0x756C, symBinAddr: 0xB5F1B8, symSize: 0x4 }
  - { offset: 0x347F31, size: 0x8, addend: 0x0, symName: __ZN5boost6system6detail8snprintfEPcmPKcz, symObjAddr: 0x5388, symBinAddr: 0xB5D03C, symSize: 0x28 }
  - { offset: 0x347F39, size: 0x8, addend: 0x0, symName: __ZN5boost11unique_lockINS_5mutexEE4lockEv, symObjAddr: 0x53B0, symBinAddr: 0xB5D064, symSize: 0xEC }
  - { offset: 0x3515AA, size: 0x8, addend: 0x0, symName: __ZN5boost11this_thread21no_interruption_point6hidden18sleep_for_internalERKNS_6detail17platform_durationE, symObjAddr: 0x17B0, symBinAddr: 0xB59A24, symSize: 0x24 }
  - { offset: 0x3515B2, size: 0x8, addend: 0x0, symName: __ZN5boost11this_thread5yieldEv, symObjAddr: 0x17D4, symBinAddr: 0xB59A48, symSize: 0x18 }
  - { offset: 0x351661, size: 0x8, addend: 0x0, symName: __ZN5boost11this_thread5yieldEv, symObjAddr: 0x17D4, symBinAddr: 0xB59A48, symSize: 0x18 }
  - { offset: 0x351669, size: 0x8, addend: 0x0, symName: __ZN5boost6thread20hardware_concurrencyEv, symObjAddr: 0x17EC, symBinAddr: 0xB59A60, symSize: 0x4C }
  - { offset: 0x351682, size: 0x8, addend: 0x0, symName: __ZN5boost11this_thread18interruption_pointEv, symObjAddr: 0x1DF0, symBinAddr: 0xB5A064, symSize: 0x140 }
  - { offset: 0x35168A, size: 0x8, addend: 0x0, symName: __ZN5boost11this_thread20interruption_enabledEv, symObjAddr: 0x1F30, symBinAddr: 0xB5A1A4, symSize: 0x28 }
  - { offset: 0x3519CE, size: 0x8, addend: 0x0, symName: __ZN5boost11this_thread20interruption_enabledEv, symObjAddr: 0x1F30, symBinAddr: 0xB5A1A4, symSize: 0x28 }
  - { offset: 0x3519D6, size: 0x8, addend: 0x0, symName: __ZN5boost11this_thread22interruption_requestedEv, symObjAddr: 0x1F58, symBinAddr: 0xB5A1CC, symSize: 0x110 }
  - { offset: 0x3519F9, size: 0x8, addend: 0x0, symName: __ZN5boost11this_thread22interruption_requestedEv, symObjAddr: 0x1F58, symBinAddr: 0xB5A1CC, symSize: 0x110 }
  - { offset: 0x351A01, size: 0x8, addend: 0x0, symName: __ZN5boost11this_thread20disable_interruptionC2Ev, symObjAddr: 0x2068, symBinAddr: 0xB5A2DC, symSize: 0x58 }
  - { offset: 0x351ED1, size: 0x8, addend: 0x0, symName: __ZN5boost25notify_all_at_thread_exitERNS_18condition_variableENS_11unique_lockINS_5mutexEEE, symObjAddr: 0x2784, symBinAddr: 0xB5A8B4, symSize: 0x4C }
  - { offset: 0x351ED9, size: 0x8, addend: 0x0, symName: __ZN5boost6detail25make_ready_at_thread_exitENS_10shared_ptrINS0_17shared_state_baseEEE, symObjAddr: 0x27D0, symBinAddr: 0xB5A900, symSize: 0x108 }
  - { offset: 0x352213, size: 0x8, addend: 0x0, symName: __ZN5boost15throw_exceptionINS_12bad_weak_ptrEEEvRKT_, symObjAddr: 0x3348, symBinAddr: 0xB5B478, symSize: 0x48 }
  - { offset: 0x35221B, size: 0x8, addend: 0x0, symName: __ZN5boost12bad_weak_ptrD1Ev, symObjAddr: 0x3390, symBinAddr: 0xB5B4C0, symSize: 0x4 }
  - { offset: 0x3522C6, size: 0x8, addend: 0x0, symName: __ZN5boost15throw_exceptionINS_15condition_errorEEEvRKT_, symObjAddr: 0x3DF4, symBinAddr: 0xB5BB58, symSize: 0x50 }
  - { offset: 0x3522CE, size: 0x8, addend: 0x0, symName: __ZN5boost15condition_errorC1EiPKc, symObjAddr: 0x3E44, symBinAddr: 0xB5BBA8, symSize: 0xB0 }
  - { offset: 0x352309, size: 0x8, addend: 0x0, symName: __ZN5boost15throw_exceptionINS_10lock_errorEEEvRKT_, symObjAddr: 0x4150, symBinAddr: 0xB5BEB4, symSize: 0x50 }
  - { offset: 0x352311, size: 0x8, addend: 0x0, symName: __ZN5boost10lock_errorC1EiPKc, symObjAddr: 0x41A0, symBinAddr: 0xB5BF04, symSize: 0xB0 }
  - { offset: 0x3523A4, size: 0x8, addend: 0x0, symName: __ZN5boost15throw_exceptionINS_21thread_resource_errorEEEvRKT_, symObjAddr: 0x6DD0, symBinAddr: 0xB5EA1C, symSize: 0x50 }
  - { offset: 0x3523AC, size: 0x8, addend: 0x0, symName: __ZN5boost21thread_resource_errorC1EiPKc, symObjAddr: 0x6E20, symBinAddr: 0xB5EA6C, symSize: 0xB0 }
  - { offset: 0x365AA8, size: 0x8, addend: 0x0, symName: __ZN5boost6system6detail18generic_cat_holderIvE8instanceE, symObjAddr: 0x9978, symBinAddr: 0xEB0DE8, symSize: 0x0 }
  - { offset: 0x368546, size: 0x8, addend: 0x0, symName: __ZN5boost6detail16thread_data_baseD2Ev, symObjAddr: 0x0, symBinAddr: 0xB58368, symSize: 0x2A0 }
  - { offset: 0x3691DA, size: 0x8, addend: 0x0, symName: __ZN5boost5mutexD1Ev, symObjAddr: 0x2B0, symBinAddr: 0xB58608, symSize: 0x34 }
  - { offset: 0x3691E2, size: 0x8, addend: 0x0, symName: __ZN5boost10shared_ptrINS_6detail16thread_data_baseEED1Ev, symObjAddr: 0x2E4, symBinAddr: 0xB5863C, symSize: 0x74 }
  - { offset: 0x369261, size: 0x8, addend: 0x0, symName: __ZN5boost10shared_ptrINS_6detail16thread_data_baseEED1Ev, symObjAddr: 0x2E4, symBinAddr: 0xB5863C, symSize: 0x74 }
  - { offset: 0x369269, size: 0x8, addend: 0x0, symName: __ZN5boost23enable_shared_from_thisINS_6detail16thread_data_baseEED2Ev, symObjAddr: 0x358, symBinAddr: 0xB586B0, symSize: 0x4C }
  - { offset: 0x369394, size: 0x8, addend: 0x0, symName: __ZN5boost23enable_shared_from_thisINS_6detail16thread_data_baseEED2Ev, symObjAddr: 0x358, symBinAddr: 0xB586B0, symSize: 0x4C }
  - { offset: 0x36939C, size: 0x8, addend: 0x0, symName: __ZN5boost6detail16thread_data_baseD1Ev, symObjAddr: 0x3A4, symBinAddr: 0xB586FC, symSize: 0x4 }
  - { offset: 0x369491, size: 0x8, addend: 0x0, symName: __ZN5boost6detail16thread_data_baseD1Ev, symObjAddr: 0x3A4, symBinAddr: 0xB586FC, symSize: 0x4 }
  - { offset: 0x369499, size: 0x8, addend: 0x0, symName: __ZN5boost6detail16thread_data_baseD0Ev, symObjAddr: 0x3A8, symBinAddr: 0xB58700, symSize: 0x4 }
  - { offset: 0x3694C8, size: 0x8, addend: 0x0, symName: __ZN5boost6detail16thread_data_baseD0Ev, symObjAddr: 0x3A8, symBinAddr: 0xB58700, symSize: 0x4 }
  - { offset: 0x3694D0, size: 0x8, addend: 0x0, symName: __ZN5boost6detail23get_current_thread_dataEv, symObjAddr: 0x3AC, symBinAddr: 0xB58704, symSize: 0x7C }
  - { offset: 0x369638, size: 0x8, addend: 0x0, symName: __ZN5boost10shared_ptrINS_6detail16thread_data_baseEE5resetIS2_EEvPT_, symObjAddr: 0x510, symBinAddr: 0xB58804, symSize: 0xF8 }
  - { offset: 0x369AFA, size: 0x8, addend: 0x0, symName: __ZN5boost6threadC2Ev, symObjAddr: 0x688, symBinAddr: 0xB588FC, symSize: 0x8 }
  - { offset: 0x369B02, size: 0x8, addend: 0x0, symName: __ZN5boost6threadC1Ev, symObjAddr: 0x690, symBinAddr: 0xB58904, symSize: 0x8 }
  - { offset: 0x369B2F, size: 0x8, addend: 0x0, symName: __ZN5boost6threadC2Ev, symObjAddr: 0x688, symBinAddr: 0xB588FC, symSize: 0x8 }
  - { offset: 0x369B59, size: 0x8, addend: 0x0, symName: __ZN5boost6threadC2Ev, symObjAddr: 0x688, symBinAddr: 0xB588FC, symSize: 0x8 }
  - { offset: 0x369B83, size: 0x8, addend: 0x0, symName: __ZN5boost6threadC2Ev, symObjAddr: 0x688, symBinAddr: 0xB588FC, symSize: 0x8 }
  - { offset: 0x369BAB, size: 0x8, addend: 0x0, symName: __ZN5boost6threadC2Ev, symObjAddr: 0x688, symBinAddr: 0xB588FC, symSize: 0x8 }
  - { offset: 0x369BFE, size: 0x8, addend: 0x0, symName: __ZN5boost6threadC1Ev, symObjAddr: 0x690, symBinAddr: 0xB58904, symSize: 0x8 }
  - { offset: 0x369C06, size: 0x8, addend: 0x0, symName: __ZN5boost6thread21start_thread_noexceptEv, symObjAddr: 0x698, symBinAddr: 0xB5890C, symSize: 0x10C }
  - { offset: 0x369C3F, size: 0x8, addend: 0x0, symName: __ZN5boost6threadC1Ev, symObjAddr: 0x690, symBinAddr: 0xB58904, symSize: 0x8 }
  - { offset: 0x369C69, size: 0x8, addend: 0x0, symName: __ZN5boost6threadC1Ev, symObjAddr: 0x690, symBinAddr: 0xB58904, symSize: 0x8 }
  - { offset: 0x369C93, size: 0x8, addend: 0x0, symName: __ZN5boost6threadC1Ev, symObjAddr: 0x690, symBinAddr: 0xB58904, symSize: 0x8 }
  - { offset: 0x369CBD, size: 0x8, addend: 0x0, symName: __ZN5boost6threadC1Ev, symObjAddr: 0x690, symBinAddr: 0xB58904, symSize: 0x8 }
  - { offset: 0x369CE5, size: 0x8, addend: 0x0, symName: __ZN5boost6threadC1Ev, symObjAddr: 0x690, symBinAddr: 0xB58904, symSize: 0x8 }
  - { offset: 0x369EAA, size: 0x8, addend: 0x0, symName: __ZN5boost6thread21start_thread_noexceptEv, symObjAddr: 0x698, symBinAddr: 0xB5890C, symSize: 0x10C }
  - { offset: 0x369EB2, size: 0x8, addend: 0x0, symName: __ZN5boost12_GLOBAL__N_112thread_proxyEPv, symObjAddr: 0x7A4, symBinAddr: 0xB58A18, symSize: 0x2B8 }
  - { offset: 0x36A871, size: 0x8, addend: 0x0, symName: __ZN5boost12_GLOBAL__N_112thread_proxyEPv, symObjAddr: 0x7A4, symBinAddr: 0xB58A18, symSize: 0x2B8 }
  - { offset: 0x36A879, size: 0x8, addend: 0x0, symName: __ZN5boost6thread21start_thread_noexceptERKNS_17thread_attributesE, symObjAddr: 0xA5C, symBinAddr: 0xB58CD0, symSize: 0x240 }
  - { offset: 0x36AA49, size: 0x8, addend: 0x0, symName: __ZN5boost6thread21start_thread_noexceptERKNS_17thread_attributesE, symObjAddr: 0xA5C, symBinAddr: 0xB58CD0, symSize: 0x240 }
  - { offset: 0x36AA71, size: 0x8, addend: 0x0, symName: __ZN5boost6thread21start_thread_noexceptERKNS_17thread_attributesE, symObjAddr: 0xA5C, symBinAddr: 0xB58CD0, symSize: 0x240 }
  - { offset: 0x36B1AD, size: 0x8, addend: 0x0, symName: __ZN5boost6thread21start_thread_noexceptERKNS_17thread_attributesE, symObjAddr: 0xA5C, symBinAddr: 0xB58CD0, symSize: 0x240 }
  - { offset: 0x36B1B5, size: 0x8, addend: 0x0, symName: __ZNK5boost6thread15get_thread_infoEv, symObjAddr: 0xC9C, symBinAddr: 0xB58F10, symSize: 0x1C }
  - { offset: 0x36BA48, size: 0x8, addend: 0x0, symName: __ZNK5boost6thread15get_thread_infoEv, symObjAddr: 0xC9C, symBinAddr: 0xB58F10, symSize: 0x1C }
  - { offset: 0x36BA50, size: 0x8, addend: 0x0, symName: __ZN5boost6thread13join_noexceptEv, symObjAddr: 0xCB8, symBinAddr: 0xB58F2C, symSize: 0x2EC }
  - { offset: 0x36BA7D, size: 0x8, addend: 0x0, symName: __ZNK5boost6thread15get_thread_infoEv, symObjAddr: 0xC9C, symBinAddr: 0xB58F10, symSize: 0x1C }
  - { offset: 0x36BAB5, size: 0x8, addend: 0x0, symName: __ZNK5boost6thread15get_thread_infoEv, symObjAddr: 0xC9C, symBinAddr: 0xB58F10, symSize: 0x1C }
  - { offset: 0x36BBDB, size: 0x8, addend: 0x0, symName: __ZN5boost6thread13join_noexceptEv, symObjAddr: 0xCB8, symBinAddr: 0xB58F2C, symSize: 0x2EC }
  - { offset: 0x36BBE3, size: 0x8, addend: 0x0, symName: __ZN5boost18condition_variable4waitERNS_11unique_lockINS_5mutexEEE, symObjAddr: 0xFA4, symBinAddr: 0xB59218, symSize: 0xFC }
  - { offset: 0x36C7CA, size: 0x8, addend: 0x0, symName: __ZN5boost18condition_variable4waitERNS_11unique_lockINS_5mutexEEE, symObjAddr: 0xFA4, symBinAddr: 0xB59218, symSize: 0xFC }
  - { offset: 0x36C7D2, size: 0x8, addend: 0x0, symName: __ZN5boost11unique_lockINS_5mutexEED1Ev, symObjAddr: 0x10A0, symBinAddr: 0xB59314, symSize: 0x40 }
  - { offset: 0x36CA79, size: 0x8, addend: 0x0, symName: __ZN5boost11unique_lockINS_5mutexEED1Ev, symObjAddr: 0x10A0, symBinAddr: 0xB59314, symSize: 0x40 }
  - { offset: 0x36CA81, size: 0x8, addend: 0x0, symName: __ZN5boost10lock_guardINS_5mutexEED1Ev, symObjAddr: 0x10E0, symBinAddr: 0xB59354, symSize: 0x38 }
  - { offset: 0x36CB57, size: 0x8, addend: 0x0, symName: __ZN5boost10lock_guardINS_5mutexEED1Ev, symObjAddr: 0x10E0, symBinAddr: 0xB59354, symSize: 0x38 }
  - { offset: 0x36CB5F, size: 0x8, addend: 0x0, symName: __ZN5boost6thread26do_try_join_until_noexceptERKNS_6detail23real_platform_timepointERb, symObjAddr: 0x1118, symBinAddr: 0xB5938C, symSize: 0x34C }
  - { offset: 0x36CC08, size: 0x8, addend: 0x0, symName: __ZN5boost6thread26do_try_join_until_noexceptERKNS_6detail23real_platform_timepointERb, symObjAddr: 0x1118, symBinAddr: 0xB5938C, symSize: 0x34C }
  - { offset: 0x36CC10, size: 0x8, addend: 0x0, symName: __ZN5boost18condition_variable13do_wait_untilERNS_11unique_lockINS_5mutexEEERKNS_6detail23real_platform_timepointE, symObjAddr: 0x1464, symBinAddr: 0xB596D8, symSize: 0x114 }
  - { offset: 0x36D675, size: 0x8, addend: 0x0, symName: __ZN5boost18condition_variable13do_wait_untilERNS_11unique_lockINS_5mutexEEERKNS_6detail23real_platform_timepointE, symObjAddr: 0x1464, symBinAddr: 0xB596D8, symSize: 0x114 }
  - { offset: 0x36D67D, size: 0x8, addend: 0x0, symName: __ZNK5boost6thread8joinableEv, symObjAddr: 0x1578, symBinAddr: 0xB597EC, symSize: 0x7C }
  - { offset: 0x36D938, size: 0x8, addend: 0x0, symName: __ZNK5boost6thread8joinableEv, symObjAddr: 0x1578, symBinAddr: 0xB597EC, symSize: 0x7C }
  - { offset: 0x36D940, size: 0x8, addend: 0x0, symName: __ZN5boost6thread6detachEv, symObjAddr: 0x15F4, symBinAddr: 0xB59868, symSize: 0x1BC }
  - { offset: 0x36DBAA, size: 0x8, addend: 0x0, symName: __ZN5boost6thread6detachEv, symObjAddr: 0x15F4, symBinAddr: 0xB59868, symSize: 0x1BC }
  - { offset: 0x36DBB2, size: 0x8, addend: 0x0, symName: __ZN5boost11this_thread21no_interruption_point6hidden18sleep_for_internalERKNS_6detail17platform_durationE, symObjAddr: 0x17B0, symBinAddr: 0xB59A24, symSize: 0x24 }
  - { offset: 0x36E0D1, size: 0x8, addend: 0x0, symName: __ZN5boost6thread20hardware_concurrencyEv, symObjAddr: 0x17EC, symBinAddr: 0xB59A60, symSize: 0x4C }
  - { offset: 0x36E0D9, size: 0x8, addend: 0x0, symName: __ZN5boost6thread20physical_concurrencyEv, symObjAddr: 0x1838, symBinAddr: 0xB59AAC, symSize: 0x4C }
  - { offset: 0x36E118, size: 0x8, addend: 0x0, symName: __ZN5boost6thread20physical_concurrencyEv, symObjAddr: 0x1838, symBinAddr: 0xB59AAC, symSize: 0x4C }
  - { offset: 0x36E120, size: 0x8, addend: 0x0, symName: __ZN5boost6thread9interruptEv, symObjAddr: 0x1884, symBinAddr: 0xB59AF8, symSize: 0x204 }
  - { offset: 0x36E15F, size: 0x8, addend: 0x0, symName: __ZN5boost6thread9interruptEv, symObjAddr: 0x1884, symBinAddr: 0xB59AF8, symSize: 0x204 }
  - { offset: 0x36E167, size: 0x8, addend: 0x0, symName: __ZN5boost7pthread25pthread_mutex_scoped_lockD1Ev, symObjAddr: 0x1A88, symBinAddr: 0xB59CFC, symSize: 0x44 }
  - { offset: 0x36E82E, size: 0x8, addend: 0x0, symName: __ZN5boost7pthread25pthread_mutex_scoped_lockD1Ev, symObjAddr: 0x1A88, symBinAddr: 0xB59CFC, symSize: 0x44 }
  - { offset: 0x36E836, size: 0x8, addend: 0x0, symName: __ZNK5boost6thread22interruption_requestedEv, symObjAddr: 0x1ACC, symBinAddr: 0xB59D40, symSize: 0x180 }
  - { offset: 0x36E8D5, size: 0x8, addend: 0x0, symName: __ZNK5boost6thread22interruption_requestedEv, symObjAddr: 0x1ACC, symBinAddr: 0xB59D40, symSize: 0x180 }
  - { offset: 0x36E8DD, size: 0x8, addend: 0x0, symName: __ZN5boost6thread13native_handleEv, symObjAddr: 0x1C4C, symBinAddr: 0xB59EC0, symSize: 0x1A4 }
  - { offset: 0x36EE80, size: 0x8, addend: 0x0, symName: __ZN5boost6thread13native_handleEv, symObjAddr: 0x1C4C, symBinAddr: 0xB59EC0, symSize: 0x1A4 }
  - { offset: 0x36EE88, size: 0x8, addend: 0x0, symName: __ZN5boost11this_thread18interruption_pointEv, symObjAddr: 0x1DF0, symBinAddr: 0xB5A064, symSize: 0x140 }
  - { offset: 0x36F476, size: 0x8, addend: 0x0, symName: __ZN5boost11this_thread20disable_interruptionC2Ev, symObjAddr: 0x2068, symBinAddr: 0xB5A2DC, symSize: 0x58 }
  - { offset: 0x36F47E, size: 0x8, addend: 0x0, symName: __ZN5boost11this_thread20disable_interruptionC1Ev, symObjAddr: 0x20C0, symBinAddr: 0xB5A334, symSize: 0x58 }
  - { offset: 0x36F4F5, size: 0x8, addend: 0x0, symName: __ZN5boost11this_thread20disable_interruptionC1Ev, symObjAddr: 0x20C0, symBinAddr: 0xB5A334, symSize: 0x58 }
  - { offset: 0x36F4FD, size: 0x8, addend: 0x0, symName: __ZN5boost11this_thread20disable_interruptionD2Ev, symObjAddr: 0x2118, symBinAddr: 0xB5A38C, symSize: 0x38 }
  - { offset: 0x36F572, size: 0x8, addend: 0x0, symName: __ZN5boost11this_thread20disable_interruptionD2Ev, symObjAddr: 0x2118, symBinAddr: 0xB5A38C, symSize: 0x38 }
  - { offset: 0x36F57A, size: 0x8, addend: 0x0, symName: __ZN5boost11this_thread20disable_interruptionD1Ev, symObjAddr: 0x2150, symBinAddr: 0xB5A3C4, symSize: 0x38 }
  - { offset: 0x36F5C7, size: 0x8, addend: 0x0, symName: __ZN5boost11this_thread20disable_interruptionD1Ev, symObjAddr: 0x2150, symBinAddr: 0xB5A3C4, symSize: 0x38 }
  - { offset: 0x36F5CF, size: 0x8, addend: 0x0, symName: __ZN5boost11this_thread20restore_interruptionC2ERNS0_20disable_interruptionE, symObjAddr: 0x2188, symBinAddr: 0xB5A3FC, symSize: 0x38 }
  - { offset: 0x36F649, size: 0x8, addend: 0x0, symName: __ZN5boost11this_thread20restore_interruptionC2ERNS0_20disable_interruptionE, symObjAddr: 0x2188, symBinAddr: 0xB5A3FC, symSize: 0x38 }
  - { offset: 0x36F651, size: 0x8, addend: 0x0, symName: __ZN5boost11this_thread20restore_interruptionC1ERNS0_20disable_interruptionE, symObjAddr: 0x21C0, symBinAddr: 0xB5A434, symSize: 0x38 }
  - { offset: 0x36F6C5, size: 0x8, addend: 0x0, symName: __ZN5boost11this_thread20restore_interruptionC1ERNS0_20disable_interruptionE, symObjAddr: 0x21C0, symBinAddr: 0xB5A434, symSize: 0x38 }
  - { offset: 0x36F6CD, size: 0x8, addend: 0x0, symName: __ZN5boost11this_thread20restore_interruptionD2Ev, symObjAddr: 0x21F8, symBinAddr: 0xB5A46C, symSize: 0x34 }
  - { offset: 0x36F744, size: 0x8, addend: 0x0, symName: __ZN5boost11this_thread20restore_interruptionD2Ev, symObjAddr: 0x21F8, symBinAddr: 0xB5A46C, symSize: 0x34 }
  - { offset: 0x36F74C, size: 0x8, addend: 0x0, symName: __ZN5boost11this_thread20restore_interruptionD1Ev, symObjAddr: 0x222C, symBinAddr: 0xB5A4A0, symSize: 0x34 }
  - { offset: 0x36F799, size: 0x8, addend: 0x0, symName: __ZN5boost11this_thread20restore_interruptionD1Ev, symObjAddr: 0x222C, symBinAddr: 0xB5A4A0, symSize: 0x34 }
  - { offset: 0x36F7A1, size: 0x8, addend: 0x0, symName: __ZN5boost6detail24add_thread_exit_functionEPNS0_25thread_exit_function_baseE, symObjAddr: 0x2260, symBinAddr: 0xB5A4D4, symSize: 0x84 }
  - { offset: 0x3702FC, size: 0x8, addend: 0x0, symName: __ZN5boost10shared_ptrINS_6detail17shared_state_baseEED1Ev, symObjAddr: 0x28D8, symBinAddr: 0xB5AA08, symSize: 0x74 }
  - { offset: 0x370304, size: 0x8, addend: 0x0, symName: __ZN5boost6detail16thread_data_base25notify_all_at_thread_exitEPNS_18condition_variableEPNS_5mutexE, symObjAddr: 0x294C, symBinAddr: 0xB5AA7C, symSize: 0x120 }
  - { offset: 0x370882, size: 0x8, addend: 0x0, symName: __ZN5boost6detail16thread_data_base25notify_all_at_thread_exitEPNS_18condition_variableEPNS_5mutexE, symObjAddr: 0x294C, symBinAddr: 0xB5AA7C, symSize: 0x120 }
  - { offset: 0x37088A, size: 0x8, addend: 0x0, symName: __ZN5boost16exception_detail27get_static_exception_objectINS0_10bad_alloc_EEENS_13exception_ptrEv, symObjAddr: 0x2A6C, symBinAddr: 0xB5AB9C, symSize: 0x290 }
  - { offset: 0x3714DF, size: 0x8, addend: 0x0, symName: __ZN5boost13exception_ptrD1Ev, symObjAddr: 0x2CFC, symBinAddr: 0xB5AE2C, symSize: 0x74 }
  - { offset: 0x3714E7, size: 0x8, addend: 0x0, symName: __ZN5boost16exception_detail27get_static_exception_objectINS0_14bad_exception_EEENS_13exception_ptrEv, symObjAddr: 0x2D70, symBinAddr: 0xB5AEA0, symSize: 0x250 }
  - { offset: 0x371930, size: 0x8, addend: 0x0, symName: __ZN5boost6detail17shared_state_base22mark_finished_internalERNS_11unique_lockINS_5mutexEEE, symObjAddr: 0x2FC0, symBinAddr: 0xB5B0F0, symSize: 0xD4 }
  - { offset: 0x371938, size: 0x8, addend: 0x0, symName: __ZN5boost6detail12shared_countD1Ev, symObjAddr: 0x3094, symBinAddr: 0xB5B1C4, symSize: 0x74 }
  - { offset: 0x371C13, size: 0x8, addend: 0x0, symName: __ZN5boost6detail12shared_countD1Ev, symObjAddr: 0x3094, symBinAddr: 0xB5B1C4, symSize: 0x74 }
  - { offset: 0x371C1B, size: 0x8, addend: 0x0, symName: __ZN5boost6detail12_GLOBAL__N_114tls_destructorEPv, symObjAddr: 0x3108, symBinAddr: 0xB5B238, symSize: 0x240 }
  - { offset: 0x371DA1, size: 0x8, addend: 0x0, symName: __ZN5boost6detail12_GLOBAL__N_114tls_destructorEPv, symObjAddr: 0x3108, symBinAddr: 0xB5B238, symSize: 0x240 }
  - { offset: 0x371DA9, size: 0x8, addend: 0x0, symName: __ZN5boost15throw_exceptionINS_12bad_weak_ptrEEEvRKT_, symObjAddr: 0x3348, symBinAddr: 0xB5B478, symSize: 0x48 }
  - { offset: 0x37260F, size: 0x8, addend: 0x0, symName: __ZN5boost12bad_weak_ptrD1Ev, symObjAddr: 0x3390, symBinAddr: 0xB5B4C0, symSize: 0x4 }
  - { offset: 0x372617, size: 0x8, addend: 0x0, symName: __ZN5boost10wrapexceptINS_12bad_weak_ptrEED1Ev, symObjAddr: 0x3394, symBinAddr: 0xB5B4C4, symSize: 0x58 }
  - { offset: 0x372644, size: 0x8, addend: 0x0, symName: __ZN5boost12bad_weak_ptrD1Ev, symObjAddr: 0x3390, symBinAddr: 0xB5B4C0, symSize: 0x4 }
  - { offset: 0x37264C, size: 0x8, addend: 0x0, symName: __ZN5boost10wrapexceptINS_12bad_weak_ptrEED1Ev, symObjAddr: 0x3394, symBinAddr: 0xB5B4C4, symSize: 0x58 }
  - { offset: 0x37268C, size: 0x8, addend: 0x0, symName: __ZN5boost10wrapexceptINS_12bad_weak_ptrEED1Ev, symObjAddr: 0x3394, symBinAddr: 0xB5B4C4, symSize: 0x58 }
  - { offset: 0x372694, size: 0x8, addend: 0x0, symName: __ZNK5boost10wrapexceptINS_12bad_weak_ptrEE5cloneEv, symObjAddr: 0x33EC, symBinAddr: 0xB5B51C, symSize: 0xEC }
  - { offset: 0x37286E, size: 0x8, addend: 0x0, symName: __ZNK5boost10wrapexceptINS_12bad_weak_ptrEE5cloneEv, symObjAddr: 0x33EC, symBinAddr: 0xB5B51C, symSize: 0xEC }
  - { offset: 0x372876, size: 0x8, addend: 0x0, symName: __ZNK5boost10wrapexceptINS_12bad_weak_ptrEE7rethrowEv, symObjAddr: 0x34D8, symBinAddr: 0xB5B608, symSize: 0x50 }
  - { offset: 0x372A67, size: 0x8, addend: 0x0, symName: __ZNK5boost10wrapexceptINS_12bad_weak_ptrEE7rethrowEv, symObjAddr: 0x34D8, symBinAddr: 0xB5B608, symSize: 0x50 }
  - { offset: 0x372A84, size: 0x8, addend: 0x0, symName: __ZNK5boost10wrapexceptINS_12bad_weak_ptrEE7rethrowEv, symObjAddr: 0x34D8, symBinAddr: 0xB5B608, symSize: 0x50 }
  - { offset: 0x372A93, size: 0x8, addend: 0x0, symName: __ZNK5boost10wrapexceptINS_12bad_weak_ptrEE7rethrowEv, symObjAddr: 0x34D8, symBinAddr: 0xB5B608, symSize: 0x50 }
  - { offset: 0x372A9B, size: 0x8, addend: 0x0, symName: __ZN5boost10wrapexceptINS_12bad_weak_ptrEED0Ev, symObjAddr: 0x3528, symBinAddr: 0xB5B658, symSize: 0x58 }
  - { offset: 0x372AEC, size: 0x8, addend: 0x0, symName: __ZN5boost10wrapexceptINS_12bad_weak_ptrEED0Ev, symObjAddr: 0x3528, symBinAddr: 0xB5B658, symSize: 0x58 }
  - { offset: 0x372AF4, size: 0x8, addend: 0x0, symName: __ZThn8_N5boost10wrapexceptINS_12bad_weak_ptrEED1Ev, symObjAddr: 0x3580, symBinAddr: 0xB5B6B0, symSize: 0x50 }
  - { offset: 0x372C02, size: 0x8, addend: 0x0, symName: __ZThn8_N5boost10wrapexceptINS_12bad_weak_ptrEED1Ev, symObjAddr: 0x3580, symBinAddr: 0xB5B6B0, symSize: 0x50 }
  - { offset: 0x372C0A, size: 0x8, addend: 0x0, symName: __ZThn8_N5boost10wrapexceptINS_12bad_weak_ptrEED0Ev, symObjAddr: 0x35D0, symBinAddr: 0xB5B700, symSize: 0x5C }
  - { offset: 0x372C2F, size: 0x8, addend: 0x0, symName: __ZThn8_N5boost10wrapexceptINS_12bad_weak_ptrEED0Ev, symObjAddr: 0x35D0, symBinAddr: 0xB5B700, symSize: 0x5C }
  - { offset: 0x372C55, size: 0x8, addend: 0x0, symName: __ZThn8_N5boost10wrapexceptINS_12bad_weak_ptrEED0Ev, symObjAddr: 0x35D0, symBinAddr: 0xB5B700, symSize: 0x5C }
  - { offset: 0x372D3D, size: 0x8, addend: 0x0, symName: __ZThn8_N5boost10wrapexceptINS_12bad_weak_ptrEED0Ev, symObjAddr: 0x35D0, symBinAddr: 0xB5B700, symSize: 0x5C }
  - { offset: 0x372D45, size: 0x8, addend: 0x0, symName: __ZNK5boost12bad_weak_ptr4whatEv, symObjAddr: 0x362C, symBinAddr: 0xB5B75C, symSize: 0xC }
  - { offset: 0x372E61, size: 0x8, addend: 0x0, symName: __ZNK5boost12bad_weak_ptr4whatEv, symObjAddr: 0x362C, symBinAddr: 0xB5B75C, symSize: 0xC }
  - { offset: 0x372E69, size: 0x8, addend: 0x0, symName: __ZThn16_N5boost10wrapexceptINS_12bad_weak_ptrEED1Ev, symObjAddr: 0x3638, symBinAddr: 0xB5B768, symSize: 0x50 }
  - { offset: 0x372E96, size: 0x8, addend: 0x0, symName: __ZThn16_N5boost10wrapexceptINS_12bad_weak_ptrEED1Ev, symObjAddr: 0x3638, symBinAddr: 0xB5B768, symSize: 0x50 }
  - { offset: 0x372E9E, size: 0x8, addend: 0x0, symName: __ZThn16_N5boost10wrapexceptINS_12bad_weak_ptrEED0Ev, symObjAddr: 0x3688, symBinAddr: 0xB5B7B8, symSize: 0x5C }
  - { offset: 0x372EC3, size: 0x8, addend: 0x0, symName: __ZThn16_N5boost10wrapexceptINS_12bad_weak_ptrEED0Ev, symObjAddr: 0x3688, symBinAddr: 0xB5B7B8, symSize: 0x5C }
  - { offset: 0x372EE9, size: 0x8, addend: 0x0, symName: __ZThn16_N5boost10wrapexceptINS_12bad_weak_ptrEED0Ev, symObjAddr: 0x3688, symBinAddr: 0xB5B7B8, symSize: 0x5C }
  - { offset: 0x372FAE, size: 0x8, addend: 0x0, symName: __ZThn16_N5boost10wrapexceptINS_12bad_weak_ptrEED0Ev, symObjAddr: 0x3688, symBinAddr: 0xB5B7B8, symSize: 0x5C }
  - { offset: 0x372FB6, size: 0x8, addend: 0x0, symName: __ZN5boost16exception_detail10clone_baseD1Ev, symObjAddr: 0x36E4, symBinAddr: 0xC5A408, symSize: 0x4 }
  - { offset: 0x3730D6, size: 0x8, addend: 0x0, symName: __ZN5boost16exception_detail10clone_baseD1Ev, symObjAddr: 0x36E4, symBinAddr: 0xC5A408, symSize: 0x4 }
  - { offset: 0x3730DE, size: 0x8, addend: 0x0, symName: __ZN5boost16exception_detail10clone_baseD0Ev, symObjAddr: 0x36E8, symBinAddr: 0xC5A40C, symSize: 0x4 }
  - { offset: 0x37310D, size: 0x8, addend: 0x0, symName: __ZN5boost16exception_detail10clone_baseD0Ev, symObjAddr: 0x36E8, symBinAddr: 0xC5A40C, symSize: 0x4 }
  - { offset: 0x373115, size: 0x8, addend: 0x0, symName: __ZN5boost12bad_weak_ptrD0Ev, symObjAddr: 0x36EC, symBinAddr: 0xB5B814, symSize: 0x14 }
  - { offset: 0x373144, size: 0x8, addend: 0x0, symName: __ZN5boost12bad_weak_ptrD0Ev, symObjAddr: 0x36EC, symBinAddr: 0xB5B814, symSize: 0x14 }
  - { offset: 0x37314C, size: 0x8, addend: 0x0, symName: __ZN5boost10wrapexceptINS_12bad_weak_ptrEEC1ERKS2_, symObjAddr: 0x3700, symBinAddr: 0xB5B828, symSize: 0xAC }
  - { offset: 0x3731D0, size: 0x8, addend: 0x0, symName: __ZN5boost10wrapexceptINS_12bad_weak_ptrEEC1ERKS2_, symObjAddr: 0x3700, symBinAddr: 0xB5B828, symSize: 0xAC }
  - { offset: 0x3731D8, size: 0x8, addend: 0x0, symName: __ZN5boost16exception_detail20copy_boost_exceptionEPNS_9exceptionEPKS1_, symObjAddr: 0x37AC, symBinAddr: 0xB5B8D4, symSize: 0x138 }
  - { offset: 0x37334D, size: 0x8, addend: 0x0, symName: __ZN5boost16exception_detail20copy_boost_exceptionEPNS_9exceptionEPKS1_, symObjAddr: 0x37AC, symBinAddr: 0xB5B8D4, symSize: 0x138 }
  - { offset: 0x3733ED, size: 0x8, addend: 0x0, symName: __ZN5boost6detail20interruption_checker16unlock_if_lockedEv, symObjAddr: 0x3CA8, symBinAddr: 0xB5BA0C, symSize: 0x14C }
  - { offset: 0x3733F5, size: 0x8, addend: 0x0, symName: __ZN5boost15throw_exceptionINS_15condition_errorEEEvRKT_, symObjAddr: 0x3DF4, symBinAddr: 0xB5BB58, symSize: 0x50 }
  - { offset: 0x373811, size: 0x8, addend: 0x0, symName: __ZN5boost15condition_errorC1EiPKc, symObjAddr: 0x3E44, symBinAddr: 0xB5BBA8, symSize: 0xB0 }
  - { offset: 0x373819, size: 0x8, addend: 0x0, symName: __ZN5boost15condition_errorD1Ev, symObjAddr: 0x3EF4, symBinAddr: 0xB5BC58, symSize: 0x4 }
  - { offset: 0x373927, size: 0x8, addend: 0x0, symName: __ZN5boost15condition_errorD1Ev, symObjAddr: 0x3EF4, symBinAddr: 0xB5BC58, symSize: 0x4 }
  - { offset: 0x37392F, size: 0x8, addend: 0x0, symName: __ZN5boost6detail20interruption_checkerC2EP23_opaque_pthread_mutex_tP22_opaque_pthread_cond_t, symObjAddr: 0x3EF8, symBinAddr: 0xB5BC5C, symSize: 0x1A8 }
  - { offset: 0x37395C, size: 0x8, addend: 0x0, symName: __ZN5boost15condition_errorD1Ev, symObjAddr: 0x3EF4, symBinAddr: 0xB5BC58, symSize: 0x4 }
  - { offset: 0x373964, size: 0x8, addend: 0x0, symName: __ZN5boost6detail20interruption_checkerC2EP23_opaque_pthread_mutex_tP22_opaque_pthread_cond_t, symObjAddr: 0x3EF8, symBinAddr: 0xB5BC5C, symSize: 0x1A8 }
  - { offset: 0x373985, size: 0x8, addend: 0x0, symName: __ZN5boost15condition_errorD1Ev, symObjAddr: 0x3EF4, symBinAddr: 0xB5BC58, symSize: 0x4 }
  - { offset: 0x37398D, size: 0x8, addend: 0x0, symName: __ZN5boost6detail20interruption_checkerC2EP23_opaque_pthread_mutex_tP22_opaque_pthread_cond_t, symObjAddr: 0x3EF8, symBinAddr: 0xB5BC5C, symSize: 0x1A8 }
  - { offset: 0x3739C8, size: 0x8, addend: 0x0, symName: __ZN5boost6detail20interruption_checkerC2EP23_opaque_pthread_mutex_tP22_opaque_pthread_cond_t, symObjAddr: 0x3EF8, symBinAddr: 0xB5BC5C, symSize: 0x1A8 }
  - { offset: 0x3739D0, size: 0x8, addend: 0x0, symName: __ZN5boost11unique_lockINS_5mutexEE6unlockEv, symObjAddr: 0x40A0, symBinAddr: 0xB5BE04, symSize: 0xB0 }
  - { offset: 0x373DBE, size: 0x8, addend: 0x0, symName: __ZN5boost11unique_lockINS_5mutexEE6unlockEv, symObjAddr: 0x40A0, symBinAddr: 0xB5BE04, symSize: 0xB0 }
  - { offset: 0x373DC6, size: 0x8, addend: 0x0, symName: __ZN5boost15throw_exceptionINS_10lock_errorEEEvRKT_, symObjAddr: 0x4150, symBinAddr: 0xB5BEB4, symSize: 0x50 }
  - { offset: 0x373E77, size: 0x8, addend: 0x0, symName: __ZN5boost15throw_exceptionINS_10lock_errorEEEvRKT_, symObjAddr: 0x4150, symBinAddr: 0xB5BEB4, symSize: 0x50 }
  - { offset: 0x373E93, size: 0x8, addend: 0x0, symName: __ZN5boost15throw_exceptionINS_10lock_errorEEEvRKT_, symObjAddr: 0x4150, symBinAddr: 0xB5BEB4, symSize: 0x50 }
  - { offset: 0x373EB0, size: 0x8, addend: 0x0, symName: __ZN5boost15throw_exceptionINS_10lock_errorEEEvRKT_, symObjAddr: 0x4150, symBinAddr: 0xB5BEB4, symSize: 0x50 }
  - { offset: 0x373ECD, size: 0x8, addend: 0x0, symName: __ZN5boost15throw_exceptionINS_10lock_errorEEEvRKT_, symObjAddr: 0x4150, symBinAddr: 0xB5BEB4, symSize: 0x50 }
  - { offset: 0x373EDE, size: 0x8, addend: 0x0, symName: __ZN5boost10lock_errorC1EiPKc, symObjAddr: 0x41A0, symBinAddr: 0xB5BF04, symSize: 0xB0 }
  - { offset: 0x373EE6, size: 0x8, addend: 0x0, symName: __ZN5boost10lock_errorD1Ev, symObjAddr: 0x4250, symBinAddr: 0xB5BFB4, symSize: 0x4 }
  - { offset: 0x373FFD, size: 0x8, addend: 0x0, symName: __ZN5boost10lock_errorD1Ev, symObjAddr: 0x4250, symBinAddr: 0xB5BFB4, symSize: 0x4 }
  - { offset: 0x374005, size: 0x8, addend: 0x0, symName: __ZN5boost10wrapexceptINS_10lock_errorEEC1ERKS1_, symObjAddr: 0x4254, symBinAddr: 0xB5BFB8, symSize: 0x80 }
  - { offset: 0x374032, size: 0x8, addend: 0x0, symName: __ZN5boost10lock_errorD1Ev, symObjAddr: 0x4250, symBinAddr: 0xB5BFB4, symSize: 0x4 }
  - { offset: 0x37403A, size: 0x8, addend: 0x0, symName: __ZN5boost10wrapexceptINS_10lock_errorEEC1ERKS1_, symObjAddr: 0x4254, symBinAddr: 0xB5BFB8, symSize: 0x80 }
  - { offset: 0x37405B, size: 0x8, addend: 0x0, symName: __ZN5boost10lock_errorD1Ev, symObjAddr: 0x4250, symBinAddr: 0xB5BFB4, symSize: 0x4 }
  - { offset: 0x374063, size: 0x8, addend: 0x0, symName: __ZN5boost10wrapexceptINS_10lock_errorEEC1ERKS1_, symObjAddr: 0x4254, symBinAddr: 0xB5BFB8, symSize: 0x80 }
  - { offset: 0x374084, size: 0x8, addend: 0x0, symName: __ZN5boost10lock_errorD1Ev, symObjAddr: 0x4250, symBinAddr: 0xB5BFB4, symSize: 0x4 }
  - { offset: 0x37408C, size: 0x8, addend: 0x0, symName: __ZN5boost10wrapexceptINS_10lock_errorEEC1ERKS1_, symObjAddr: 0x4254, symBinAddr: 0xB5BFB8, symSize: 0x80 }
  - { offset: 0x3741A8, size: 0x8, addend: 0x0, symName: __ZN5boost10wrapexceptINS_10lock_errorEEC1ERKS1_, symObjAddr: 0x4254, symBinAddr: 0xB5BFB8, symSize: 0x80 }
  - { offset: 0x3741B0, size: 0x8, addend: 0x0, symName: __ZN5boost10wrapexceptINS_10lock_errorEED1Ev, symObjAddr: 0x42D4, symBinAddr: 0xB5C038, symSize: 0x58 }
  - { offset: 0x374313, size: 0x8, addend: 0x0, symName: __ZN5boost10wrapexceptINS_10lock_errorEED1Ev, symObjAddr: 0x42D4, symBinAddr: 0xB5C038, symSize: 0x58 }
  - { offset: 0x37431B, size: 0x8, addend: 0x0, symName: __ZNK5boost10wrapexceptINS_10lock_errorEE5cloneEv, symObjAddr: 0x432C, symBinAddr: 0xB5C090, symSize: 0x110 }
  - { offset: 0x37451B, size: 0x8, addend: 0x0, symName: __ZNK5boost10wrapexceptINS_10lock_errorEE5cloneEv, symObjAddr: 0x432C, symBinAddr: 0xB5C090, symSize: 0x110 }
  - { offset: 0x374523, size: 0x8, addend: 0x0, symName: __ZNK5boost10wrapexceptINS_10lock_errorEE7rethrowEv, symObjAddr: 0x443C, symBinAddr: 0xB5C1A0, symSize: 0x50 }
  - { offset: 0x374800, size: 0x8, addend: 0x0, symName: __ZNK5boost10wrapexceptINS_10lock_errorEE7rethrowEv, symObjAddr: 0x443C, symBinAddr: 0xB5C1A0, symSize: 0x50 }
  - { offset: 0x37481D, size: 0x8, addend: 0x0, symName: __ZNK5boost10wrapexceptINS_10lock_errorEE7rethrowEv, symObjAddr: 0x443C, symBinAddr: 0xB5C1A0, symSize: 0x50 }
  - { offset: 0x37482C, size: 0x8, addend: 0x0, symName: __ZNK5boost10wrapexceptINS_10lock_errorEE7rethrowEv, symObjAddr: 0x443C, symBinAddr: 0xB5C1A0, symSize: 0x50 }
  - { offset: 0x374834, size: 0x8, addend: 0x0, symName: __ZN5boost10wrapexceptINS_10lock_errorEED0Ev, symObjAddr: 0x448C, symBinAddr: 0xB5C1F0, symSize: 0x58 }
  - { offset: 0x374885, size: 0x8, addend: 0x0, symName: __ZN5boost10wrapexceptINS_10lock_errorEED0Ev, symObjAddr: 0x448C, symBinAddr: 0xB5C1F0, symSize: 0x58 }
  - { offset: 0x37488D, size: 0x8, addend: 0x0, symName: __ZThn8_N5boost10wrapexceptINS_10lock_errorEED1Ev, symObjAddr: 0x44E4, symBinAddr: 0xB5C248, symSize: 0x50 }
  - { offset: 0x3749EF, size: 0x8, addend: 0x0, symName: __ZThn8_N5boost10wrapexceptINS_10lock_errorEED1Ev, symObjAddr: 0x44E4, symBinAddr: 0xB5C248, symSize: 0x50 }
  - { offset: 0x3749F7, size: 0x8, addend: 0x0, symName: __ZThn8_N5boost10wrapexceptINS_10lock_errorEED0Ev, symObjAddr: 0x4534, symBinAddr: 0xB5C298, symSize: 0x5C }
  - { offset: 0x374A1C, size: 0x8, addend: 0x0, symName: __ZThn8_N5boost10wrapexceptINS_10lock_errorEED0Ev, symObjAddr: 0x4534, symBinAddr: 0xB5C298, symSize: 0x5C }
  - { offset: 0x374A42, size: 0x8, addend: 0x0, symName: __ZThn8_N5boost10wrapexceptINS_10lock_errorEED0Ev, symObjAddr: 0x4534, symBinAddr: 0xB5C298, symSize: 0x5C }
  - { offset: 0x374B82, size: 0x8, addend: 0x0, symName: __ZThn8_N5boost10wrapexceptINS_10lock_errorEED0Ev, symObjAddr: 0x4534, symBinAddr: 0xB5C298, symSize: 0x5C }
  - { offset: 0x374B8A, size: 0x8, addend: 0x0, symName: __ZThn48_N5boost10wrapexceptINS_10lock_errorEED1Ev, symObjAddr: 0x4590, symBinAddr: 0xB5C2F4, symSize: 0x50 }
  - { offset: 0x374CFA, size: 0x8, addend: 0x0, symName: __ZThn48_N5boost10wrapexceptINS_10lock_errorEED1Ev, symObjAddr: 0x4590, symBinAddr: 0xB5C2F4, symSize: 0x50 }
  - { offset: 0x374D02, size: 0x8, addend: 0x0, symName: __ZThn48_N5boost10wrapexceptINS_10lock_errorEED0Ev, symObjAddr: 0x45E0, symBinAddr: 0xB5C344, symSize: 0x5C }
  - { offset: 0x374D27, size: 0x8, addend: 0x0, symName: __ZThn48_N5boost10wrapexceptINS_10lock_errorEED0Ev, symObjAddr: 0x45E0, symBinAddr: 0xB5C344, symSize: 0x5C }
  - { offset: 0x374D4D, size: 0x8, addend: 0x0, symName: __ZThn48_N5boost10wrapexceptINS_10lock_errorEED0Ev, symObjAddr: 0x45E0, symBinAddr: 0xB5C344, symSize: 0x5C }
  - { offset: 0x374E66, size: 0x8, addend: 0x0, symName: __ZThn48_N5boost10wrapexceptINS_10lock_errorEED0Ev, symObjAddr: 0x45E0, symBinAddr: 0xB5C344, symSize: 0x5C }
  - { offset: 0x374E6E, size: 0x8, addend: 0x0, symName: __ZN5boost10lock_errorD0Ev, symObjAddr: 0x463C, symBinAddr: 0xB5C3A0, symSize: 0x14 }
  - { offset: 0x374FE2, size: 0x8, addend: 0x0, symName: __ZN5boost10lock_errorD0Ev, symObjAddr: 0x463C, symBinAddr: 0xB5C3A0, symSize: 0x14 }
  - { offset: 0x374FEA, size: 0x8, addend: 0x0, symName: __ZN5boost6system12system_errorD1Ev, symObjAddr: 0x4650, symBinAddr: 0xB5C3B4, symSize: 0x4 }
  - { offset: 0x3750C0, size: 0x8, addend: 0x0, symName: __ZN5boost6system12system_errorD1Ev, symObjAddr: 0x4650, symBinAddr: 0xB5C3B4, symSize: 0x4 }
  - { offset: 0x3750C8, size: 0x8, addend: 0x0, symName: __ZN5boost6system12system_errorD0Ev, symObjAddr: 0x4654, symBinAddr: 0xB5C3B8, symSize: 0x14 }
  - { offset: 0x3750F5, size: 0x8, addend: 0x0, symName: __ZN5boost6system12system_errorD1Ev, symObjAddr: 0x4650, symBinAddr: 0xB5C3B4, symSize: 0x4 }
  - { offset: 0x3750FD, size: 0x8, addend: 0x0, symName: __ZN5boost6system12system_errorD0Ev, symObjAddr: 0x4654, symBinAddr: 0xB5C3B8, symSize: 0x14 }
  - { offset: 0x37513D, size: 0x8, addend: 0x0, symName: __ZN5boost6system12system_errorD0Ev, symObjAddr: 0x4654, symBinAddr: 0xB5C3B8, symSize: 0x14 }
  - { offset: 0x375145, size: 0x8, addend: 0x0, symName: __ZN5boost10wrapexceptINS_10lock_errorEEC1ERKS2_, symObjAddr: 0x4668, symBinAddr: 0xB5C3CC, symSize: 0xE0 }
  - { offset: 0x3751C9, size: 0x8, addend: 0x0, symName: __ZN5boost10wrapexceptINS_10lock_errorEEC1ERKS2_, symObjAddr: 0x4668, symBinAddr: 0xB5C3CC, symSize: 0xE0 }
  - { offset: 0x3751D1, size: 0x8, addend: 0x0, symName: __ZN5boost6system12system_errorC2ERKNS0_10error_codeEPKc, symObjAddr: 0x4748, symBinAddr: 0xB5C4AC, symSize: 0x250 }
  - { offset: 0x3753AE, size: 0x8, addend: 0x0, symName: __ZN5boost6system12system_errorC2ERKNS0_10error_codeEPKc, symObjAddr: 0x4748, symBinAddr: 0xB5C4AC, symSize: 0x250 }
  - { offset: 0x3753D7, size: 0x8, addend: 0x0, symName: __ZN5boost6system12system_errorC2ERKNS0_10error_codeEPKc, symObjAddr: 0x4748, symBinAddr: 0xB5C4AC, symSize: 0x250 }
  - { offset: 0x375400, size: 0x8, addend: 0x0, symName: __ZN5boost6system12system_errorC2ERKNS0_10error_codeEPKc, symObjAddr: 0x4748, symBinAddr: 0xB5C4AC, symSize: 0x250 }
  - { offset: 0x37590A, size: 0x8, addend: 0x0, symName: __ZN5boost6system12system_errorC2ERKNS0_10error_codeEPKc, symObjAddr: 0x4748, symBinAddr: 0xB5C4AC, symSize: 0x250 }
  - { offset: 0x375912, size: 0x8, addend: 0x0, symName: __ZNK5boost6system6detail22generic_error_category4nameEv, symObjAddr: 0x4998, symBinAddr: 0xB5C6FC, symSize: 0xC }
  - { offset: 0x376B50, size: 0x8, addend: 0x0, symName: __ZNK5boost6system6detail22generic_error_category4nameEv, symObjAddr: 0x4998, symBinAddr: 0xB5C6FC, symSize: 0xC }
  - { offset: 0x376B86, size: 0x8, addend: 0x0, symName: __ZNK5boost6system6detail22generic_error_category4nameEv, symObjAddr: 0x4998, symBinAddr: 0xB5C6FC, symSize: 0xC }
  - { offset: 0x376BBC, size: 0x8, addend: 0x0, symName: __ZNK5boost6system6detail22generic_error_category4nameEv, symObjAddr: 0x4998, symBinAddr: 0xB5C6FC, symSize: 0xC }
  - { offset: 0x376BF1, size: 0x8, addend: 0x0, symName: __ZNK5boost6system6detail22generic_error_category4nameEv, symObjAddr: 0x4998, symBinAddr: 0xB5C6FC, symSize: 0xC }
  - { offset: 0x376C1D, size: 0x8, addend: 0x0, symName: __ZNK5boost6system6detail22generic_error_category4nameEv, symObjAddr: 0x4998, symBinAddr: 0xB5C6FC, symSize: 0xC }
  - { offset: 0x376C41, size: 0x8, addend: 0x0, symName: __ZNK5boost6system6detail22generic_error_category4nameEv, symObjAddr: 0x4998, symBinAddr: 0xB5C6FC, symSize: 0xC }
  - { offset: 0x376C49, size: 0x8, addend: 0x0, symName: __ZNK5boost6system14error_category23default_error_conditionEi, symObjAddr: 0x49A4, symBinAddr: 0xB5C708, symSize: 0x10 }
  - { offset: 0x376C76, size: 0x8, addend: 0x0, symName: __ZNK5boost6system14error_category23default_error_conditionEi, symObjAddr: 0x49A4, symBinAddr: 0xB5C708, symSize: 0x10 }
  - { offset: 0x376C7E, size: 0x8, addend: 0x0, symName: __ZNK5boost6system14error_category10equivalentEiRKNS0_15error_conditionE, symObjAddr: 0x49B4, symBinAddr: 0xB5C718, symSize: 0xB4 }
  - { offset: 0x376CE9, size: 0x8, addend: 0x0, symName: __ZNK5boost6system14error_category10equivalentEiRKNS0_15error_conditionE, symObjAddr: 0x49B4, symBinAddr: 0xB5C718, symSize: 0xB4 }
  - { offset: 0x376CF1, size: 0x8, addend: 0x0, symName: __ZNK5boost6system14error_category10equivalentERKNS0_10error_codeEi, symObjAddr: 0x4A68, symBinAddr: 0xB5C7CC, symSize: 0xD4 }
  - { offset: 0x376E8E, size: 0x8, addend: 0x0, symName: __ZNK5boost6system14error_category10equivalentERKNS0_10error_codeEi, symObjAddr: 0x4A68, symBinAddr: 0xB5C7CC, symSize: 0xD4 }
  - { offset: 0x376E96, size: 0x8, addend: 0x0, symName: __ZNK5boost6system6detail22generic_error_category7messageEi, symObjAddr: 0x4B3C, symBinAddr: 0xB5C8A0, symSize: 0xC4 }
  - { offset: 0x376FE8, size: 0x8, addend: 0x0, symName: __ZNK5boost6system6detail22generic_error_category7messageEi, symObjAddr: 0x4B3C, symBinAddr: 0xB5C8A0, symSize: 0xC4 }
  - { offset: 0x376FF0, size: 0x8, addend: 0x0, symName: __ZNK5boost6system6detail22generic_error_category7messageEiPcm, symObjAddr: 0x4C00, symBinAddr: 0xB5C964, symSize: 0x70 }
  - { offset: 0x37755C, size: 0x8, addend: 0x0, symName: __ZNK5boost6system6detail22generic_error_category7messageEiPcm, symObjAddr: 0x4C00, symBinAddr: 0xB5C964, symSize: 0x70 }
  - { offset: 0x377564, size: 0x8, addend: 0x0, symName: __ZNK5boost6system14error_category6failedEi, symObjAddr: 0x4C70, symBinAddr: 0xB5C9D4, symSize: 0xC }
  - { offset: 0x377617, size: 0x8, addend: 0x0, symName: __ZNK5boost6system14error_category6failedEi, symObjAddr: 0x4C70, symBinAddr: 0xB5C9D4, symSize: 0xC }
  - { offset: 0x3776FA, size: 0x8, addend: 0x0, symName: __ZNK5boost6system10error_code4whatEv, symObjAddr: 0x4D2C, symBinAddr: 0xB5C9E0, symSize: 0x16C }
  - { offset: 0x377702, size: 0x8, addend: 0x0, symName: __ZNK5boost6system10error_code7messageEv, symObjAddr: 0x4E98, symBinAddr: 0xB5CB4C, symSize: 0x110 }
  - { offset: 0x377EB0, size: 0x8, addend: 0x0, symName: __ZNK5boost6system10error_code7messageEv, symObjAddr: 0x4E98, symBinAddr: 0xB5CB4C, symSize: 0x110 }
  - { offset: 0x377EDC, size: 0x8, addend: 0x0, symName: __ZNK5boost6system10error_code7messageEv, symObjAddr: 0x4E98, symBinAddr: 0xB5CB4C, symSize: 0x110 }
  - { offset: 0x377F08, size: 0x8, addend: 0x0, symName: __ZNK5boost6system10error_code7messageEv, symObjAddr: 0x4E98, symBinAddr: 0xB5CB4C, symSize: 0x110 }
  - { offset: 0x377F3D, size: 0x8, addend: 0x0, symName: __ZNK5boost6system10error_code7messageEv, symObjAddr: 0x4E98, symBinAddr: 0xB5CB4C, symSize: 0x110 }
  - { offset: 0x377F69, size: 0x8, addend: 0x0, symName: __ZNK5boost6system10error_code7messageEv, symObjAddr: 0x4E98, symBinAddr: 0xB5CB4C, symSize: 0x110 }
  - { offset: 0x377FAC, size: 0x8, addend: 0x0, symName: __ZNK5boost6system10error_code7messageEv, symObjAddr: 0x4E98, symBinAddr: 0xB5CB4C, symSize: 0x110 }
  - { offset: 0x377FB4, size: 0x8, addend: 0x0, symName: __ZNK5boost6system10error_code9to_stringEv, symObjAddr: 0x4FA8, symBinAddr: 0xB5CC5C, symSize: 0x20C }
  - { offset: 0x37863C, size: 0x8, addend: 0x0, symName: __ZNK5boost6system10error_code9to_stringEv, symObjAddr: 0x4FA8, symBinAddr: 0xB5CC5C, symSize: 0x20C }
  - { offset: 0x378644, size: 0x8, addend: 0x0, symName: __ZNK5boost15source_location9to_stringEv, symObjAddr: 0x51B4, symBinAddr: 0xB5CE68, symSize: 0x1D4 }
  - { offset: 0x37925F, size: 0x8, addend: 0x0, symName: __ZNK5boost15source_location9to_stringEv, symObjAddr: 0x51B4, symBinAddr: 0xB5CE68, symSize: 0x1D4 }
  - { offset: 0x379267, size: 0x8, addend: 0x0, symName: __ZN5boost6system6detail8snprintfEPcmPKcz, symObjAddr: 0x5388, symBinAddr: 0xB5D03C, symSize: 0x28 }
  - { offset: 0x379F6D, size: 0x8, addend: 0x0, symName: __ZN5boost11unique_lockINS_5mutexEE4lockEv, symObjAddr: 0x53B0, symBinAddr: 0xB5D064, symSize: 0xEC }
  - { offset: 0x379F75, size: 0x8, addend: 0x0, symName: __ZN5boost10wrapexceptINS_15condition_errorEEC1ERKS1_, symObjAddr: 0x549C, symBinAddr: 0xB5D150, symSize: 0x80 }
  - { offset: 0x37A074, size: 0x8, addend: 0x0, symName: __ZN5boost10wrapexceptINS_15condition_errorEEC1ERKS1_, symObjAddr: 0x549C, symBinAddr: 0xB5D150, symSize: 0x80 }
  - { offset: 0x37A07C, size: 0x8, addend: 0x0, symName: __ZN5boost10wrapexceptINS_15condition_errorEED1Ev, symObjAddr: 0x551C, symBinAddr: 0xB5D1D0, symSize: 0x58 }
  - { offset: 0x37A1B5, size: 0x8, addend: 0x0, symName: __ZN5boost10wrapexceptINS_15condition_errorEED1Ev, symObjAddr: 0x551C, symBinAddr: 0xB5D1D0, symSize: 0x58 }
  - { offset: 0x37A1BD, size: 0x8, addend: 0x0, symName: __ZNK5boost10wrapexceptINS_15condition_errorEE5cloneEv, symObjAddr: 0x5574, symBinAddr: 0xB5D228, symSize: 0x110 }
  - { offset: 0x37A393, size: 0x8, addend: 0x0, symName: __ZNK5boost10wrapexceptINS_15condition_errorEE5cloneEv, symObjAddr: 0x5574, symBinAddr: 0xB5D228, symSize: 0x110 }
  - { offset: 0x37A39B, size: 0x8, addend: 0x0, symName: __ZNK5boost10wrapexceptINS_15condition_errorEE7rethrowEv, symObjAddr: 0x5684, symBinAddr: 0xB5D338, symSize: 0x50 }
  - { offset: 0x37A616, size: 0x8, addend: 0x0, symName: __ZNK5boost10wrapexceptINS_15condition_errorEE7rethrowEv, symObjAddr: 0x5684, symBinAddr: 0xB5D338, symSize: 0x50 }
  - { offset: 0x37A633, size: 0x8, addend: 0x0, symName: __ZNK5boost10wrapexceptINS_15condition_errorEE7rethrowEv, symObjAddr: 0x5684, symBinAddr: 0xB5D338, symSize: 0x50 }
  - { offset: 0x37A642, size: 0x8, addend: 0x0, symName: __ZNK5boost10wrapexceptINS_15condition_errorEE7rethrowEv, symObjAddr: 0x5684, symBinAddr: 0xB5D338, symSize: 0x50 }
  - { offset: 0x37A64A, size: 0x8, addend: 0x0, symName: __ZN5boost10wrapexceptINS_15condition_errorEED0Ev, symObjAddr: 0x56D4, symBinAddr: 0xB5D388, symSize: 0x58 }
  - { offset: 0x37A69B, size: 0x8, addend: 0x0, symName: __ZN5boost10wrapexceptINS_15condition_errorEED0Ev, symObjAddr: 0x56D4, symBinAddr: 0xB5D388, symSize: 0x58 }
  - { offset: 0x37A6A3, size: 0x8, addend: 0x0, symName: __ZThn8_N5boost10wrapexceptINS_15condition_errorEED1Ev, symObjAddr: 0x572C, symBinAddr: 0xB5D3E0, symSize: 0x50 }
  - { offset: 0x37A7DB, size: 0x8, addend: 0x0, symName: __ZThn8_N5boost10wrapexceptINS_15condition_errorEED1Ev, symObjAddr: 0x572C, symBinAddr: 0xB5D3E0, symSize: 0x50 }
  - { offset: 0x37A7E3, size: 0x8, addend: 0x0, symName: __ZThn8_N5boost10wrapexceptINS_15condition_errorEED0Ev, symObjAddr: 0x577C, symBinAddr: 0xB5D430, symSize: 0x5C }
  - { offset: 0x37A808, size: 0x8, addend: 0x0, symName: __ZThn8_N5boost10wrapexceptINS_15condition_errorEED0Ev, symObjAddr: 0x577C, symBinAddr: 0xB5D430, symSize: 0x5C }
  - { offset: 0x37A82E, size: 0x8, addend: 0x0, symName: __ZThn8_N5boost10wrapexceptINS_15condition_errorEED0Ev, symObjAddr: 0x577C, symBinAddr: 0xB5D430, symSize: 0x5C }
  - { offset: 0x37A942, size: 0x8, addend: 0x0, symName: __ZThn8_N5boost10wrapexceptINS_15condition_errorEED0Ev, symObjAddr: 0x577C, symBinAddr: 0xB5D430, symSize: 0x5C }
  - { offset: 0x37A94A, size: 0x8, addend: 0x0, symName: __ZThn48_N5boost10wrapexceptINS_15condition_errorEED1Ev, symObjAddr: 0x57D8, symBinAddr: 0xB5D48C, symSize: 0x50 }
  - { offset: 0x37AA90, size: 0x8, addend: 0x0, symName: __ZThn48_N5boost10wrapexceptINS_15condition_errorEED1Ev, symObjAddr: 0x57D8, symBinAddr: 0xB5D48C, symSize: 0x50 }
  - { offset: 0x37AA98, size: 0x8, addend: 0x0, symName: __ZThn48_N5boost10wrapexceptINS_15condition_errorEED0Ev, symObjAddr: 0x5828, symBinAddr: 0xB5D4DC, symSize: 0x5C }
  - { offset: 0x37AABD, size: 0x8, addend: 0x0, symName: __ZThn48_N5boost10wrapexceptINS_15condition_errorEED0Ev, symObjAddr: 0x5828, symBinAddr: 0xB5D4DC, symSize: 0x5C }
  - { offset: 0x37AAE3, size: 0x8, addend: 0x0, symName: __ZThn48_N5boost10wrapexceptINS_15condition_errorEED0Ev, symObjAddr: 0x5828, symBinAddr: 0xB5D4DC, symSize: 0x5C }
  - { offset: 0x37ABD2, size: 0x8, addend: 0x0, symName: __ZThn48_N5boost10wrapexceptINS_15condition_errorEED0Ev, symObjAddr: 0x5828, symBinAddr: 0xB5D4DC, symSize: 0x5C }
  - { offset: 0x37ABDA, size: 0x8, addend: 0x0, symName: __ZN5boost15condition_errorD0Ev, symObjAddr: 0x5884, symBinAddr: 0xB5D538, symSize: 0x14 }
  - { offset: 0x37AD24, size: 0x8, addend: 0x0, symName: __ZN5boost15condition_errorD0Ev, symObjAddr: 0x5884, symBinAddr: 0xB5D538, symSize: 0x14 }
  - { offset: 0x37AD2C, size: 0x8, addend: 0x0, symName: __ZN5boost10wrapexceptINS_15condition_errorEEC1ERKS2_, symObjAddr: 0x5898, symBinAddr: 0xB5D54C, symSize: 0xE0 }
  - { offset: 0x37ADDA, size: 0x8, addend: 0x0, symName: __ZN5boost10wrapexceptINS_15condition_errorEEC1ERKS2_, symObjAddr: 0x5898, symBinAddr: 0xB5D54C, symSize: 0xE0 }
  - { offset: 0x37ADE2, size: 0x8, addend: 0x0, symName: __ZNSt3__16vectorIN5boost10shared_ptrINS1_6detail17shared_state_baseEEENS_9allocatorIS5_EEE21__push_back_slow_pathIRKS5_EEPS5_OT_, symObjAddr: 0x5978, symBinAddr: 0xB5D62C, symSize: 0x170 }
  - { offset: 0x37AF93, size: 0x8, addend: 0x0, symName: __ZNSt3__16vectorIN5boost10shared_ptrINS1_6detail17shared_state_baseEEENS_9allocatorIS5_EEE21__push_back_slow_pathIRKS5_EEPS5_OT_, symObjAddr: 0x5978, symBinAddr: 0xB5D62C, symSize: 0x170 }
  - { offset: 0x37AFBC, size: 0x8, addend: 0x0, symName: __ZNSt3__16vectorIN5boost10shared_ptrINS1_6detail17shared_state_baseEEENS_9allocatorIS5_EEE21__push_back_slow_pathIRKS5_EEPS5_OT_, symObjAddr: 0x5978, symBinAddr: 0xB5D62C, symSize: 0x170 }
  - { offset: 0x37B383, size: 0x8, addend: 0x0, symName: __ZNSt3__16vectorIN5boost10shared_ptrINS1_6detail17shared_state_baseEEENS_9allocatorIS5_EEE21__push_back_slow_pathIRKS5_EEPS5_OT_, symObjAddr: 0x5978, symBinAddr: 0xB5D62C, symSize: 0x170 }
  - { offset: 0x37BB93, size: 0x8, addend: 0x0, symName: __ZN5boost16exception_detail10clone_implINS0_10bad_alloc_EEC1ERKS3_, symObjAddr: 0x5B50, symBinAddr: 0xB5D79C, symSize: 0x80 }
  - { offset: 0x37BB9B, size: 0x8, addend: 0x0, symName: __ZN5boost10shared_ptrIKNS_16exception_detail10clone_baseEED1Ev, symObjAddr: 0x5BD0, symBinAddr: 0xB5D81C, symSize: 0x74 }
  - { offset: 0x37BCC2, size: 0x8, addend: 0x0, symName: __ZN5boost10shared_ptrIKNS_16exception_detail10clone_baseEED1Ev, symObjAddr: 0x5BD0, symBinAddr: 0xB5D81C, symSize: 0x74 }
  - { offset: 0x37BCCA, size: 0x8, addend: 0x0, symName: __ZN5boost16exception_detail10clone_implINS0_10bad_alloc_EED1Ev, symObjAddr: 0x5C44, symBinAddr: 0xB5D890, symSize: 0x58 }
  - { offset: 0x37BDF5, size: 0x8, addend: 0x0, symName: __ZN5boost16exception_detail10clone_implINS0_10bad_alloc_EED1Ev, symObjAddr: 0x5C44, symBinAddr: 0xB5D890, symSize: 0x58 }
  - { offset: 0x37BDFD, size: 0x8, addend: 0x0, symName: __ZN5boost16exception_detail10bad_alloc_D1Ev, symObjAddr: 0x5C9C, symBinAddr: 0xB5D8E8, symSize: 0x58 }
  - { offset: 0x37BEE7, size: 0x8, addend: 0x0, symName: __ZN5boost16exception_detail10bad_alloc_D1Ev, symObjAddr: 0x5C9C, symBinAddr: 0xB5D8E8, symSize: 0x58 }
  - { offset: 0x37BEEF, size: 0x8, addend: 0x0, symName: __ZN5boost16exception_detail10bad_alloc_D0Ev, symObjAddr: 0x5CF4, symBinAddr: 0xB5D940, symSize: 0x50 }
  - { offset: 0x37BFB7, size: 0x8, addend: 0x0, symName: __ZN5boost16exception_detail10bad_alloc_D0Ev, symObjAddr: 0x5CF4, symBinAddr: 0xB5D940, symSize: 0x50 }
  - { offset: 0x37BFBF, size: 0x8, addend: 0x0, symName: __ZThn40_N5boost16exception_detail10bad_alloc_D1Ev, symObjAddr: 0x5D44, symBinAddr: 0xB5D990, symSize: 0x50 }
  - { offset: 0x37C0A7, size: 0x8, addend: 0x0, symName: __ZThn40_N5boost16exception_detail10bad_alloc_D1Ev, symObjAddr: 0x5D44, symBinAddr: 0xB5D990, symSize: 0x50 }
  - { offset: 0x37C0AF, size: 0x8, addend: 0x0, symName: __ZThn40_N5boost16exception_detail10bad_alloc_D0Ev, symObjAddr: 0x5D94, symBinAddr: 0xB5D9E0, symSize: 0x4C }
  - { offset: 0x37C19C, size: 0x8, addend: 0x0, symName: __ZThn40_N5boost16exception_detail10bad_alloc_D0Ev, symObjAddr: 0x5D94, symBinAddr: 0xB5D9E0, symSize: 0x4C }
  - { offset: 0x37C1A4, size: 0x8, addend: 0x0, symName: __ZN5boost16exception_detail10bad_alloc_D2Ev, symObjAddr: 0x5DE0, symBinAddr: 0xB5DA2C, symSize: 0x58 }
  - { offset: 0x37C1C9, size: 0x8, addend: 0x0, symName: __ZN5boost16exception_detail10bad_alloc_D2Ev, symObjAddr: 0x5DE0, symBinAddr: 0xB5DA2C, symSize: 0x58 }
  - { offset: 0x37C2A6, size: 0x8, addend: 0x0, symName: __ZN5boost16exception_detail10bad_alloc_D2Ev, symObjAddr: 0x5DE0, symBinAddr: 0xB5DA2C, symSize: 0x58 }
  - { offset: 0x37C2AE, size: 0x8, addend: 0x0, symName: __ZN5boost16exception_detail10clone_implINS0_10bad_alloc_EED0Ev, symObjAddr: 0x5E38, symBinAddr: 0xB5DA84, symSize: 0x50 }
  - { offset: 0x37C356, size: 0x8, addend: 0x0, symName: __ZN5boost16exception_detail10clone_implINS0_10bad_alloc_EED0Ev, symObjAddr: 0x5E38, symBinAddr: 0xB5DA84, symSize: 0x50 }
  - { offset: 0x37C35E, size: 0x8, addend: 0x0, symName: __ZNK5boost16exception_detail10clone_implINS0_10bad_alloc_EE5cloneEv, symObjAddr: 0x5E88, symBinAddr: 0xB5DAD4, symSize: 0xC8 }
  - { offset: 0x37C4A9, size: 0x8, addend: 0x0, symName: __ZNK5boost16exception_detail10clone_implINS0_10bad_alloc_EE5cloneEv, symObjAddr: 0x5E88, symBinAddr: 0xB5DAD4, symSize: 0xC8 }
  - { offset: 0x37C4B1, size: 0x8, addend: 0x0, symName: __ZNK5boost16exception_detail10clone_implINS0_10bad_alloc_EE7rethrowEv, symObjAddr: 0x5F50, symBinAddr: 0xB5DB9C, symSize: 0x50 }
  - { offset: 0x37C5F9, size: 0x8, addend: 0x0, symName: __ZNK5boost16exception_detail10clone_implINS0_10bad_alloc_EE7rethrowEv, symObjAddr: 0x5F50, symBinAddr: 0xB5DB9C, symSize: 0x50 }
  - { offset: 0x37C601, size: 0x8, addend: 0x0, symName: __ZThn40_N5boost16exception_detail10clone_implINS0_10bad_alloc_EED1Ev, symObjAddr: 0x5FA0, symBinAddr: 0xB5DBEC, symSize: 0x50 }
  - { offset: 0x37C628, size: 0x8, addend: 0x0, symName: __ZThn40_N5boost16exception_detail10clone_implINS0_10bad_alloc_EED1Ev, symObjAddr: 0x5FA0, symBinAddr: 0xB5DBEC, symSize: 0x50 }
  - { offset: 0x37C630, size: 0x8, addend: 0x0, symName: __ZThn40_N5boost16exception_detail10clone_implINS0_10bad_alloc_EED0Ev, symObjAddr: 0x5FF0, symBinAddr: 0xB5DC3C, symSize: 0x4C }
  - { offset: 0x37C73C, size: 0x8, addend: 0x0, symName: __ZThn40_N5boost16exception_detail10clone_implINS0_10bad_alloc_EED0Ev, symObjAddr: 0x5FF0, symBinAddr: 0xB5DC3C, symSize: 0x4C }
  - { offset: 0x37C744, size: 0x8, addend: 0x0, symName: __ZTv0_n24_NK5boost16exception_detail10clone_implINS0_10bad_alloc_EE5cloneEv, symObjAddr: 0x603C, symBinAddr: 0xB5DC88, symSize: 0x10C }
  - { offset: 0x37C76A, size: 0x8, addend: 0x0, symName: __ZTv0_n24_NK5boost16exception_detail10clone_implINS0_10bad_alloc_EE5cloneEv, symObjAddr: 0x603C, symBinAddr: 0xB5DC88, symSize: 0x10C }
  - { offset: 0x37C892, size: 0x8, addend: 0x0, symName: __ZTv0_n24_NK5boost16exception_detail10clone_implINS0_10bad_alloc_EE5cloneEv, symObjAddr: 0x603C, symBinAddr: 0xB5DC88, symSize: 0x10C }
  - { offset: 0x37C89A, size: 0x8, addend: 0x0, symName: __ZTv0_n32_NK5boost16exception_detail10clone_implINS0_10bad_alloc_EE7rethrowEv, symObjAddr: 0x6148, symBinAddr: 0xB5DD94, symSize: 0x58 }
  - { offset: 0x37CACA, size: 0x8, addend: 0x0, symName: __ZTv0_n32_NK5boost16exception_detail10clone_implINS0_10bad_alloc_EE7rethrowEv, symObjAddr: 0x6148, symBinAddr: 0xB5DD94, symSize: 0x58 }
  - { offset: 0x37CAD2, size: 0x8, addend: 0x0, symName: __ZTv0_n40_N5boost16exception_detail10clone_implINS0_10bad_alloc_EED1Ev, symObjAddr: 0x61A0, symBinAddr: 0xB5DDEC, symSize: 0x5C }
  - { offset: 0x37CAF8, size: 0x8, addend: 0x0, symName: __ZTv0_n40_N5boost16exception_detail10clone_implINS0_10bad_alloc_EED1Ev, symObjAddr: 0x61A0, symBinAddr: 0xB5DDEC, symSize: 0x5C }
  - { offset: 0x37CB14, size: 0x8, addend: 0x0, symName: __ZTv0_n40_N5boost16exception_detail10clone_implINS0_10bad_alloc_EED1Ev, symObjAddr: 0x61A0, symBinAddr: 0xB5DDEC, symSize: 0x5C }
  - { offset: 0x37CB1C, size: 0x8, addend: 0x0, symName: __ZTv0_n40_N5boost16exception_detail10clone_implINS0_10bad_alloc_EED0Ev, symObjAddr: 0x61FC, symBinAddr: 0xB5DE48, symSize: 0x58 }
  - { offset: 0x37CC15, size: 0x8, addend: 0x0, symName: __ZTv0_n40_N5boost16exception_detail10clone_implINS0_10bad_alloc_EED0Ev, symObjAddr: 0x61FC, symBinAddr: 0xB5DE48, symSize: 0x58 }
  - { offset: 0x37CC1D, size: 0x8, addend: 0x0, symName: __ZN5boost10shared_ptrIKNS_16exception_detail10clone_baseEEC2INS1_10clone_implINS1_10bad_alloc_EEEEEPT_, symObjAddr: 0x6254, symBinAddr: 0xB5DEA0, symSize: 0xB0 }
  - { offset: 0x37CC43, size: 0x8, addend: 0x0, symName: __ZN5boost10shared_ptrIKNS_16exception_detail10clone_baseEEC2INS1_10clone_implINS1_10bad_alloc_EEEEEPT_, symObjAddr: 0x6254, symBinAddr: 0xB5DEA0, symSize: 0xB0 }
  - { offset: 0x37CE77, size: 0x8, addend: 0x0, symName: __ZN5boost10shared_ptrIKNS_16exception_detail10clone_baseEEC2INS1_10clone_implINS1_10bad_alloc_EEEEEPT_, symObjAddr: 0x6254, symBinAddr: 0xB5DEA0, symSize: 0xB0 }
  - { offset: 0x37CE7F, size: 0x8, addend: 0x0, symName: __ZN5boost6detail17sp_counted_impl_pINS_16exception_detail10clone_implINS2_10bad_alloc_EEEED1Ev, symObjAddr: 0x6304, symBinAddr: 0xB5DF50, symSize: 0x4 }
  - { offset: 0x37D075, size: 0x8, addend: 0x0, symName: __ZN5boost6detail17sp_counted_impl_pINS_16exception_detail10clone_implINS2_10bad_alloc_EEEED1Ev, symObjAddr: 0x6304, symBinAddr: 0xB5DF50, symSize: 0x4 }
  - { offset: 0x37D07D, size: 0x8, addend: 0x0, symName: __ZN5boost6detail17sp_counted_impl_pINS_16exception_detail10clone_implINS2_10bad_alloc_EEEED0Ev, symObjAddr: 0x6308, symBinAddr: 0xB5DF54, symSize: 0x4 }
  - { offset: 0x37D0AE, size: 0x8, addend: 0x0, symName: __ZN5boost6detail17sp_counted_impl_pINS_16exception_detail10clone_implINS2_10bad_alloc_EEEED0Ev, symObjAddr: 0x6308, symBinAddr: 0xB5DF54, symSize: 0x4 }
  - { offset: 0x37D0B6, size: 0x8, addend: 0x0, symName: __ZN5boost6detail17sp_counted_impl_pINS_16exception_detail10clone_implINS2_10bad_alloc_EEEE7disposeEv, symObjAddr: 0x630C, symBinAddr: 0xB5DF58, symSize: 0x18 }
  - { offset: 0x37D0E7, size: 0x8, addend: 0x0, symName: __ZN5boost6detail17sp_counted_impl_pINS_16exception_detail10clone_implINS2_10bad_alloc_EEEE7disposeEv, symObjAddr: 0x630C, symBinAddr: 0xB5DF58, symSize: 0x18 }
  - { offset: 0x37D0EF, size: 0x8, addend: 0x0, symName: __ZN5boost6detail15sp_counted_base7destroyEv, symObjAddr: 0x6324, symBinAddr: 0xB5DF70, symSize: 0x14 }
  - { offset: 0x37D146, size: 0x8, addend: 0x0, symName: __ZN5boost6detail15sp_counted_base7destroyEv, symObjAddr: 0x6324, symBinAddr: 0xB5DF70, symSize: 0x14 }
  - { offset: 0x37D14E, size: 0x8, addend: 0x0, symName: __ZN5boost6detail17sp_counted_impl_pINS_16exception_detail10clone_implINS2_10bad_alloc_EEEE11get_deleterERKSt9type_info, symObjAddr: 0x6338, symBinAddr: 0xB5DF84, symSize: 0x8 }
  - { offset: 0x37D179, size: 0x8, addend: 0x0, symName: __ZN5boost6detail17sp_counted_impl_pINS_16exception_detail10clone_implINS2_10bad_alloc_EEEE11get_deleterERKSt9type_info, symObjAddr: 0x6338, symBinAddr: 0xB5DF84, symSize: 0x8 }
  - { offset: 0x37D181, size: 0x8, addend: 0x0, symName: __ZN5boost6detail17sp_counted_impl_pINS_16exception_detail10clone_implINS2_10bad_alloc_EEEE17get_local_deleterERKSt9type_info, symObjAddr: 0x6340, symBinAddr: 0xB5DF8C, symSize: 0x8 }
  - { offset: 0x37D1BC, size: 0x8, addend: 0x0, symName: __ZN5boost6detail17sp_counted_impl_pINS_16exception_detail10clone_implINS2_10bad_alloc_EEEE17get_local_deleterERKSt9type_info, symObjAddr: 0x6340, symBinAddr: 0xB5DF8C, symSize: 0x8 }
  - { offset: 0x37D1C4, size: 0x8, addend: 0x0, symName: __ZN5boost6detail17sp_counted_impl_pINS_16exception_detail10clone_implINS2_10bad_alloc_EEEE19get_untyped_deleterEv, symObjAddr: 0x6348, symBinAddr: 0xB5DF94, symSize: 0x8 }
  - { offset: 0x37D1FF, size: 0x8, addend: 0x0, symName: __ZN5boost6detail17sp_counted_impl_pINS_16exception_detail10clone_implINS2_10bad_alloc_EEEE19get_untyped_deleterEv, symObjAddr: 0x6348, symBinAddr: 0xB5DF94, symSize: 0x8 }
  - { offset: 0x37D207, size: 0x8, addend: 0x0, symName: __ZN5boost16exception_detail10clone_implINS0_14bad_exception_EEC1ERKS3_, symObjAddr: 0x6350, symBinAddr: 0xB5DF9C, symSize: 0x80 }
  - { offset: 0x37D234, size: 0x8, addend: 0x0, symName: __ZN5boost16exception_detail10clone_implINS0_14bad_exception_EEC1ERKS3_, symObjAddr: 0x6350, symBinAddr: 0xB5DF9C, symSize: 0x80 }
  - { offset: 0x37D23C, size: 0x8, addend: 0x0, symName: __ZN5boost16exception_detail10clone_implINS0_14bad_exception_EED1Ev, symObjAddr: 0x63D0, symBinAddr: 0xB5E01C, symSize: 0x58 }
  - { offset: 0x37D363, size: 0x8, addend: 0x0, symName: __ZN5boost16exception_detail10clone_implINS0_14bad_exception_EED1Ev, symObjAddr: 0x63D0, symBinAddr: 0xB5E01C, symSize: 0x58 }
  - { offset: 0x37D36B, size: 0x8, addend: 0x0, symName: __ZN5boost16exception_detail14bad_exception_D1Ev, symObjAddr: 0x6428, symBinAddr: 0xB5E074, symSize: 0x58 }
  - { offset: 0x37D455, size: 0x8, addend: 0x0, symName: __ZN5boost16exception_detail14bad_exception_D1Ev, symObjAddr: 0x6428, symBinAddr: 0xB5E074, symSize: 0x58 }
  - { offset: 0x37D45D, size: 0x8, addend: 0x0, symName: __ZN5boost16exception_detail14bad_exception_D0Ev, symObjAddr: 0x6480, symBinAddr: 0xB5E0CC, symSize: 0x50 }
  - { offset: 0x37D525, size: 0x8, addend: 0x0, symName: __ZN5boost16exception_detail14bad_exception_D0Ev, symObjAddr: 0x6480, symBinAddr: 0xB5E0CC, symSize: 0x50 }
  - { offset: 0x37D52D, size: 0x8, addend: 0x0, symName: __ZThn40_N5boost16exception_detail14bad_exception_D1Ev, symObjAddr: 0x64D0, symBinAddr: 0xB5E11C, symSize: 0x50 }
  - { offset: 0x37D615, size: 0x8, addend: 0x0, symName: __ZThn40_N5boost16exception_detail14bad_exception_D1Ev, symObjAddr: 0x64D0, symBinAddr: 0xB5E11C, symSize: 0x50 }
  - { offset: 0x37D61D, size: 0x8, addend: 0x0, symName: __ZThn40_N5boost16exception_detail14bad_exception_D0Ev, symObjAddr: 0x6520, symBinAddr: 0xB5E16C, symSize: 0x4C }
  - { offset: 0x37D70A, size: 0x8, addend: 0x0, symName: __ZThn40_N5boost16exception_detail14bad_exception_D0Ev, symObjAddr: 0x6520, symBinAddr: 0xB5E16C, symSize: 0x4C }
  - { offset: 0x37D712, size: 0x8, addend: 0x0, symName: __ZN5boost16exception_detail14bad_exception_D2Ev, symObjAddr: 0x656C, symBinAddr: 0xB5E1B8, symSize: 0x58 }
  - { offset: 0x37D737, size: 0x8, addend: 0x0, symName: __ZN5boost16exception_detail14bad_exception_D2Ev, symObjAddr: 0x656C, symBinAddr: 0xB5E1B8, symSize: 0x58 }
  - { offset: 0x37D814, size: 0x8, addend: 0x0, symName: __ZN5boost16exception_detail14bad_exception_D2Ev, symObjAddr: 0x656C, symBinAddr: 0xB5E1B8, symSize: 0x58 }
  - { offset: 0x37D81C, size: 0x8, addend: 0x0, symName: __ZN5boost16exception_detail10clone_implINS0_14bad_exception_EED0Ev, symObjAddr: 0x65C4, symBinAddr: 0xB5E210, symSize: 0x50 }
  - { offset: 0x37D8C4, size: 0x8, addend: 0x0, symName: __ZN5boost16exception_detail10clone_implINS0_14bad_exception_EED0Ev, symObjAddr: 0x65C4, symBinAddr: 0xB5E210, symSize: 0x50 }
  - { offset: 0x37D8CC, size: 0x8, addend: 0x0, symName: __ZNK5boost16exception_detail10clone_implINS0_14bad_exception_EE5cloneEv, symObjAddr: 0x6614, symBinAddr: 0xB5E260, symSize: 0xC8 }
  - { offset: 0x37DA17, size: 0x8, addend: 0x0, symName: __ZNK5boost16exception_detail10clone_implINS0_14bad_exception_EE5cloneEv, symObjAddr: 0x6614, symBinAddr: 0xB5E260, symSize: 0xC8 }
  - { offset: 0x37DA1F, size: 0x8, addend: 0x0, symName: __ZNK5boost16exception_detail10clone_implINS0_14bad_exception_EE7rethrowEv, symObjAddr: 0x66DC, symBinAddr: 0xB5E328, symSize: 0x50 }
  - { offset: 0x37DB67, size: 0x8, addend: 0x0, symName: __ZNK5boost16exception_detail10clone_implINS0_14bad_exception_EE7rethrowEv, symObjAddr: 0x66DC, symBinAddr: 0xB5E328, symSize: 0x50 }
  - { offset: 0x37DB6F, size: 0x8, addend: 0x0, symName: __ZThn40_N5boost16exception_detail10clone_implINS0_14bad_exception_EED1Ev, symObjAddr: 0x672C, symBinAddr: 0xB5E378, symSize: 0x50 }
  - { offset: 0x37DB96, size: 0x8, addend: 0x0, symName: __ZThn40_N5boost16exception_detail10clone_implINS0_14bad_exception_EED1Ev, symObjAddr: 0x672C, symBinAddr: 0xB5E378, symSize: 0x50 }
  - { offset: 0x37DB9E, size: 0x8, addend: 0x0, symName: __ZThn40_N5boost16exception_detail10clone_implINS0_14bad_exception_EED0Ev, symObjAddr: 0x677C, symBinAddr: 0xB5E3C8, symSize: 0x4C }
  - { offset: 0x37DCAA, size: 0x8, addend: 0x0, symName: __ZThn40_N5boost16exception_detail10clone_implINS0_14bad_exception_EED0Ev, symObjAddr: 0x677C, symBinAddr: 0xB5E3C8, symSize: 0x4C }
  - { offset: 0x37DCB2, size: 0x8, addend: 0x0, symName: __ZTv0_n24_NK5boost16exception_detail10clone_implINS0_14bad_exception_EE5cloneEv, symObjAddr: 0x67C8, symBinAddr: 0xB5E414, symSize: 0x10C }
  - { offset: 0x37DCD8, size: 0x8, addend: 0x0, symName: __ZTv0_n24_NK5boost16exception_detail10clone_implINS0_14bad_exception_EE5cloneEv, symObjAddr: 0x67C8, symBinAddr: 0xB5E414, symSize: 0x10C }
  - { offset: 0x37DE00, size: 0x8, addend: 0x0, symName: __ZTv0_n24_NK5boost16exception_detail10clone_implINS0_14bad_exception_EE5cloneEv, symObjAddr: 0x67C8, symBinAddr: 0xB5E414, symSize: 0x10C }
  - { offset: 0x37DE08, size: 0x8, addend: 0x0, symName: __ZTv0_n32_NK5boost16exception_detail10clone_implINS0_14bad_exception_EE7rethrowEv, symObjAddr: 0x68D4, symBinAddr: 0xB5E520, symSize: 0x58 }
  - { offset: 0x37E038, size: 0x8, addend: 0x0, symName: __ZTv0_n32_NK5boost16exception_detail10clone_implINS0_14bad_exception_EE7rethrowEv, symObjAddr: 0x68D4, symBinAddr: 0xB5E520, symSize: 0x58 }
  - { offset: 0x37E040, size: 0x8, addend: 0x0, symName: __ZTv0_n40_N5boost16exception_detail10clone_implINS0_14bad_exception_EED1Ev, symObjAddr: 0x692C, symBinAddr: 0xB5E578, symSize: 0x5C }
  - { offset: 0x37E066, size: 0x8, addend: 0x0, symName: __ZTv0_n40_N5boost16exception_detail10clone_implINS0_14bad_exception_EED1Ev, symObjAddr: 0x692C, symBinAddr: 0xB5E578, symSize: 0x5C }
  - { offset: 0x37E082, size: 0x8, addend: 0x0, symName: __ZTv0_n40_N5boost16exception_detail10clone_implINS0_14bad_exception_EED1Ev, symObjAddr: 0x692C, symBinAddr: 0xB5E578, symSize: 0x5C }
  - { offset: 0x37E08A, size: 0x8, addend: 0x0, symName: __ZTv0_n40_N5boost16exception_detail10clone_implINS0_14bad_exception_EED0Ev, symObjAddr: 0x6988, symBinAddr: 0xB5E5D4, symSize: 0x58 }
  - { offset: 0x37E183, size: 0x8, addend: 0x0, symName: __ZTv0_n40_N5boost16exception_detail10clone_implINS0_14bad_exception_EED0Ev, symObjAddr: 0x6988, symBinAddr: 0xB5E5D4, symSize: 0x58 }
  - { offset: 0x37E18B, size: 0x8, addend: 0x0, symName: __ZN5boost10shared_ptrIKNS_16exception_detail10clone_baseEEC2INS1_10clone_implINS1_14bad_exception_EEEEEPT_, symObjAddr: 0x69E0, symBinAddr: 0xB5E62C, symSize: 0xB0 }
  - { offset: 0x37E1B1, size: 0x8, addend: 0x0, symName: __ZN5boost10shared_ptrIKNS_16exception_detail10clone_baseEEC2INS1_10clone_implINS1_14bad_exception_EEEEEPT_, symObjAddr: 0x69E0, symBinAddr: 0xB5E62C, symSize: 0xB0 }
  - { offset: 0x37E3C2, size: 0x8, addend: 0x0, symName: __ZN5boost10shared_ptrIKNS_16exception_detail10clone_baseEEC2INS1_10clone_implINS1_14bad_exception_EEEEEPT_, symObjAddr: 0x69E0, symBinAddr: 0xB5E62C, symSize: 0xB0 }
  - { offset: 0x37E3CA, size: 0x8, addend: 0x0, symName: __ZN5boost6detail17sp_counted_impl_pINS_16exception_detail10clone_implINS2_14bad_exception_EEEED1Ev, symObjAddr: 0x6A90, symBinAddr: 0xB5E6DC, symSize: 0x4 }
  - { offset: 0x37E5C0, size: 0x8, addend: 0x0, symName: __ZN5boost6detail17sp_counted_impl_pINS_16exception_detail10clone_implINS2_14bad_exception_EEEED1Ev, symObjAddr: 0x6A90, symBinAddr: 0xB5E6DC, symSize: 0x4 }
  - { offset: 0x37E5C8, size: 0x8, addend: 0x0, symName: __ZN5boost6detail17sp_counted_impl_pINS_16exception_detail10clone_implINS2_14bad_exception_EEEED0Ev, symObjAddr: 0x6A94, symBinAddr: 0xB5E6E0, symSize: 0x4 }
  - { offset: 0x37E5F9, size: 0x8, addend: 0x0, symName: __ZN5boost6detail17sp_counted_impl_pINS_16exception_detail10clone_implINS2_14bad_exception_EEEED0Ev, symObjAddr: 0x6A94, symBinAddr: 0xB5E6E0, symSize: 0x4 }
  - { offset: 0x37E601, size: 0x8, addend: 0x0, symName: __ZN5boost6detail17sp_counted_impl_pINS_16exception_detail10clone_implINS2_14bad_exception_EEEE7disposeEv, symObjAddr: 0x6A98, symBinAddr: 0xB5E6E4, symSize: 0x18 }
  - { offset: 0x37E632, size: 0x8, addend: 0x0, symName: __ZN5boost6detail17sp_counted_impl_pINS_16exception_detail10clone_implINS2_14bad_exception_EEEE7disposeEv, symObjAddr: 0x6A98, symBinAddr: 0xB5E6E4, symSize: 0x18 }
  - { offset: 0x37E63A, size: 0x8, addend: 0x0, symName: __ZN5boost6detail17sp_counted_impl_pINS_16exception_detail10clone_implINS2_14bad_exception_EEEE11get_deleterERKSt9type_info, symObjAddr: 0x6AB0, symBinAddr: 0xB5E6FC, symSize: 0x8 }
  - { offset: 0x37E691, size: 0x8, addend: 0x0, symName: __ZN5boost6detail17sp_counted_impl_pINS_16exception_detail10clone_implINS2_14bad_exception_EEEE11get_deleterERKSt9type_info, symObjAddr: 0x6AB0, symBinAddr: 0xB5E6FC, symSize: 0x8 }
  - { offset: 0x37E699, size: 0x8, addend: 0x0, symName: __ZN5boost6detail17sp_counted_impl_pINS_16exception_detail10clone_implINS2_14bad_exception_EEEE17get_local_deleterERKSt9type_info, symObjAddr: 0x6AB8, symBinAddr: 0xB5E704, symSize: 0x8 }
  - { offset: 0x37E6D4, size: 0x8, addend: 0x0, symName: __ZN5boost6detail17sp_counted_impl_pINS_16exception_detail10clone_implINS2_14bad_exception_EEEE17get_local_deleterERKSt9type_info, symObjAddr: 0x6AB8, symBinAddr: 0xB5E704, symSize: 0x8 }
  - { offset: 0x37E6DC, size: 0x8, addend: 0x0, symName: __ZN5boost6detail17sp_counted_impl_pINS_16exception_detail10clone_implINS2_14bad_exception_EEEE19get_untyped_deleterEv, symObjAddr: 0x6AC0, symBinAddr: 0xB5E70C, symSize: 0x8 }
  - { offset: 0x37E717, size: 0x8, addend: 0x0, symName: __ZN5boost6detail17sp_counted_impl_pINS_16exception_detail10clone_implINS2_14bad_exception_EEEE19get_untyped_deleterEv, symObjAddr: 0x6AC0, symBinAddr: 0xB5E70C, symSize: 0x8 }
  - { offset: 0x37E71F, size: 0x8, addend: 0x0, symName: __ZN5boost6detail16thread_data_baseC2Ev, symObjAddr: 0x6AC8, symBinAddr: 0xB5E714, symSize: 0x18C }
  - { offset: 0x37EB6D, size: 0x8, addend: 0x0, symName: __ZN5boost6detail16thread_data_baseC2Ev, symObjAddr: 0x6AC8, symBinAddr: 0xB5E714, symSize: 0x18C }
  - { offset: 0x37EB75, size: 0x8, addend: 0x0, symName: __ZN5boost6detail26externally_launched_threadD1Ev, symObjAddr: 0x6C54, symBinAddr: 0xB5E8A0, symSize: 0xB8 }
  - { offset: 0x37F0D0, size: 0x8, addend: 0x0, symName: __ZN5boost6detail26externally_launched_threadD1Ev, symObjAddr: 0x6C54, symBinAddr: 0xB5E8A0, symSize: 0xB8 }
  - { offset: 0x37F0D8, size: 0x8, addend: 0x0, symName: __ZN5boost6detail26externally_launched_threadD0Ev, symObjAddr: 0x6D0C, symBinAddr: 0xB5E958, symSize: 0xBC }
  - { offset: 0x37F10E, size: 0x8, addend: 0x0, symName: __ZN5boost6detail26externally_launched_threadD0Ev, symObjAddr: 0x6D0C, symBinAddr: 0xB5E958, symSize: 0xBC }
  - { offset: 0x37F3E4, size: 0x8, addend: 0x0, symName: __ZN5boost6detail26externally_launched_threadD0Ev, symObjAddr: 0x6D0C, symBinAddr: 0xB5E958, symSize: 0xBC }
  - { offset: 0x37F3EC, size: 0x8, addend: 0x0, symName: __ZN5boost6detail26externally_launched_thread3runEv, symObjAddr: 0x6DC8, symBinAddr: 0xB5EA14, symSize: 0x4 }
  - { offset: 0x37F6F2, size: 0x8, addend: 0x0, symName: __ZN5boost6detail26externally_launched_thread3runEv, symObjAddr: 0x6DC8, symBinAddr: 0xB5EA14, symSize: 0x4 }
  - { offset: 0x37F6FA, size: 0x8, addend: 0x0, symName: __ZN5boost6detail26externally_launched_thread25notify_all_at_thread_exitEPNS_18condition_variableEPNS_5mutexE, symObjAddr: 0x6DCC, symBinAddr: 0xB5EA18, symSize: 0x4 }
  - { offset: 0x37F725, size: 0x8, addend: 0x0, symName: __ZN5boost6detail26externally_launched_thread25notify_all_at_thread_exitEPNS_18condition_variableEPNS_5mutexE, symObjAddr: 0x6DCC, symBinAddr: 0xB5EA18, symSize: 0x4 }
  - { offset: 0x37F72D, size: 0x8, addend: 0x0, symName: __ZN5boost15throw_exceptionINS_21thread_resource_errorEEEvRKT_, symObjAddr: 0x6DD0, symBinAddr: 0xB5EA1C, symSize: 0x50 }
  - { offset: 0x37F774, size: 0x8, addend: 0x0, symName: __ZN5boost21thread_resource_errorC1EiPKc, symObjAddr: 0x6E20, symBinAddr: 0xB5EA6C, symSize: 0xB0 }
  - { offset: 0x37F77C, size: 0x8, addend: 0x0, symName: __ZN5boost21thread_resource_errorD1Ev, symObjAddr: 0x6ED0, symBinAddr: 0xB5EB1C, symSize: 0x4 }
  - { offset: 0x37F893, size: 0x8, addend: 0x0, symName: __ZN5boost21thread_resource_errorD1Ev, symObjAddr: 0x6ED0, symBinAddr: 0xB5EB1C, symSize: 0x4 }
  - { offset: 0x37F89B, size: 0x8, addend: 0x0, symName: __ZN5boost10wrapexceptINS_21thread_resource_errorEEC1ERKS1_, symObjAddr: 0x6ED4, symBinAddr: 0xB5EB20, symSize: 0x80 }
  - { offset: 0x37F8C8, size: 0x8, addend: 0x0, symName: __ZN5boost21thread_resource_errorD1Ev, symObjAddr: 0x6ED0, symBinAddr: 0xB5EB1C, symSize: 0x4 }
  - { offset: 0x37F8D0, size: 0x8, addend: 0x0, symName: __ZN5boost10wrapexceptINS_21thread_resource_errorEEC1ERKS1_, symObjAddr: 0x6ED4, symBinAddr: 0xB5EB20, symSize: 0x80 }
  - { offset: 0x37F8F1, size: 0x8, addend: 0x0, symName: __ZN5boost21thread_resource_errorD1Ev, symObjAddr: 0x6ED0, symBinAddr: 0xB5EB1C, symSize: 0x4 }
  - { offset: 0x37F8F9, size: 0x8, addend: 0x0, symName: __ZN5boost10wrapexceptINS_21thread_resource_errorEEC1ERKS1_, symObjAddr: 0x6ED4, symBinAddr: 0xB5EB20, symSize: 0x80 }
  - { offset: 0x37F91A, size: 0x8, addend: 0x0, symName: __ZN5boost21thread_resource_errorD1Ev, symObjAddr: 0x6ED0, symBinAddr: 0xB5EB1C, symSize: 0x4 }
  - { offset: 0x37F922, size: 0x8, addend: 0x0, symName: __ZN5boost10wrapexceptINS_21thread_resource_errorEEC1ERKS1_, symObjAddr: 0x6ED4, symBinAddr: 0xB5EB20, symSize: 0x80 }
  - { offset: 0x37F9A8, size: 0x8, addend: 0x0, symName: __ZN5boost10wrapexceptINS_21thread_resource_errorEEC1ERKS1_, symObjAddr: 0x6ED4, symBinAddr: 0xB5EB20, symSize: 0x80 }
  - { offset: 0x37F9B0, size: 0x8, addend: 0x0, symName: __ZN5boost10wrapexceptINS_21thread_resource_errorEED1Ev, symObjAddr: 0x6F54, symBinAddr: 0xB5EBA0, symSize: 0x58 }
  - { offset: 0x37FB13, size: 0x8, addend: 0x0, symName: __ZN5boost10wrapexceptINS_21thread_resource_errorEED1Ev, symObjAddr: 0x6F54, symBinAddr: 0xB5EBA0, symSize: 0x58 }
  - { offset: 0x37FB1B, size: 0x8, addend: 0x0, symName: __ZNK5boost10wrapexceptINS_21thread_resource_errorEE5cloneEv, symObjAddr: 0x6FAC, symBinAddr: 0xB5EBF8, symSize: 0x110 }
  - { offset: 0x37FD1B, size: 0x8, addend: 0x0, symName: __ZNK5boost10wrapexceptINS_21thread_resource_errorEE5cloneEv, symObjAddr: 0x6FAC, symBinAddr: 0xB5EBF8, symSize: 0x110 }
  - { offset: 0x37FD23, size: 0x8, addend: 0x0, symName: __ZNK5boost10wrapexceptINS_21thread_resource_errorEE7rethrowEv, symObjAddr: 0x70BC, symBinAddr: 0xB5ED08, symSize: 0x50 }
  - { offset: 0x380000, size: 0x8, addend: 0x0, symName: __ZNK5boost10wrapexceptINS_21thread_resource_errorEE7rethrowEv, symObjAddr: 0x70BC, symBinAddr: 0xB5ED08, symSize: 0x50 }
  - { offset: 0x38001D, size: 0x8, addend: 0x0, symName: __ZNK5boost10wrapexceptINS_21thread_resource_errorEE7rethrowEv, symObjAddr: 0x70BC, symBinAddr: 0xB5ED08, symSize: 0x50 }
  - { offset: 0x38002C, size: 0x8, addend: 0x0, symName: __ZNK5boost10wrapexceptINS_21thread_resource_errorEE7rethrowEv, symObjAddr: 0x70BC, symBinAddr: 0xB5ED08, symSize: 0x50 }
  - { offset: 0x380034, size: 0x8, addend: 0x0, symName: __ZN5boost10wrapexceptINS_21thread_resource_errorEED0Ev, symObjAddr: 0x710C, symBinAddr: 0xB5ED58, symSize: 0x58 }
  - { offset: 0x380085, size: 0x8, addend: 0x0, symName: __ZN5boost10wrapexceptINS_21thread_resource_errorEED0Ev, symObjAddr: 0x710C, symBinAddr: 0xB5ED58, symSize: 0x58 }
  - { offset: 0x38008D, size: 0x8, addend: 0x0, symName: __ZThn8_N5boost10wrapexceptINS_21thread_resource_errorEED1Ev, symObjAddr: 0x7164, symBinAddr: 0xB5EDB0, symSize: 0x50 }
  - { offset: 0x3801EF, size: 0x8, addend: 0x0, symName: __ZThn8_N5boost10wrapexceptINS_21thread_resource_errorEED1Ev, symObjAddr: 0x7164, symBinAddr: 0xB5EDB0, symSize: 0x50 }
  - { offset: 0x3801F7, size: 0x8, addend: 0x0, symName: __ZThn8_N5boost10wrapexceptINS_21thread_resource_errorEED0Ev, symObjAddr: 0x71B4, symBinAddr: 0xB5EE00, symSize: 0x5C }
  - { offset: 0x38021C, size: 0x8, addend: 0x0, symName: __ZThn8_N5boost10wrapexceptINS_21thread_resource_errorEED0Ev, symObjAddr: 0x71B4, symBinAddr: 0xB5EE00, symSize: 0x5C }
  - { offset: 0x380242, size: 0x8, addend: 0x0, symName: __ZThn8_N5boost10wrapexceptINS_21thread_resource_errorEED0Ev, symObjAddr: 0x71B4, symBinAddr: 0xB5EE00, symSize: 0x5C }
  - { offset: 0x380382, size: 0x8, addend: 0x0, symName: __ZThn8_N5boost10wrapexceptINS_21thread_resource_errorEED0Ev, symObjAddr: 0x71B4, symBinAddr: 0xB5EE00, symSize: 0x5C }
  - { offset: 0x38038A, size: 0x8, addend: 0x0, symName: __ZThn48_N5boost10wrapexceptINS_21thread_resource_errorEED1Ev, symObjAddr: 0x7210, symBinAddr: 0xB5EE5C, symSize: 0x50 }
  - { offset: 0x3804FA, size: 0x8, addend: 0x0, symName: __ZThn48_N5boost10wrapexceptINS_21thread_resource_errorEED1Ev, symObjAddr: 0x7210, symBinAddr: 0xB5EE5C, symSize: 0x50 }
  - { offset: 0x380502, size: 0x8, addend: 0x0, symName: __ZThn48_N5boost10wrapexceptINS_21thread_resource_errorEED0Ev, symObjAddr: 0x7260, symBinAddr: 0xB5EEAC, symSize: 0x5C }
  - { offset: 0x380527, size: 0x8, addend: 0x0, symName: __ZThn48_N5boost10wrapexceptINS_21thread_resource_errorEED0Ev, symObjAddr: 0x7260, symBinAddr: 0xB5EEAC, symSize: 0x5C }
  - { offset: 0x38054D, size: 0x8, addend: 0x0, symName: __ZThn48_N5boost10wrapexceptINS_21thread_resource_errorEED0Ev, symObjAddr: 0x7260, symBinAddr: 0xB5EEAC, symSize: 0x5C }
  - { offset: 0x380666, size: 0x8, addend: 0x0, symName: __ZThn48_N5boost10wrapexceptINS_21thread_resource_errorEED0Ev, symObjAddr: 0x7260, symBinAddr: 0xB5EEAC, symSize: 0x5C }
  - { offset: 0x38066E, size: 0x8, addend: 0x0, symName: __ZN5boost21thread_resource_errorD0Ev, symObjAddr: 0x72BC, symBinAddr: 0xB5EF08, symSize: 0x14 }
  - { offset: 0x3807E2, size: 0x8, addend: 0x0, symName: __ZN5boost21thread_resource_errorD0Ev, symObjAddr: 0x72BC, symBinAddr: 0xB5EF08, symSize: 0x14 }
  - { offset: 0x3807EA, size: 0x8, addend: 0x0, symName: __ZN5boost10wrapexceptINS_21thread_resource_errorEEC1ERKS2_, symObjAddr: 0x72D0, symBinAddr: 0xB5EF1C, symSize: 0xE0 }
  - { offset: 0x3808C0, size: 0x8, addend: 0x0, symName: __ZN5boost10wrapexceptINS_21thread_resource_errorEEC1ERKS2_, symObjAddr: 0x72D0, symBinAddr: 0xB5EF1C, symSize: 0xE0 }
  - { offset: 0x3808C8, size: 0x8, addend: 0x0, symName: __ZN5boost18condition_variableC2Ev, symObjAddr: 0x73B0, symBinAddr: 0xB5EFFC, symSize: 0xC0 }
  - { offset: 0x380AA5, size: 0x8, addend: 0x0, symName: __ZN5boost18condition_variableC2Ev, symObjAddr: 0x73B0, symBinAddr: 0xB5EFFC, symSize: 0xC0 }
  - { offset: 0x380ACE, size: 0x8, addend: 0x0, symName: __ZN5boost18condition_variableC2Ev, symObjAddr: 0x73B0, symBinAddr: 0xB5EFFC, symSize: 0xC0 }
  - { offset: 0x380AF7, size: 0x8, addend: 0x0, symName: __ZN5boost18condition_variableC2Ev, symObjAddr: 0x73B0, symBinAddr: 0xB5EFFC, symSize: 0xC0 }
  - { offset: 0x380B15, size: 0x8, addend: 0x0, symName: __ZN5boost18condition_variableC2Ev, symObjAddr: 0x73B0, symBinAddr: 0xB5EFFC, symSize: 0xC0 }
  - { offset: 0x380B1D, size: 0x8, addend: 0x0, symName: __ZN5boost6detail20sp_pointer_constructINS0_16thread_data_baseES2_EEvPNS_10shared_ptrIT_EEPT0_RNS0_12shared_countE, symObjAddr: 0x7470, symBinAddr: 0xB5F0BC, symSize: 0xFC }
  - { offset: 0x380C00, size: 0x8, addend: 0x0, symName: __ZN5boost6detail20sp_pointer_constructINS0_16thread_data_baseES2_EEvPNS_10shared_ptrIT_EEPT0_RNS0_12shared_countE, symObjAddr: 0x7470, symBinAddr: 0xB5F0BC, symSize: 0xFC }
  - { offset: 0x380C1C, size: 0x8, addend: 0x0, symName: __ZN5boost6detail20sp_pointer_constructINS0_16thread_data_baseES2_EEvPNS_10shared_ptrIT_EEPT0_RNS0_12shared_countE, symObjAddr: 0x7470, symBinAddr: 0xB5F0BC, symSize: 0xFC }
  - { offset: 0x380C39, size: 0x8, addend: 0x0, symName: __ZN5boost6detail20sp_pointer_constructINS0_16thread_data_baseES2_EEvPNS_10shared_ptrIT_EEPT0_RNS0_12shared_countE, symObjAddr: 0x7470, symBinAddr: 0xB5F0BC, symSize: 0xFC }
  - { offset: 0x380C56, size: 0x8, addend: 0x0, symName: __ZN5boost6detail20sp_pointer_constructINS0_16thread_data_baseES2_EEvPNS_10shared_ptrIT_EEPT0_RNS0_12shared_countE, symObjAddr: 0x7470, symBinAddr: 0xB5F0BC, symSize: 0xFC }
  - { offset: 0x380D94, size: 0x8, addend: 0x0, symName: __ZN5boost6detail17sp_counted_impl_pINS0_16thread_data_baseEED1Ev, symObjAddr: 0x756C, symBinAddr: 0xB5F1B8, symSize: 0x4 }
  - { offset: 0x380D9C, size: 0x8, addend: 0x0, symName: __ZN5boost6detail17sp_counted_impl_pINS0_16thread_data_baseEED0Ev, symObjAddr: 0x7570, symBinAddr: 0xB5F1BC, symSize: 0x4 }
  - { offset: 0x380DCD, size: 0x8, addend: 0x0, symName: __ZN5boost6detail17sp_counted_impl_pINS0_16thread_data_baseEED0Ev, symObjAddr: 0x7570, symBinAddr: 0xB5F1BC, symSize: 0x4 }
  - { offset: 0x380DD5, size: 0x8, addend: 0x0, symName: __ZN5boost6detail17sp_counted_impl_pINS0_16thread_data_baseEE7disposeEv, symObjAddr: 0x7574, symBinAddr: 0xB5F1C0, symSize: 0x18 }
  - { offset: 0x380E06, size: 0x8, addend: 0x0, symName: __ZN5boost6detail17sp_counted_impl_pINS0_16thread_data_baseEE7disposeEv, symObjAddr: 0x7574, symBinAddr: 0xB5F1C0, symSize: 0x18 }
  - { offset: 0x380E0E, size: 0x8, addend: 0x0, symName: __ZN5boost6detail17sp_counted_impl_pINS0_16thread_data_baseEE11get_deleterERKSt9type_info, symObjAddr: 0x758C, symBinAddr: 0xB5F1D8, symSize: 0x8 }
  - { offset: 0x380E65, size: 0x8, addend: 0x0, symName: __ZN5boost6detail17sp_counted_impl_pINS0_16thread_data_baseEE11get_deleterERKSt9type_info, symObjAddr: 0x758C, symBinAddr: 0xB5F1D8, symSize: 0x8 }
  - { offset: 0x380E6D, size: 0x8, addend: 0x0, symName: __ZN5boost6detail17sp_counted_impl_pINS0_16thread_data_baseEE17get_local_deleterERKSt9type_info, symObjAddr: 0x7594, symBinAddr: 0xB5F1E0, symSize: 0x8 }
  - { offset: 0x380EA8, size: 0x8, addend: 0x0, symName: __ZN5boost6detail17sp_counted_impl_pINS0_16thread_data_baseEE17get_local_deleterERKSt9type_info, symObjAddr: 0x7594, symBinAddr: 0xB5F1E0, symSize: 0x8 }
  - { offset: 0x380EB0, size: 0x8, addend: 0x0, symName: __ZN5boost6detail17sp_counted_impl_pINS0_16thread_data_baseEE19get_untyped_deleterEv, symObjAddr: 0x759C, symBinAddr: 0xB5F1E8, symSize: 0x8 }
  - { offset: 0x380EEB, size: 0x8, addend: 0x0, symName: __ZN5boost6detail17sp_counted_impl_pINS0_16thread_data_baseEE19get_untyped_deleterEv, symObjAddr: 0x759C, symBinAddr: 0xB5F1E8, symSize: 0x8 }
  - { offset: 0x380EF3, size: 0x8, addend: 0x0, symName: __ZNK5boost23enable_shared_from_thisINS_6detail16thread_data_baseEE22_internal_accept_ownerIS2_S2_EEvPKNS_10shared_ptrIT_EEPT0_, symObjAddr: 0x75A4, symBinAddr: 0xB5F1F0, symSize: 0xF0 }
  - { offset: 0x3810E3, size: 0x8, addend: 0x0, symName: __ZNK5boost23enable_shared_from_thisINS_6detail16thread_data_baseEE22_internal_accept_ownerIS2_S2_EEvPKNS_10shared_ptrIT_EEPT0_, symObjAddr: 0x75A4, symBinAddr: 0xB5F1F0, symSize: 0xF0 }
  - { offset: 0x384B6A, size: 0x8, addend: 0x0, symName: __MergedGlobals, symObjAddr: 0x218, symBinAddr: 0xEB0E50, symSize: 0x0 }
  - { offset: 0x384B8A, size: 0x8, addend: 0x0, symName: __MergedGlobals, symObjAddr: 0x218, symBinAddr: 0xEB0E50, symSize: 0x0 }
  - { offset: 0x384BA7, size: 0x8, addend: 0x0, symName: __ZN5boost13thread_detail17enter_once_regionERNS_9once_flagE, symObjAddr: 0x0, symBinAddr: 0xB5F398, symSize: 0xE8 }
  - { offset: 0x384F2F, size: 0x8, addend: 0x0, symName: __ZN5boost13thread_detail18commit_once_regionERNS_9once_flagE, symObjAddr: 0xF8, symBinAddr: 0xB5F480, symSize: 0x6C }
  - { offset: 0x384F37, size: 0x8, addend: 0x0, symName: __ZN5boost13thread_detail20rollback_once_regionERNS_9once_flagE, symObjAddr: 0x164, symBinAddr: 0xB5F4EC, symSize: 0x68 }
  - { offset: 0x3850F2, size: 0x8, addend: 0x0, symName: __ZN5boost13thread_detail20rollback_once_regionERNS_9once_flagE, symObjAddr: 0x164, symBinAddr: 0xB5F4EC, symSize: 0x68 }
...
